Archive member included because of file (symbol)

c:/program files (x86)/atollic/truestudio for arm pro 3.2.0/armtools/bin/../lib/gcc/arm-atollic-eabi/4.6.2/../../../../arm-atollic-eabi/lib/thumb/armv7-m\libc.a(lib_a-init.o)
                              BSP\cstartup.o (__libc_init_array)
c:/program files (x86)/atollic/truestudio for arm pro 3.2.0/armtools/bin/../lib/gcc/arm-atollic-eabi/4.6.2/../../../../arm-atollic-eabi/lib/thumb/armv7-m\libc.a(lib_a-vsnprintf.o)
                              BSP\bsp_ser.o (vsnprintf)
c:/program files (x86)/atollic/truestudio for arm pro 3.2.0/armtools/bin/../lib/gcc/arm-atollic-eabi/4.6.2/../../../../arm-atollic-eabi/lib/thumb/armv7-m\libc.a(lib_a-impure.o)
                              c:/program files (x86)/atollic/truestudio for arm pro 3.2.0/armtools/bin/../lib/gcc/arm-atollic-eabi/4.6.2/../../../../arm-atollic-eabi/lib/thumb/armv7-m\libc.a(lib_a-vsnprintf.o) (_impure_ptr)
c:/program files (x86)/atollic/truestudio for arm pro 3.2.0/armtools/bin/../lib/gcc/arm-atollic-eabi/4.6.2/../../../../arm-atollic-eabi/lib/thumb/armv7-m\libc.a(lib_a-svfprintf.o)
                              c:/program files (x86)/atollic/truestudio for arm pro 3.2.0/armtools/bin/../lib/gcc/arm-atollic-eabi/4.6.2/../../../../arm-atollic-eabi/lib/thumb/armv7-m\libc.a(lib_a-vsnprintf.o) (_svfprintf_r)
c:/program files (x86)/atollic/truestudio for arm pro 3.2.0/armtools/bin/../lib/gcc/arm-atollic-eabi/4.6.2/../../../../arm-atollic-eabi/lib/thumb/armv7-m\libc.a(lib_a-dtoa.o)
                              c:/program files (x86)/atollic/truestudio for arm pro 3.2.0/armtools/bin/../lib/gcc/arm-atollic-eabi/4.6.2/../../../../arm-atollic-eabi/lib/thumb/armv7-m\libc.a(lib_a-svfprintf.o) (_dtoa_r)
c:/program files (x86)/atollic/truestudio for arm pro 3.2.0/armtools/bin/../lib/gcc/arm-atollic-eabi/4.6.2/../../../../arm-atollic-eabi/lib/thumb/armv7-m\libc.a(lib_a-locale.o)
                              c:/program files (x86)/atollic/truestudio for arm pro 3.2.0/armtools/bin/../lib/gcc/arm-atollic-eabi/4.6.2/../../../../arm-atollic-eabi/lib/thumb/armv7-m\libc.a(lib_a-svfprintf.o) (_localeconv_r)
c:/program files (x86)/atollic/truestudio for arm pro 3.2.0/armtools/bin/../lib/gcc/arm-atollic-eabi/4.6.2/../../../../arm-atollic-eabi/lib/thumb/armv7-m\libc.a(lib_a-malloc.o)
                              c:/program files (x86)/atollic/truestudio for arm pro 3.2.0/armtools/bin/../lib/gcc/arm-atollic-eabi/4.6.2/../../../../arm-atollic-eabi/lib/thumb/armv7-m\libc.a(lib_a-dtoa.o) (malloc)
c:/program files (x86)/atollic/truestudio for arm pro 3.2.0/armtools/bin/../lib/gcc/arm-atollic-eabi/4.6.2/../../../../arm-atollic-eabi/lib/thumb/armv7-m\libc.a(lib_a-mallocr.o)
                              c:/program files (x86)/atollic/truestudio for arm pro 3.2.0/armtools/bin/../lib/gcc/arm-atollic-eabi/4.6.2/../../../../arm-atollic-eabi/lib/thumb/armv7-m\libc.a(lib_a-svfprintf.o) (_malloc_r)
c:/program files (x86)/atollic/truestudio for arm pro 3.2.0/armtools/bin/../lib/gcc/arm-atollic-eabi/4.6.2/../../../../arm-atollic-eabi/lib/thumb/armv7-m\libc.a(lib_a-memchr.o)
                              c:/program files (x86)/atollic/truestudio for arm pro 3.2.0/armtools/bin/../lib/gcc/arm-atollic-eabi/4.6.2/../../../../arm-atollic-eabi/lib/thumb/armv7-m\libc.a(lib_a-svfprintf.o) (memchr)
c:/program files (x86)/atollic/truestudio for arm pro 3.2.0/armtools/bin/../lib/gcc/arm-atollic-eabi/4.6.2/../../../../arm-atollic-eabi/lib/thumb/armv7-m\libc.a(lib_a-memcpy.o)
                              c:/program files (x86)/atollic/truestudio for arm pro 3.2.0/armtools/bin/../lib/gcc/arm-atollic-eabi/4.6.2/../../../../arm-atollic-eabi/lib/thumb/armv7-m\libc.a(lib_a-dtoa.o) (memcpy)
c:/program files (x86)/atollic/truestudio for arm pro 3.2.0/armtools/bin/../lib/gcc/arm-atollic-eabi/4.6.2/../../../../arm-atollic-eabi/lib/thumb/armv7-m\libc.a(lib_a-mlock.o)
                              c:/program files (x86)/atollic/truestudio for arm pro 3.2.0/armtools/bin/../lib/gcc/arm-atollic-eabi/4.6.2/../../../../arm-atollic-eabi/lib/thumb/armv7-m\libc.a(lib_a-mallocr.o) (__malloc_lock)
c:/program files (x86)/atollic/truestudio for arm pro 3.2.0/armtools/bin/../lib/gcc/arm-atollic-eabi/4.6.2/../../../../arm-atollic-eabi/lib/thumb/armv7-m\libc.a(lib_a-mprec.o)
                              c:/program files (x86)/atollic/truestudio for arm pro 3.2.0/armtools/bin/../lib/gcc/arm-atollic-eabi/4.6.2/../../../../arm-atollic-eabi/lib/thumb/armv7-m\libc.a(lib_a-dtoa.o) (_Balloc)
c:/program files (x86)/atollic/truestudio for arm pro 3.2.0/armtools/bin/../lib/gcc/arm-atollic-eabi/4.6.2/../../../../arm-atollic-eabi/lib/thumb/armv7-m\libc.a(lib_a-s_fpclassify.o)
                              c:/program files (x86)/atollic/truestudio for arm pro 3.2.0/armtools/bin/../lib/gcc/arm-atollic-eabi/4.6.2/../../../../arm-atollic-eabi/lib/thumb/armv7-m\libc.a(lib_a-svfprintf.o) (__fpclassifyd)
c:/program files (x86)/atollic/truestudio for arm pro 3.2.0/armtools/bin/../lib/gcc/arm-atollic-eabi/4.6.2/../../../../arm-atollic-eabi/lib/thumb/armv7-m\libc.a(lib_a-sbrkr.o)
                              c:/program files (x86)/atollic/truestudio for arm pro 3.2.0/armtools/bin/../lib/gcc/arm-atollic-eabi/4.6.2/../../../../arm-atollic-eabi/lib/thumb/armv7-m\libc.a(lib_a-mallocr.o) (_sbrk_r)
c:/program files (x86)/atollic/truestudio for arm pro 3.2.0/armtools/bin/../lib/gcc/arm-atollic-eabi/4.6.2/../../../../arm-atollic-eabi/lib/thumb/armv7-m\libc.a(lib_a-strcmp.o)
                              c:/program files (x86)/atollic/truestudio for arm pro 3.2.0/armtools/bin/../lib/gcc/arm-atollic-eabi/4.6.2/../../../../arm-atollic-eabi/lib/thumb/armv7-m\libc.a(lib_a-locale.o) (strcmp)
c:/program files (x86)/atollic/truestudio for arm pro 3.2.0/armtools/bin/../lib/gcc/arm-atollic-eabi/4.6.2/../../../../arm-atollic-eabi/lib/thumb/armv7-m\libc.a(lib_a-strlen.o)
                              c:/program files (x86)/atollic/truestudio for arm pro 3.2.0/armtools/bin/../lib/gcc/arm-atollic-eabi/4.6.2/../../../../arm-atollic-eabi/lib/thumb/armv7-m\libc.a(lib_a-svfprintf.o) (strlen)
c:/program files (x86)/atollic/truestudio for arm pro 3.2.0/armtools/bin/../lib/gcc/arm-atollic-eabi/4.6.2/../../../../arm-atollic-eabi/lib/thumb/armv7-m\libc.a(lib_a-svfiprintf.o)
                              c:/program files (x86)/atollic/truestudio for arm pro 3.2.0/armtools/bin/../lib/gcc/arm-atollic-eabi/4.6.2/../../../../arm-atollic-eabi/lib/thumb/armv7-m\libc.a(lib_a-svfprintf.o) (__ssprint_r)
c:/program files (x86)/atollic/truestudio for arm pro 3.2.0/armtools/bin/../lib/gcc/arm-atollic-eabi/4.6.2/../../../../arm-atollic-eabi/lib/thumb/armv7-m\libc.a(lib_a-syscalls.o)
                              c:/program files (x86)/atollic/truestudio for arm pro 3.2.0/armtools/bin/../lib/gcc/arm-atollic-eabi/4.6.2/../../../../arm-atollic-eabi/lib/thumb/armv7-m\libc.a(lib_a-sbrkr.o) (_sbrk)
c:/program files (x86)/atollic/truestudio for arm pro 3.2.0/armtools/bin/../lib/gcc/arm-atollic-eabi/4.6.2/../../../../arm-atollic-eabi/lib/thumb/armv7-m\libc.a(lib_a-callocr.o)
                              c:/program files (x86)/atollic/truestudio for arm pro 3.2.0/armtools/bin/../lib/gcc/arm-atollic-eabi/4.6.2/../../../../arm-atollic-eabi/lib/thumb/armv7-m\libc.a(lib_a-mprec.o) (_calloc_r)
c:/program files (x86)/atollic/truestudio for arm pro 3.2.0/armtools/bin/../lib/gcc/arm-atollic-eabi/4.6.2/../../../../arm-atollic-eabi/lib/thumb/armv7-m\libc.a(lib_a-freer.o)
                              c:/program files (x86)/atollic/truestudio for arm pro 3.2.0/armtools/bin/../lib/gcc/arm-atollic-eabi/4.6.2/../../../../arm-atollic-eabi/lib/thumb/armv7-m\libc.a(lib_a-malloc.o) (_free_r)
c:/program files (x86)/atollic/truestudio for arm pro 3.2.0/armtools/bin/../lib/gcc/arm-atollic-eabi/4.6.2/../../../../arm-atollic-eabi/lib/thumb/armv7-m\libc.a(lib_a-memmove.o)
                              c:/program files (x86)/atollic/truestudio for arm pro 3.2.0/armtools/bin/../lib/gcc/arm-atollic-eabi/4.6.2/../../../../arm-atollic-eabi/lib/thumb/armv7-m\libc.a(lib_a-svfiprintf.o) (memmove)
c:/program files (x86)/atollic/truestudio for arm pro 3.2.0/armtools/bin/../lib/gcc/arm-atollic-eabi/4.6.2/../../../../arm-atollic-eabi/lib/thumb/armv7-m\libc.a(lib_a-memset.o)
                              c:/program files (x86)/atollic/truestudio for arm pro 3.2.0/armtools/bin/../lib/gcc/arm-atollic-eabi/4.6.2/../../../../arm-atollic-eabi/lib/thumb/armv7-m\libc.a(lib_a-callocr.o) (memset)
c:/program files (x86)/atollic/truestudio for arm pro 3.2.0/armtools/bin/../lib/gcc/arm-atollic-eabi/4.6.2/../../../../arm-atollic-eabi/lib/thumb/armv7-m\libc.a(lib_a-reallocr.o)
                              c:/program files (x86)/atollic/truestudio for arm pro 3.2.0/armtools/bin/../lib/gcc/arm-atollic-eabi/4.6.2/../../../../arm-atollic-eabi/lib/thumb/armv7-m\libc.a(lib_a-svfiprintf.o) (_realloc_r)
c:/program files (x86)/atollic/truestudio for arm pro 3.2.0/armtools/bin/../lib/gcc/arm-atollic-eabi/4.6.2/../../../../arm-atollic-eabi/lib/thumb/armv7-m\libc.a(lib_a-reent.o)
                              c:/program files (x86)/atollic/truestudio for arm pro 3.2.0/armtools/bin/../lib/gcc/arm-atollic-eabi/4.6.2/../../../../arm-atollic-eabi/lib/thumb/armv7-m\libc.a(lib_a-sbrkr.o) (errno)
c:/program files (x86)/atollic/truestudio for arm pro 3.2.0/armtools/bin/../lib/gcc/arm-atollic-eabi/4.6.2/thumb/armv7-m\libgcc.a(_arm_addsubdf3.o)
                              c:/program files (x86)/atollic/truestudio for arm pro 3.2.0/armtools/bin/../lib/gcc/arm-atollic-eabi/4.6.2/../../../../arm-atollic-eabi/lib/thumb/armv7-m\libc.a(lib_a-dtoa.o) (__aeabi_dsub)
c:/program files (x86)/atollic/truestudio for arm pro 3.2.0/armtools/bin/../lib/gcc/arm-atollic-eabi/4.6.2/thumb/armv7-m\libgcc.a(_arm_muldivdf3.o)
                              c:/program files (x86)/atollic/truestudio for arm pro 3.2.0/armtools/bin/../lib/gcc/arm-atollic-eabi/4.6.2/../../../../arm-atollic-eabi/lib/thumb/armv7-m\libc.a(lib_a-dtoa.o) (__aeabi_dmul)
c:/program files (x86)/atollic/truestudio for arm pro 3.2.0/armtools/bin/../lib/gcc/arm-atollic-eabi/4.6.2/thumb/armv7-m\libgcc.a(_arm_cmpdf2.o)
                              c:/program files (x86)/atollic/truestudio for arm pro 3.2.0/armtools/bin/../lib/gcc/arm-atollic-eabi/4.6.2/../../../../arm-atollic-eabi/lib/thumb/armv7-m\libc.a(lib_a-svfprintf.o) (__aeabi_dcmpeq)
c:/program files (x86)/atollic/truestudio for arm pro 3.2.0/armtools/bin/../lib/gcc/arm-atollic-eabi/4.6.2/thumb/armv7-m\libgcc.a(_arm_fixdfsi.o)
                              c:/program files (x86)/atollic/truestudio for arm pro 3.2.0/armtools/bin/../lib/gcc/arm-atollic-eabi/4.6.2/../../../../arm-atollic-eabi/lib/thumb/armv7-m\libc.a(lib_a-dtoa.o) (__aeabi_d2iz)
c:/program files (x86)/atollic/truestudio for arm pro 3.2.0/armtools/bin/../lib/gcc/arm-atollic-eabi/4.6.2/thumb/armv7-m\libgcc.a(_aeabi_uldivmod.o)
                              c:/program files (x86)/atollic/truestudio for arm pro 3.2.0/armtools/bin/../lib/gcc/arm-atollic-eabi/4.6.2/../../../../arm-atollic-eabi/lib/thumb/armv7-m\libc.a(lib_a-svfprintf.o) (__aeabi_uldivmod)
c:/program files (x86)/atollic/truestudio for arm pro 3.2.0/armtools/bin/../lib/gcc/arm-atollic-eabi/4.6.2/thumb/armv7-m\libgcc.a(bpabi.o)
                              c:/program files (x86)/atollic/truestudio for arm pro 3.2.0/armtools/bin/../lib/gcc/arm-atollic-eabi/4.6.2/thumb/armv7-m\libgcc.a(_aeabi_uldivmod.o) (__gnu_uldivmod_helper)
c:/program files (x86)/atollic/truestudio for arm pro 3.2.0/armtools/bin/../lib/gcc/arm-atollic-eabi/4.6.2/thumb/armv7-m\libgcc.a(unwind-arm.o)
                              c:/program files (x86)/atollic/truestudio for arm pro 3.2.0/armtools/bin/../lib/gcc/arm-atollic-eabi/4.6.2/thumb/armv7-m\libgcc.a(bpabi.o) (__aeabi_unwind_cpp_pr0)
c:/program files (x86)/atollic/truestudio for arm pro 3.2.0/armtools/bin/../lib/gcc/arm-atollic-eabi/4.6.2/thumb/armv7-m\libgcc.a(libunwind.o)
                              c:/program files (x86)/atollic/truestudio for arm pro 3.2.0/armtools/bin/../lib/gcc/arm-atollic-eabi/4.6.2/thumb/armv7-m\libgcc.a(unwind-arm.o) (restore_core_regs)
c:/program files (x86)/atollic/truestudio for arm pro 3.2.0/armtools/bin/../lib/gcc/arm-atollic-eabi/4.6.2/thumb/armv7-m\libgcc.a(pr-support.o)
                              c:/program files (x86)/atollic/truestudio for arm pro 3.2.0/armtools/bin/../lib/gcc/arm-atollic-eabi/4.6.2/thumb/armv7-m\libgcc.a(unwind-arm.o) (__gnu_unwind_execute)
c:/program files (x86)/atollic/truestudio for arm pro 3.2.0/armtools/bin/../lib/gcc/arm-atollic-eabi/4.6.2/thumb/armv7-m\libgcc.a(_dvmd_tls.o)
                              c:/program files (x86)/atollic/truestudio for arm pro 3.2.0/armtools/bin/../lib/gcc/arm-atollic-eabi/4.6.2/thumb/armv7-m\libgcc.a(_aeabi_uldivmod.o) (__aeabi_ldiv0)
c:/program files (x86)/atollic/truestudio for arm pro 3.2.0/armtools/bin/../lib/gcc/arm-atollic-eabi/4.6.2/thumb/armv7-m\libgcc.a(_divdi3.o)
                              c:/program files (x86)/atollic/truestudio for arm pro 3.2.0/armtools/bin/../lib/gcc/arm-atollic-eabi/4.6.2/thumb/armv7-m\libgcc.a(bpabi.o) (__divdi3)
c:/program files (x86)/atollic/truestudio for arm pro 3.2.0/armtools/bin/../lib/gcc/arm-atollic-eabi/4.6.2/thumb/armv7-m\libgcc.a(_udivdi3.o)
                              c:/program files (x86)/atollic/truestudio for arm pro 3.2.0/armtools/bin/../lib/gcc/arm-atollic-eabi/4.6.2/thumb/armv7-m\libgcc.a(bpabi.o) (__udivdi3)
c:/program files (x86)/atollic/truestudio for arm pro 3.2.0/armtools/bin/../lib/gcc/arm-atollic-eabi/4.6.2/../../../../arm-atollic-eabi/lib/thumb/armv7-m\libc.a(lib_a-abort.o)
                              c:/program files (x86)/atollic/truestudio for arm pro 3.2.0/armtools/bin/../lib/gcc/arm-atollic-eabi/4.6.2/thumb/armv7-m\libgcc.a(unwind-arm.o) (abort)
c:/program files (x86)/atollic/truestudio for arm pro 3.2.0/armtools/bin/../lib/gcc/arm-atollic-eabi/4.6.2/../../../../arm-atollic-eabi/lib/thumb/armv7-m\libc.a(lib_a-signal.o)
                              c:/program files (x86)/atollic/truestudio for arm pro 3.2.0/armtools/bin/../lib/gcc/arm-atollic-eabi/4.6.2/../../../../arm-atollic-eabi/lib/thumb/armv7-m\libc.a(lib_a-abort.o) (raise)
c:/program files (x86)/atollic/truestudio for arm pro 3.2.0/armtools/bin/../lib/gcc/arm-atollic-eabi/4.6.2/../../../../arm-atollic-eabi/lib/thumb/armv7-m\libc.a(lib_a-signalr.o)
                              c:/program files (x86)/atollic/truestudio for arm pro 3.2.0/armtools/bin/../lib/gcc/arm-atollic-eabi/4.6.2/../../../../arm-atollic-eabi/lib/thumb/armv7-m\libc.a(lib_a-signal.o) (_kill_r)

Allocating common symbols
Common symbol       size              file

OSSchedLockNestingCtr
                    0x1               uCOS-III\Source\os_var.o
OS_AppTaskReturnHookPtr
                    0x4               uCOS-III\Source\os_var.o
OSStatTaskTimeMax   0x4               uCOS-III\Source\os_var.o
OSStatTaskCtr       0x4               uCOS-III\Source\os_var.o
OSTaskRegNextAvailID
                    0x1               uCOS-III\Source\os_var.o
OSRunning           0x1               uCOS-III\Source\os_var.o
OSRdyList           0x90              uCOS-III\Source\os_var.o
OSPrioHighRdy       0x1               uCOS-III\Source\os_var.o
errno               0x4               c:/program files (x86)/atollic/truestudio for arm pro 3.2.0/armtools/bin/../lib/gcc/arm-atollic-eabi/4.6.2/../../../../arm-atollic-eabi/lib/thumb/armv7-m\libc.a(lib_a-reent.o)
OSStatTaskRdy       0x1               uCOS-III\Source\os_var.o
OSSemDbgListPtr     0x4               uCOS-III\Source\os_var.o
OS_AppTaskCreateHookPtr
                    0x4               uCOS-III\Source\os_var.o
OSCfg_StatTaskStk   0x200             uCOS-III\Source\os_cfg_app.o
OSCfg_TickWheel     0x80              uCOS-III\Source\os_cfg_app.o
OSPrioCur           0x1               uCOS-III\Source\os_var.o
OSTickTaskTCB       0xc4              uCOS-III\Source\os_var.o
Math_RandSeedCur    0x4               uC-LIB\lib_math.o
OSTmrTickCtr        0x4               uCOS-III\Source\os_var.o
OSSchedLockTimeBegin
                    0x4               uCOS-III\Source\os_var.o
OSTCBCurPtr         0x4               uCOS-III\Source\os_var.o
OSCfg_MsgPool       0x320             uCOS-III\Source\os_cfg_app.o
OSQQty              0x2               uCOS-III\Source\os_var.o
OSStatTaskCPUUsageMax
                    0x2               uCOS-III\Source\os_var.o
OSPrioSaved         0x1               uCOS-III\Source\os_var.o
OSTCBHighRdyPtr     0x4               uCOS-III\Source\os_var.o
CPU_TS_TmrFreq_Hz   0x4               uC-CPU\cpu_core.o
OSSchedLockTimeMaxCur
                    0x4               uCOS-III\Source\os_var.o
OSTaskDbgListPtr    0x4               uCOS-III\Source\os_var.o
OSTmrTaskTimeMax    0x4               uCOS-III\Source\os_var.o
OS_AppTaskDelHookPtr
                    0x4               uCOS-III\Source\os_var.o
OS_AppTimeTickHookPtr
                    0x4               uCOS-III\Source\os_var.o
Mem_PoolHeap        0x48              uC-LIB\lib_mem.o
OSTaskCtxSwCtr      0x4               uCOS-III\Source\os_var.o
OSStatTaskCPUUsage  0x2               uCOS-III\Source\os_var.o
OSIntNestingCtr     0x1               uCOS-III\Source\os_var.o
OSTaskQty           0x2               uCOS-III\Source\os_var.o
OS_CPU_ExceptStkBase
                    0x4               uCOS-III\Ports\ARM-Cortex-M3\Generic\GNU\os_cpu_c.o
OSTmrTaskTCB        0xc4              uCOS-III\Source\os_var.o
OSMsgPool           0xc               uCOS-III\Source\os_var.o
OSIdleTaskTCB       0xc4              uCOS-III\Source\os_var.o
OSQDbgListPtr       0x4               uCOS-III\Source\os_var.o
OSSemQty            0x2               uCOS-III\Source\os_var.o
OSMemDbgListPtr     0x4               uCOS-III\Source\os_var.o
OSSchedRoundRobinDfltTimeQuanta
                    0x4               uCOS-III\Source\os_var.o
OSCfg_TmrTaskStk    0x200             uCOS-III\Source\os_cfg_app.o
OS_AppIdleTaskHookPtr
                    0x4               uCOS-III\Source\os_var.o
OSStatTaskCtrMax    0x4               uCOS-III\Source\os_var.o
Mem_Heap            0x2400            uC-LIB\lib_mem.o
OSTickCtr           0x4               uCOS-III\Source\os_var.o
OS_AppTaskSwHookPtr
                    0x4               uCOS-III\Source\os_var.o
OSCfg_TmrWheel      0x80              uCOS-III\Source\os_cfg_app.o
OSTmrQty            0x2               uCOS-III\Source\os_var.o
OSCfg_ISRStk        0x400             uCOS-III\Source\os_cfg_app.o
OSIdleTaskCtr       0x4               uCOS-III\Source\os_var.o
OSStatTaskCtrRun    0x4               uCOS-III\Source\os_var.o
OS_AppStatTaskHookPtr
                    0x4               uCOS-III\Source\os_var.o
OSCfg_TickTaskStk   0x200             uCOS-III\Source\os_cfg_app.o
Mem_PoolTbl         0x4               uC-LIB\lib_mem.o
OSFlagQty           0x2               uCOS-III\Source\os_var.o
OSFlagDbgListPtr    0x4               uCOS-III\Source\os_var.o
OSSchedLockTimeMax  0x4               uCOS-III\Source\os_var.o
OSStatResetFlag     0x1               uCOS-III\Source\os_var.o
OSMemQty            0x2               uCOS-III\Source\os_var.o
OSMutexQty          0x2               uCOS-III\Source\os_var.o
TS_State            0x8               BSP\bsp_ioe.o
OSStatTaskTCB       0xc4              uCOS-III\Source\os_var.o
OSPrioTbl           0x4               uCOS-III\Source\os_prio.o
OSTmrDbgListPtr     0x4               uCOS-III\Source\os_var.o
OSTickTaskTimeMax   0x4               uCOS-III\Source\os_var.o
OSTmrUpdateCnt      0x4               uCOS-III\Source\os_var.o
OSSchedRoundRobinEn
                    0x1               uCOS-III\Source\os_var.o
OSMutexDbgListPtr   0x4               uCOS-III\Source\os_var.o
OSTmrUpdateCtr      0x4               uCOS-III\Source\os_var.o
OSCfg_IdleTaskStk   0x200             uCOS-III\Source\os_cfg_app.o
CPU_Name            0x10              uC-CPU\cpu_core.o

Discarded input sections

 .text          0x00000000        0x0 c:/program files (x86)/atollic/truestudio for arm pro 3.2.0/armtools/bin/../lib/gcc/arm-atollic-eabi/4.6.2/thumb/armv7-m/crti.o
 .data          0x00000000        0x0 c:/program files (x86)/atollic/truestudio for arm pro 3.2.0/armtools/bin/../lib/gcc/arm-atollic-eabi/4.6.2/thumb/armv7-m/crti.o
 .bss           0x00000000        0x0 c:/program files (x86)/atollic/truestudio for arm pro 3.2.0/armtools/bin/../lib/gcc/arm-atollic-eabi/4.6.2/thumb/armv7-m/crti.o
 .data          0x00000000        0x4 c:/program files (x86)/atollic/truestudio for arm pro 3.2.0/armtools/bin/../lib/gcc/arm-atollic-eabi/4.6.2/thumb/armv7-m/crtbegin.o
 .text          0x00000000        0x0 uCOS-III\Source\os_var.o
 .data          0x00000000        0x0 uCOS-III\Source\os_var.o
 .bss           0x00000000        0x0 uCOS-III\Source\os_var.o
 .text          0x00000000        0x0 uCOS-III\Source\os_tmr.o
 .data          0x00000000        0x0 uCOS-III\Source\os_tmr.o
 .bss           0x00000000        0x0 uCOS-III\Source\os_tmr.o
 .text.OSTmrCreate
                0x00000000      0x110 uCOS-III\Source\os_tmr.o
 .text.OSTmrRemainGet
                0x00000000      0x14c uCOS-III\Source\os_tmr.o
 .text.OSTmrStart
                0x00000000      0x114 uCOS-III\Source\os_tmr.o
 .text.OSTmrStateGet
                0x00000000       0xa0 uCOS-III\Source\os_tmr.o
 .text.OSTmrStop
                0x00000000      0x170 uCOS-III\Source\os_tmr.o
 .text.OS_TmrClr
                0x00000000       0x7c uCOS-III\Source\os_tmr.o
 .text.OS_TmrDbgListAdd
                0x00000000       0x5c uCOS-III\Source\os_tmr.o
 .text.OS_TmrDbgListRemove
                0x00000000       0x7c uCOS-III\Source\os_tmr.o
 .text          0x00000000        0x0 uCOS-III\Source\os_time.o
 .data          0x00000000        0x0 uCOS-III\Source\os_time.o
 .bss           0x00000000        0x0 uCOS-III\Source\os_time.o
 .text.OSTimeGet
                0x00000000       0x3c uCOS-III\Source\os_time.o
 .text.OSTimeSet
                0x00000000       0x3c uCOS-III\Source\os_time.o
 .text          0x00000000        0x0 uCOS-III\Source\os_tick.o
 .data          0x00000000        0x0 uCOS-III\Source\os_tick.o
 .bss           0x00000000        0x0 uCOS-III\Source\os_tick.o
 .text          0x00000000        0x0 uCOS-III\Source\os_task.o
 .data          0x00000000        0x0 uCOS-III\Source\os_task.o
 .bss           0x00000000        0x0 uCOS-III\Source\os_task.o
 .text.OSTaskChangePrio
                0x00000000      0x140 uCOS-III\Source\os_task.o
 .text.OSTaskQFlush
                0x00000000       0x80 uCOS-III\Source\os_task.o
 .text.OSTaskQPend
                0x00000000      0x270 uCOS-III\Source\os_task.o
 .text.OSTaskQPost
                0x00000000       0x5c uCOS-III\Source\os_task.o
 .text.OSTaskRegGet
                0x00000000       0x70 uCOS-III\Source\os_task.o
 .text.OSTaskRegGetID
                0x00000000       0x78 uCOS-III\Source\os_task.o
 .text.OSTaskRegSet
                0x00000000       0x68 uCOS-III\Source\os_task.o
 .text.OSTaskResume
                0x00000000       0x6c uCOS-III\Source\os_task.o
 .text.OSTaskSemPendAbort
                0x00000000       0xe8 uCOS-III\Source\os_task.o
 .text.OSTaskSemSet
                0x00000000       0x70 uCOS-III\Source\os_task.o
 .text.OSTaskSuspend
                0x00000000       0x4c uCOS-III\Source\os_task.o
 .text.OSTaskTimeQuantaSet
                0x00000000       0x8c uCOS-III\Source\os_task.o
 .text.OS_TaskDbgListRemove
                0x00000000       0x90 uCOS-III\Source\os_task.o
 .text.OS_TaskQPost
                0x00000000       0xe8 uCOS-III\Source\os_task.o
 .text.OS_TaskResume
                0x00000000      0x13c uCOS-III\Source\os_task.o
 .text.OS_TaskSuspend
                0x00000000      0x13c uCOS-III\Source\os_task.o
 .text          0x00000000        0x0 uCOS-III\Source\os_stat.o
 .data          0x00000000        0x0 uCOS-III\Source\os_stat.o
 .bss           0x00000000        0x0 uCOS-III\Source\os_stat.o
 .text.OSStatTaskCPUUsageInit
                0x00000000      0x144 uCOS-III\Source\os_stat.o
 .text          0x00000000        0x0 uCOS-III\Source\os_sem.o
 .data          0x00000000        0x0 uCOS-III\Source\os_sem.o
 .bss           0x00000000        0x0 uCOS-III\Source\os_sem.o
 .text.OSSemPendAbort
                0x00000000      0x124 uCOS-III\Source\os_sem.o
 .text.OSSemSet
                0x00000000       0xa4 uCOS-III\Source\os_sem.o
 .text.OS_SemClr
                0x00000000       0x44 uCOS-III\Source\os_sem.o
 .text.OS_SemDbgListRemove
                0x00000000       0x7c uCOS-III\Source\os_sem.o
 .text          0x00000000        0x0 uCOS-III\Source\os_q.o
 .data          0x00000000        0x0 uCOS-III\Source\os_q.o
 .bss           0x00000000        0x0 uCOS-III\Source\os_q.o
 .text.OSQCreate
                0x00000000       0xbc uCOS-III\Source\os_q.o
 .text.OSQPend  0x00000000      0x248 uCOS-III\Source\os_q.o
 .text.OSQPendAbort
                0x00000000      0x124 uCOS-III\Source\os_q.o
 .text.OSQPost  0x00000000       0xac uCOS-III\Source\os_q.o
 .rodata        0x00000000        0x8 uCOS-III\Source\os_q.o
 .text.OS_QClr  0x00000000       0x50 uCOS-III\Source\os_q.o
 .text.OS_QDbgListAdd
                0x00000000       0x68 uCOS-III\Source\os_q.o
 .text.OS_QDbgListRemove
                0x00000000       0x7c uCOS-III\Source\os_q.o
 .text.OS_QPost
                0x00000000       0xd8 uCOS-III\Source\os_q.o
 .text          0x00000000        0x0 uCOS-III\Source\os_prio.o
 .data          0x00000000        0x0 uCOS-III\Source\os_prio.o
 .bss           0x00000000        0x0 uCOS-III\Source\os_prio.o
 .text          0x00000000        0x0 uCOS-III\Source\os_pend_multi.o
 .data          0x00000000        0x0 uCOS-III\Source\os_pend_multi.o
 .bss           0x00000000        0x0 uCOS-III\Source\os_pend_multi.o
 .text.OSPendMulti
                0x00000000      0x1a4 uCOS-III\Source\os_pend_multi.o
 .text.OS_PendMultiGetRdy
                0x00000000      0x110 uCOS-III\Source\os_pend_multi.o
 .text.OS_PendMultiValidate
                0x00000000       0x98 uCOS-III\Source\os_pend_multi.o
 .text.OS_PendMultiWait
                0x00000000       0xe4 uCOS-III\Source\os_pend_multi.o
 .text          0x00000000        0x0 uCOS-III\Source\os_mutex.o
 .data          0x00000000        0x0 uCOS-III\Source\os_mutex.o
 .bss           0x00000000        0x0 uCOS-III\Source\os_mutex.o
 .text.OSMutexCreate
                0x00000000       0xbc uCOS-III\Source\os_mutex.o
 .text.OSMutexPend
                0x00000000      0x2e4 uCOS-III\Source\os_mutex.o
 .text.OSMutexPost
                0x00000000      0x1d8 uCOS-III\Source\os_mutex.o
 .rodata        0x00000000        0xc uCOS-III\Source\os_mutex.o
 .text.OS_MutexClr
                0x00000000       0x58 uCOS-III\Source\os_mutex.o
 .text.OS_MutexDbgListAdd
                0x00000000       0x68 uCOS-III\Source\os_mutex.o
 .text.OS_MutexDbgListRemove
                0x00000000       0x7c uCOS-III\Source\os_mutex.o
 .text          0x00000000        0x0 uCOS-III\Source\os_msg.o
 .data          0x00000000        0x0 uCOS-III\Source\os_msg.o
 .bss           0x00000000        0x0 uCOS-III\Source\os_msg.o
 .text.OS_MsgQFreeAll
                0x00000000       0xa0 uCOS-III\Source\os_msg.o
 .text.OS_MsgQGet
                0x00000000       0xf0 uCOS-III\Source\os_msg.o
 .text.OS_MsgQPut
                0x00000000      0x158 uCOS-III\Source\os_msg.o
 .text          0x00000000        0x0 uCOS-III\Source\os_mem.o
 .data          0x00000000        0x0 uCOS-III\Source\os_mem.o
 .bss           0x00000000        0x0 uCOS-III\Source\os_mem.o
 .text.OSMemCreate
                0x00000000      0x140 uCOS-III\Source\os_mem.o
 .text.OSMemGet
                0x00000000       0x80 uCOS-III\Source\os_mem.o
 .text.OSMemPut
                0x00000000       0x88 uCOS-III\Source\os_mem.o
 .text.OS_MemDbgListAdd
                0x00000000       0x5c uCOS-III\Source\os_mem.o
 .text          0x00000000        0x0 uCOS-III\Source\os_int.o
 .data          0x00000000        0x0 uCOS-III\Source\os_int.o
 .bss           0x00000000        0x0 uCOS-III\Source\os_int.o
 .text          0x00000000        0x0 uCOS-III\Source\os_flag.o
 .data          0x00000000        0x0 uCOS-III\Source\os_flag.o
 .bss           0x00000000        0x0 uCOS-III\Source\os_flag.o
 .text.OSFlagCreate
                0x00000000       0xa8 uCOS-III\Source\os_flag.o
 .text.OSFlagPend
                0x00000000      0x404 uCOS-III\Source\os_flag.o
 .text.OSFlagPendGetFlagsRdy
                0x00000000       0x5c uCOS-III\Source\os_flag.o
 .text.OSFlagPost
                0x00000000       0x90 uCOS-III\Source\os_flag.o
 .text.OS_FlagBlock
                0x00000000       0x58 uCOS-III\Source\os_flag.o
 .rodata        0x00000000        0xc uCOS-III\Source\os_flag.o
 .text.OS_FlagClr
                0x00000000       0x40 uCOS-III\Source\os_flag.o
 .text.OS_FlagDbgListAdd
                0x00000000       0x68 uCOS-III\Source\os_flag.o
 .text.OS_FlagDbgListRemove
                0x00000000       0x7c uCOS-III\Source\os_flag.o
 .text.OS_FlagPost
                0x00000000      0x180 uCOS-III\Source\os_flag.o
 .text.OS_FlagTaskRdy
                0x00000000       0x8c uCOS-III\Source\os_flag.o
 .text          0x00000000        0x0 uCOS-III\Source\os_dbg.o
 .data          0x00000000        0x0 uCOS-III\Source\os_dbg.o
 .bss           0x00000000        0x0 uCOS-III\Source\os_dbg.o
 .rodata.OSDbg_IntQ
                0x00000000        0x2 uCOS-III\Source\os_dbg.o
 .rodata.OSDbg_TLS_TblSize
                0x00000000        0x2 uCOS-III\Source\os_dbg.o
 .text          0x00000000        0x0 uCOS-III\Source\os_core.o
 .data          0x00000000        0x0 uCOS-III\Source\os_core.o
 .bss           0x00000000        0x0 uCOS-III\Source\os_core.o
 .text.OSSchedRoundRobinCfg
                0x00000000       0x90 uCOS-III\Source\os_core.o
 .text.OSSchedRoundRobinYield
                0x00000000       0xe4 uCOS-III\Source\os_core.o
 .text.OSVersion
                0x00000000       0x20 uCOS-III\Source\os_core.o
 .text.OS_PendAbort
                0x00000000      0x104 uCOS-III\Source\os_core.o
 .text.OS_PendAbort1
                0x00000000       0x54 uCOS-III\Source\os_core.o
 .text.OS_PendListChangePrio
                0x00000000       0x68 uCOS-III\Source\os_core.o
 .text.OS_PendListInsertHead
                0x00000000       0x58 uCOS-III\Source\os_core.o
 .text.OS_PendObjDel
                0x00000000       0xf8 uCOS-III\Source\os_core.o
 .text.OS_PendObjDel1
                0x00000000       0x54 uCOS-III\Source\os_core.o
 .text          0x00000000        0x0 uCOS-III\Source\os_cfg_app.o
 .data          0x00000000        0x0 uCOS-III\Source\os_cfg_app.o
 .bss           0x00000000        0x0 uCOS-III\Source\os_cfg_app.o
 .rodata.OSCfg_IdleTaskStkSizeRAM
                0x00000000        0x4 uCOS-III\Source\os_cfg_app.o
 .rodata.OSCfg_IntQBasePtr
                0x00000000        0x4 uCOS-III\Source\os_cfg_app.o
 .rodata.OSCfg_IntQSize
                0x00000000        0x2 uCOS-III\Source\os_cfg_app.o
 .rodata.OSCfg_IntQSizeRAM
                0x00000000        0x4 uCOS-III\Source\os_cfg_app.o
 .rodata.OSCfg_IntQTaskStkBasePtr
                0x00000000        0x4 uCOS-III\Source\os_cfg_app.o
 .rodata.OSCfg_IntQTaskStkLimit
                0x00000000        0x4 uCOS-III\Source\os_cfg_app.o
 .rodata.OSCfg_IntQTaskStkSize
                0x00000000        0x4 uCOS-III\Source\os_cfg_app.o
 .rodata.OSCfg_IntQTaskStkSizeRAM
                0x00000000        0x4 uCOS-III\Source\os_cfg_app.o
 .rodata.OSCfg_ISRStkSizeRAM
                0x00000000        0x4 uCOS-III\Source\os_cfg_app.o
 .rodata.OSCfg_MsgPoolSizeRAM
                0x00000000        0x4 uCOS-III\Source\os_cfg_app.o
 .rodata.OSCfg_StatTaskStkSizeRAM
                0x00000000        0x4 uCOS-III\Source\os_cfg_app.o
 .rodata.OSCfg_TickTaskStkSizeRAM
                0x00000000        0x4 uCOS-III\Source\os_cfg_app.o
 .rodata.OSCfg_TickWheelSizeRAM
                0x00000000        0x4 uCOS-III\Source\os_cfg_app.o
 .rodata.OSCfg_TmrTaskStkSizeRAM
                0x00000000        0x4 uCOS-III\Source\os_cfg_app.o
 .rodata.OSCfg_TmrWheelSizeRAM
                0x00000000        0x4 uCOS-III\Source\os_cfg_app.o
 .rodata.OSCfg_DataSizeRAM
                0x00000000        0x4 uCOS-III\Source\os_cfg_app.o
 .text          0x00000000        0x0 uCOS-III\Ports\ARM-Cortex-M3\Generic\GNU\os_cpu_c.o
 .data          0x00000000        0x0 uCOS-III\Ports\ARM-Cortex-M3\Generic\GNU\os_cpu_c.o
 .bss           0x00000000        0x0 uCOS-III\Ports\ARM-Cortex-M3\Generic\GNU\os_cpu_c.o
 .text.OSTaskDelHook
                0x00000000       0x2c uCOS-III\Ports\ARM-Cortex-M3\Generic\GNU\os_cpu_c.o
 .data          0x00000000        0x0 uCOS-III\Ports\ARM-Cortex-M3\Generic\GNU\os_cpu_a.o
 .bss           0x00000000        0x0 uCOS-III\Ports\ARM-Cortex-M3\Generic\GNU\os_cpu_a.o
 .text          0x00000000        0x0 uC-LIB\lib_str.o
 .data          0x00000000        0x0 uC-LIB\lib_str.o
 .bss           0x00000000        0x0 uC-LIB\lib_str.o
 .rodata.Str_MultOvfThTbl_Int32U
                0x00000000       0x94 uC-LIB\lib_str.o
 .text.Str_Len  0x00000000       0x24 uC-LIB\lib_str.o
 .text.Str_Len_N
                0x00000000       0x4c uC-LIB\lib_str.o
 .text.Str_Copy
                0x00000000       0x28 uC-LIB\lib_str.o
 .text.Str_Copy_N
                0x00000000       0xa0 uC-LIB\lib_str.o
 .text.Str_Cat  0x00000000       0x28 uC-LIB\lib_str.o
 .text.Str_Cat_N
                0x00000000       0xc8 uC-LIB\lib_str.o
 .text.Str_Cmp  0x00000000       0x28 uC-LIB\lib_str.o
 .text.Str_Cmp_N
                0x00000000      0x138 uC-LIB\lib_str.o
 .text.Str_CmpIgnoreCase
                0x00000000       0x28 uC-LIB\lib_str.o
 .text.Str_CmpIgnoreCase_N
                0x00000000      0x194 uC-LIB\lib_str.o
 .text.Str_Char
                0x00000000       0x2c uC-LIB\lib_str.o
 .text.Str_Char_N
                0x00000000       0x9c uC-LIB\lib_str.o
 .text.Str_Char_Last
                0x00000000       0x2c uC-LIB\lib_str.o
 .text.Str_Char_Last_N
                0x00000000       0x88 uC-LIB\lib_str.o
 .text.Str_Char_Replace
                0x00000000       0x34 uC-LIB\lib_str.o
 .text.Str_Char_Replace_N
                0x00000000       0x78 uC-LIB\lib_str.o
 .text.Str_Str  0x00000000       0x28 uC-LIB\lib_str.o
 .text.Str_Str_N
                0x00000000      0x10c uC-LIB\lib_str.o
 .text.Str_FmtNbr_Int32U
                0x00000000       0x40 uC-LIB\lib_str.o
 .text.Str_FmtNbr_Int32S
                0x00000000       0x60 uC-LIB\lib_str.o
 .text.Str_ParseNbr_Int32U
                0x00000000       0x34 uC-LIB\lib_str.o
 .text.Str_ParseNbr_Int32S
                0x00000000       0x60 uC-LIB\lib_str.o
 .text.Str_FmtNbr_Int32
                0x00000000      0x2c8 uC-LIB\lib_str.o
 .text.Str_ParseNbr_Int32
                0x00000000      0x2e4 uC-LIB\lib_str.o
 .text          0x00000000        0x0 uC-LIB\lib_mem.o
 .data          0x00000000        0x0 uC-LIB\lib_mem.o
 .bss           0x00000000        0x0 uC-LIB\lib_mem.o
 .text.Mem_Move
                0x00000000      0x164 uC-LIB\lib_mem.o
 .text.Mem_Cmp  0x00000000      0x15c uC-LIB\lib_mem.o
 .text.Mem_HeapAlloc
                0x00000000      0x118 uC-LIB\lib_mem.o
 .text.Mem_HeapGetSizeRem
                0x00000000       0x2c uC-LIB\lib_mem.o
 .text.Mem_SegGetSizeRem
                0x00000000      0x10c uC-LIB\lib_mem.o
 .text.Mem_PoolClr
                0x00000000       0xc8 uC-LIB\lib_mem.o
 .text.Mem_PoolCreate
                0x00000000      0x4d8 uC-LIB\lib_mem.o
 .text.Mem_PoolBlkGetNbrAvail
                0x00000000       0x7c uC-LIB\lib_mem.o
 .text.Mem_PoolBlkGet
                0x00000000      0x104 uC-LIB\lib_mem.o
 .text.Mem_PoolBlkGetUsedAtIx
                0x00000000       0xf0 uC-LIB\lib_mem.o
 .text.Mem_PoolBlkFree
                0x00000000      0x18c uC-LIB\lib_mem.o
 .text.Mem_PoolBlkIxGet
                0x00000000      0x17c uC-LIB\lib_mem.o
 .text.Mem_PoolBlkIsValidAddr
                0x00000000       0xd0 uC-LIB\lib_mem.o
 .text.Mem_SegCalcTotSize
                0x00000000      0x130 uC-LIB\lib_mem.o
 .text.Mem_SegAlloc
                0x00000000       0xa8 uC-LIB\lib_mem.o
 .text          0x00000000        0x0 uC-LIB\lib_math.o
 .data          0x00000000        0x0 uC-LIB\lib_math.o
 .bss           0x00000000        0x0 uC-LIB\lib_math.o
 .text.Math_Init
                0x00000000       0x10 uC-LIB\lib_math.o
 .text.Math_RandSetSeed
                0x00000000       0x30 uC-LIB\lib_math.o
 .text.Math_Rand
                0x00000000       0x48 uC-LIB\lib_math.o
 .text.Math_RandSeed
                0x00000000       0x34 uC-LIB\lib_math.o
 COMMON         0x00000000        0x4 uC-LIB\lib_math.o
 .text          0x00000000        0x0 uC-LIB\lib_ascii.o
 .data          0x00000000        0x0 uC-LIB\lib_ascii.o
 .bss           0x00000000        0x0 uC-LIB\lib_ascii.o
 .text.ASCII_IsAlpha
                0x00000000       0x3c uC-LIB\lib_ascii.o
 .text.ASCII_IsAlphaNum
                0x00000000       0x48 uC-LIB\lib_ascii.o
 .text.ASCII_IsLower
                0x00000000       0x30 uC-LIB\lib_ascii.o
 .text.ASCII_IsUpper
                0x00000000       0x30 uC-LIB\lib_ascii.o
 .text.ASCII_IsDig
                0x00000000       0x30 uC-LIB\lib_ascii.o
 .text.ASCII_IsDigOct
                0x00000000       0x30 uC-LIB\lib_ascii.o
 .text.ASCII_IsDigHex
                0x00000000       0x48 uC-LIB\lib_ascii.o
 .text.ASCII_IsBlank
                0x00000000       0x30 uC-LIB\lib_ascii.o
 .text.ASCII_IsSpace
                0x00000000       0x48 uC-LIB\lib_ascii.o
 .text.ASCII_IsPrint
                0x00000000       0x30 uC-LIB\lib_ascii.o
 .text.ASCII_IsGraph
                0x00000000       0x30 uC-LIB\lib_ascii.o
 .text.ASCII_IsPunct
                0x00000000       0x78 uC-LIB\lib_ascii.o
 .text.ASCII_IsCtrl
                0x00000000       0x38 uC-LIB\lib_ascii.o
 .text.ASCII_ToLower
                0x00000000       0x34 uC-LIB\lib_ascii.o
 .text.ASCII_ToUpper
                0x00000000       0x34 uC-LIB\lib_ascii.o
 .text.ASCII_Cmp
                0x00000000       0x48 uC-LIB\lib_ascii.o
 .text          0x00000000        0x0 uC-CPU\cpu_core.o
 .data          0x00000000        0x0 uC-CPU\cpu_core.o
 .bss           0x00000000        0x0 uC-CPU\cpu_core.o
 .rodata.CPU_CntLeadZerosTbl
                0x00000000      0x100 uC-CPU\cpu_core.o
 .text.CPU_SW_Exception
                0x00000000        0x8 uC-CPU\cpu_core.o
 .text.CPU_NameGet
                0x00000000       0x5c uC-CPU\cpu_core.o
 .text.CPU_NameSet
                0x00000000       0x78 uC-CPU\cpu_core.o
 .text.CPU_TS_Get32
                0x00000000       0x1c uC-CPU\cpu_core.o
 .text.CPU_TS_Update
                0x00000000        0xc uC-CPU\cpu_core.o
 .text.CPU_TS_TmrFreqGet
                0x00000000       0x40 uC-CPU\cpu_core.o
 .text.CPU_CntLeadZeros08
                0x00000000       0x2c uC-CPU\cpu_core.o
 .text.CPU_CntLeadZeros16
                0x00000000       0x2c uC-CPU\cpu_core.o
 .text.CPU_CntLeadZeros32
                0x00000000       0x20 uC-CPU\cpu_core.o
 .text.CPU_CntLeadZeros64
                0x00000000      0x1ec uC-CPU\cpu_core.o
 .text.CPU_CntTrailZeros08
                0x00000000       0x30 uC-CPU\cpu_core.o
 .text.CPU_CntTrailZeros16
                0x00000000       0x30 uC-CPU\cpu_core.o
 .text.CPU_CntTrailZeros32
                0x00000000       0x2c uC-CPU\cpu_core.o
 .text.CPU_CntTrailZeros64
                0x00000000       0x54 uC-CPU\cpu_core.o
 .text          0x00000000        0x0 uC-CPU\ARM-Cortex-M3\GNU\cpu_c.o
 .data          0x00000000        0x0 uC-CPU\ARM-Cortex-M3\GNU\cpu_c.o
 .bss           0x00000000        0x0 uC-CPU\ARM-Cortex-M3\GNU\cpu_c.o
 .text.CPU_BitBandClr
                0x00000000       0x88 uC-CPU\ARM-Cortex-M3\GNU\cpu_c.o
 .text.CPU_BitBandSet
                0x00000000       0x88 uC-CPU\ARM-Cortex-M3\GNU\cpu_c.o
 .text.CPU_IntSrcDis
                0x00000000      0x198 uC-CPU\ARM-Cortex-M3\GNU\cpu_c.o
 .text.CPU_IntSrcPendClr
                0x00000000       0xd0 uC-CPU\ARM-Cortex-M3\GNU\cpu_c.o
 .text.CPU_IntSrcPrioSet
                0x00000000      0x2e0 uC-CPU\ARM-Cortex-M3\GNU\cpu_c.o
 .text.CPU_IntSrcPrioGet
                0x00000000      0x24c uC-CPU\ARM-Cortex-M3\GNU\cpu_c.o
 .data          0x00000000        0x0 uC-CPU\ARM-Cortex-M3\GNU\cpu_a.o
 .bss           0x00000000        0x0 uC-CPU\ARM-Cortex-M3\GNU\cpu_a.o
 .text          0x00000000       0x14 BSP\cstartup.o
 .data          0x00000000        0x0 BSP\cstartup.o
 .bss           0x00000000        0x0 BSP\cstartup.o
 .text.App_Reserved_ISR
                0x00000000        0x2 BSP\cstartup.o
 .text          0x00000000        0x0 BSP\bsp_ser.o
 .data          0x00000000        0x0 BSP\bsp_ser.o
 .bss           0x00000000        0x0 BSP\bsp_ser.o
 .text.BSP_Ser_RdByte
                0x00000000       0x38 BSP\bsp_ser.o
 .text.BSP_Ser_RdByteUnlocked
                0x00000000       0x58 BSP\bsp_ser.o
 .text.BSP_Ser_RdStr
                0x00000000       0xf4 BSP\bsp_ser.o
 .text.BSP_Ser_WrByte
                0x00000000       0x38 BSP\bsp_ser.o
 .text          0x00000000        0x0 BSP\bsp_lcd.o
 .data          0x00000000        0x0 BSP\bsp_lcd.o
 .bss           0x00000000        0x0 BSP\bsp_lcd.o
 .text.BSP_LCD_Init
                0x00000000      0x588 BSP\bsp_lcd.o
 .text.BSP_LCD_WriteReg
                0x00000000       0x2c BSP\bsp_lcd.o
 .text.BSP_LCD_ReadReg
                0x00000000       0x2c BSP\bsp_lcd.o
 .text.BSP_LCD_GPIO_Cfg
                0x00000000      0x21c BSP\bsp_lcd.o
 .text.BSP_LCD_FSMC_Init
                0x00000000       0xb0 BSP\bsp_lcd.o
 .text          0x00000000        0x0 BSP\bsp_ioe.o
 .data          0x00000000        0x0 BSP\bsp_ioe.o
 .bss           0x00000000        0x0 BSP\bsp_ioe.o
 .data.IOE_TimeOut
                0x00000000        0x4 BSP\bsp_ioe.o
 .text.BSP_IOE_Init
                0x00000000      0x11c BSP\bsp_ioe.o
 .text.BSP_IOE_GPIO_Cfg
                0x00000000       0xe4 BSP\bsp_ioe.o
 .text.BSP_IOE_I2C_Cfg
                0x00000000       0x48 BSP\bsp_ioe.o
 .text.BSP_IOE_Reset
                0x00000000       0x3c BSP\bsp_ioe.o
 .text.BSP_IOE_FnctCmd
                0x00000000       0x5c BSP\bsp_ioe.o
 .text.BSP_IOE_IOPin_Cfg
                0x00000000       0x5c BSP\bsp_ioe.o
 .text.BSP_IOE_IOAF_Cfg
                0x00000000       0x5c BSP\bsp_ioe.o
 .text.BSP_IOE_IOEdge_Cfg
                0x00000000       0xa0 BSP\bsp_ioe.o
 .text.BSP_IOE_WriteIOPin
                0x00000000       0x70 BSP\bsp_ioe.o
 .text.BSP_IOE_TS_Cfg
                0x00000000      0x178 BSP\bsp_ioe.o
 .text.BSP_IOE_TempSens_Cfg
                0x00000000       0x58 BSP\bsp_ioe.o
 .text.BSP_I2C_ReadDevReg
                0x00000000      0x320 BSP\bsp_ioe.o
 .text.BSP_I2C_WriteDevReg
                0x00000000      0x26c BSP\bsp_ioe.o
 .text.BSP_I2C_ReadDataBuffer
                0x00000000      0x334 BSP\bsp_ioe.o
 .text.BSP_IOE_TS_GetState
                0x00000000      0x138 BSP\bsp_ioe.o
 .text.BSP_IOE_TS_Read_X
                0x00000000       0x60 BSP\bsp_ioe.o
 .text.BSP_IOE_TS_Read_Y
                0x00000000       0x74 BSP\bsp_ioe.o
 .text.BSP_IOE_TS_Read_Z
                0x00000000       0x30 BSP\bsp_ioe.o
 .text.BSP_IOE_DMA_Config
                0x00000000       0xd4 BSP\bsp_ioe.o
 .bss._x.9561   0x00000000        0x2 BSP\bsp_ioe.o
 .bss._y.9562   0x00000000        0x2 BSP\bsp_ioe.o
 COMMON         0x00000000        0x8 BSP\bsp_ioe.o
 .text          0x00000000        0x0 BSP\bsp_int.o
 .data          0x00000000        0x0 BSP\bsp_int.o
 .bss           0x00000000        0x0 BSP\bsp_int.o
 .text.BSP_IntClr
                0x00000000       0x14 BSP\bsp_int.o
 .text.BSP_IntDis
                0x00000000       0x28 BSP\bsp_int.o
 .text.BSP_IntPrioSet
                0x00000000       0x44 BSP\bsp_int.o
 .text.BSP_IntInit
                0x00000000       0x34 BSP\bsp_int.o
 .text.BSP_IntHandlerDummy
                0x00000000        0xc BSP\bsp_int.o
 .text          0x00000000        0x0 BSP\bsp.o
 .data          0x00000000        0x0 BSP\bsp.o
 .bss           0x00000000        0x0 BSP\bsp.o
 .text.BSP_RNG_Read
                0x00000000       0xac BSP\bsp.o
 .text.BSP_PSRAM_Init
                0x00000000      0x4e4 BSP\bsp.o
 .text.BSP_SRAM_Init
                0x00000000      0x4a0 BSP\bsp.o
 .text.BSP_LED_On
                0x00000000       0x9c BSP\bsp.o
 .text.BSP_LED_Off
                0x00000000       0x9c BSP\bsp.o
 .text          0x00000000        0x0 BSP\STM32F2xx\src\stm32f2xx_wwdg.o
 .data          0x00000000        0x0 BSP\STM32F2xx\src\stm32f2xx_wwdg.o
 .bss           0x00000000        0x0 BSP\STM32F2xx\src\stm32f2xx_wwdg.o
 .text.WWDG_DeInit
                0x00000000       0x20 BSP\STM32F2xx\src\stm32f2xx_wwdg.o
 .text.WWDG_SetPrescaler
                0x00000000       0x3c BSP\STM32F2xx\src\stm32f2xx_wwdg.o
 .text.WWDG_SetWindowValue
                0x00000000       0x44 BSP\STM32F2xx\src\stm32f2xx_wwdg.o
 .text.WWDG_EnableIT
                0x00000000       0x18 BSP\STM32F2xx\src\stm32f2xx_wwdg.o
 .text.WWDG_SetCounter
                0x00000000       0x24 BSP\STM32F2xx\src\stm32f2xx_wwdg.o
 .text.WWDG_Enable
                0x00000000       0x28 BSP\STM32F2xx\src\stm32f2xx_wwdg.o
 .text.WWDG_GetFlagStatus
                0x00000000       0x38 BSP\STM32F2xx\src\stm32f2xx_wwdg.o
 .text.WWDG_ClearFlag
                0x00000000       0x18 BSP\STM32F2xx\src\stm32f2xx_wwdg.o
 .text          0x00000000        0x0 BSP\STM32F2xx\src\stm32f2xx_usart.o
 .data          0x00000000        0x0 BSP\STM32F2xx\src\stm32f2xx_usart.o
 .bss           0x00000000        0x0 BSP\STM32F2xx\src\stm32f2xx_usart.o
 .text.USART_DeInit
                0x00000000      0x100 BSP\STM32F2xx\src\stm32f2xx_usart.o
 .text.USART_StructInit
                0x00000000       0x44 BSP\STM32F2xx\src\stm32f2xx_usart.o
 .text.USART_ClockStructInit
                0x00000000       0x34 BSP\STM32F2xx\src\stm32f2xx_usart.o
 .text.USART_SetPrescaler
                0x00000000       0x38 BSP\STM32F2xx\src\stm32f2xx_usart.o
 .text.USART_OverSampling8Cmd
                0x00000000       0x48 BSP\STM32F2xx\src\stm32f2xx_usart.o
 .text.USART_OneBitMethodCmd
                0x00000000       0x40 BSP\STM32F2xx\src\stm32f2xx_usart.o
 .text.USART_SetAddress
                0x00000000       0x38 BSP\STM32F2xx\src\stm32f2xx_usart.o
 .text.USART_ReceiverWakeUpCmd
                0x00000000       0x40 BSP\STM32F2xx\src\stm32f2xx_usart.o
 .text.USART_WakeUpConfig
                0x00000000       0x38 BSP\STM32F2xx\src\stm32f2xx_usart.o
 .text.USART_LINBreakDetectLengthConfig
                0x00000000       0x38 BSP\STM32F2xx\src\stm32f2xx_usart.o
 .text.USART_LINCmd
                0x00000000       0x40 BSP\STM32F2xx\src\stm32f2xx_usart.o
 .text.USART_SendBreak
                0x00000000       0x24 BSP\STM32F2xx\src\stm32f2xx_usart.o
 .text.USART_HalfDuplexCmd
                0x00000000       0x40 BSP\STM32F2xx\src\stm32f2xx_usart.o
 .text.USART_SetGuardTime
                0x00000000       0x3c BSP\STM32F2xx\src\stm32f2xx_usart.o
 .text.USART_SmartCardCmd
                0x00000000       0x40 BSP\STM32F2xx\src\stm32f2xx_usart.o
 .text.USART_SmartCardNACKCmd
                0x00000000       0x40 BSP\STM32F2xx\src\stm32f2xx_usart.o
 .text.USART_IrDAConfig
                0x00000000       0x38 BSP\STM32F2xx\src\stm32f2xx_usart.o
 .text.USART_IrDACmd
                0x00000000       0x40 BSP\STM32F2xx\src\stm32f2xx_usart.o
 .text.USART_DMACmd
                0x00000000       0x48 BSP\STM32F2xx\src\stm32f2xx_usart.o
 .text.USART_GetFlagStatus
                0x00000000       0x40 BSP\STM32F2xx\src\stm32f2xx_usart.o
 .text.USART_ClearFlag
                0x00000000       0x24 BSP\STM32F2xx\src\stm32f2xx_usart.o
 .text.USART_GetITStatus
                0x00000000       0xc4 BSP\STM32F2xx\src\stm32f2xx_usart.o
 .text          0x00000000        0x0 BSP\STM32F2xx\src\stm32f2xx_tim.o
 .data          0x00000000        0x0 BSP\STM32F2xx\src\stm32f2xx_tim.o
 .bss           0x00000000        0x0 BSP\STM32F2xx\src\stm32f2xx_tim.o
 .text.TIM_DeInit
                0x00000000      0x238 BSP\STM32F2xx\src\stm32f2xx_tim.o
 .text.TIM_TimeBaseInit
                0x00000000       0xf4 BSP\STM32F2xx\src\stm32f2xx_tim.o
 .text.TIM_TimeBaseStructInit
                0x00000000       0x3c BSP\STM32F2xx\src\stm32f2xx_tim.o
 .text.TIM_PrescalerConfig
                0x00000000       0x28 BSP\STM32F2xx\src\stm32f2xx_tim.o
 .text.TIM_CounterModeConfig
                0x00000000       0x38 BSP\STM32F2xx\src\stm32f2xx_tim.o
 .text.TIM_SetCounter
                0x00000000       0x1c BSP\STM32F2xx\src\stm32f2xx_tim.o
 .text.TIM_SetAutoreload
                0x00000000       0x1c BSP\STM32F2xx\src\stm32f2xx_tim.o
 .text.TIM_GetCounter
                0x00000000       0x18 BSP\STM32F2xx\src\stm32f2xx_tim.o
 .text.TIM_GetPrescaler
                0x00000000       0x1c BSP\STM32F2xx\src\stm32f2xx_tim.o
 .text.TIM_UpdateDisableConfig
                0x00000000       0x40 BSP\STM32F2xx\src\stm32f2xx_tim.o
 .text.TIM_UpdateRequestConfig
                0x00000000       0x40 BSP\STM32F2xx\src\stm32f2xx_tim.o
 .text.TIM_ARRPreloadConfig
                0x00000000       0x40 BSP\STM32F2xx\src\stm32f2xx_tim.o
 .text.TIM_SelectOnePulseMode
                0x00000000       0x38 BSP\STM32F2xx\src\stm32f2xx_tim.o
 .text.TIM_SetClockDivision
                0x00000000       0x38 BSP\STM32F2xx\src\stm32f2xx_tim.o
 .text.TIM_Cmd  0x00000000       0x40 BSP\STM32F2xx\src\stm32f2xx_tim.o
 .text.TIM_OC1Init
                0x00000000       0xfc BSP\STM32F2xx\src\stm32f2xx_tim.o
 .text.TIM_OC2Init
                0x00000000      0x128 BSP\STM32F2xx\src\stm32f2xx_tim.o
 .text.TIM_OC3Init
                0x00000000      0x120 BSP\STM32F2xx\src\stm32f2xx_tim.o
 .text.TIM_OC4Init
                0x00000000       0xe0 BSP\STM32F2xx\src\stm32f2xx_tim.o
 .text.TIM_OCStructInit
                0x00000000       0x54 BSP\STM32F2xx\src\stm32f2xx_tim.o
 .text.TIM_SelectOCxM
                0x00000000       0xc0 BSP\STM32F2xx\src\stm32f2xx_tim.o
 .text.TIM_SetCompare1
                0x00000000       0x1c BSP\STM32F2xx\src\stm32f2xx_tim.o
 .text.TIM_SetCompare2
                0x00000000       0x1c BSP\STM32F2xx\src\stm32f2xx_tim.o
 .text.TIM_SetCompare3
                0x00000000       0x1c BSP\STM32F2xx\src\stm32f2xx_tim.o
 .text.TIM_SetCompare4
                0x00000000       0x1c BSP\STM32F2xx\src\stm32f2xx_tim.o
 .text.TIM_ForcedOC1Config
                0x00000000       0x38 BSP\STM32F2xx\src\stm32f2xx_tim.o
 .text.TIM_ForcedOC2Config
                0x00000000       0x40 BSP\STM32F2xx\src\stm32f2xx_tim.o
 .text.TIM_ForcedOC3Config
                0x00000000       0x38 BSP\STM32F2xx\src\stm32f2xx_tim.o
 .text.TIM_ForcedOC4Config
                0x00000000       0x40 BSP\STM32F2xx\src\stm32f2xx_tim.o
 .text.TIM_OC1PreloadConfig
                0x00000000       0x38 BSP\STM32F2xx\src\stm32f2xx_tim.o
 .text.TIM_OC2PreloadConfig
                0x00000000       0x40 BSP\STM32F2xx\src\stm32f2xx_tim.o
 .text.TIM_OC3PreloadConfig
                0x00000000       0x38 BSP\STM32F2xx\src\stm32f2xx_tim.o
 .text.TIM_OC4PreloadConfig
                0x00000000       0x40 BSP\STM32F2xx\src\stm32f2xx_tim.o
 .text.TIM_OC1FastConfig
                0x00000000       0x38 BSP\STM32F2xx\src\stm32f2xx_tim.o
 .text.TIM_OC2FastConfig
                0x00000000       0x40 BSP\STM32F2xx\src\stm32f2xx_tim.o
 .text.TIM_OC3FastConfig
                0x00000000       0x38 BSP\STM32F2xx\src\stm32f2xx_tim.o
 .text.TIM_OC4FastConfig
                0x00000000       0x40 BSP\STM32F2xx\src\stm32f2xx_tim.o
 .text.TIM_ClearOC1Ref
                0x00000000       0x38 BSP\STM32F2xx\src\stm32f2xx_tim.o
 .text.TIM_ClearOC2Ref
                0x00000000       0x44 BSP\STM32F2xx\src\stm32f2xx_tim.o
 .text.TIM_ClearOC3Ref
                0x00000000       0x38 BSP\STM32F2xx\src\stm32f2xx_tim.o
 .text.TIM_ClearOC4Ref
                0x00000000       0x44 BSP\STM32F2xx\src\stm32f2xx_tim.o
 .text.TIM_OC1PolarityConfig
                0x00000000       0x38 BSP\STM32F2xx\src\stm32f2xx_tim.o
 .text.TIM_OC1NPolarityConfig
                0x00000000       0x38 BSP\STM32F2xx\src\stm32f2xx_tim.o
 .text.TIM_OC2PolarityConfig
                0x00000000       0x40 BSP\STM32F2xx\src\stm32f2xx_tim.o
 .text.TIM_OC2NPolarityConfig
                0x00000000       0x40 BSP\STM32F2xx\src\stm32f2xx_tim.o
 .text.TIM_OC3PolarityConfig
                0x00000000       0x40 BSP\STM32F2xx\src\stm32f2xx_tim.o
 .text.TIM_OC3NPolarityConfig
                0x00000000       0x40 BSP\STM32F2xx\src\stm32f2xx_tim.o
 .text.TIM_OC4PolarityConfig
                0x00000000       0x40 BSP\STM32F2xx\src\stm32f2xx_tim.o
 .text.TIM_CCxCmd
                0x00000000       0x5c BSP\STM32F2xx\src\stm32f2xx_tim.o
 .text.TIM_CCxNCmd
                0x00000000       0x5c BSP\STM32F2xx\src\stm32f2xx_tim.o
 .text.TIM_ICInit
                0x00000000       0xa8 BSP\STM32F2xx\src\stm32f2xx_tim.o
 .text.TIM_ICStructInit
                0x00000000       0x3c BSP\STM32F2xx\src\stm32f2xx_tim.o
 .text.TIM_PWMIConfig
                0x00000000       0xc4 BSP\STM32F2xx\src\stm32f2xx_tim.o
 .text.TIM_GetCapture1
                0x00000000       0x18 BSP\STM32F2xx\src\stm32f2xx_tim.o
 .text.TIM_GetCapture2
                0x00000000       0x18 BSP\STM32F2xx\src\stm32f2xx_tim.o
 .text.TIM_GetCapture3
                0x00000000       0x18 BSP\STM32F2xx\src\stm32f2xx_tim.o
 .text.TIM_GetCapture4
                0x00000000       0x18 BSP\STM32F2xx\src\stm32f2xx_tim.o
 .text.TIM_SetIC1Prescaler
                0x00000000       0x38 BSP\STM32F2xx\src\stm32f2xx_tim.o
 .text.TIM_SetIC2Prescaler
                0x00000000       0x3c BSP\STM32F2xx\src\stm32f2xx_tim.o
 .text.TIM_SetIC3Prescaler
                0x00000000       0x38 BSP\STM32F2xx\src\stm32f2xx_tim.o
 .text.TIM_SetIC4Prescaler
                0x00000000       0x3c BSP\STM32F2xx\src\stm32f2xx_tim.o
 .text.TIM_BDTRConfig
                0x00000000       0x50 BSP\STM32F2xx\src\stm32f2xx_tim.o
 .text.TIM_BDTRStructInit
                0x00000000       0x4c BSP\STM32F2xx\src\stm32f2xx_tim.o
 .text.TIM_CtrlPWMOutputs
                0x00000000       0x50 BSP\STM32F2xx\src\stm32f2xx_tim.o
 .text.TIM_SelectCOM
                0x00000000       0x40 BSP\STM32F2xx\src\stm32f2xx_tim.o
 .text.TIM_CCPreloadControl
                0x00000000       0x40 BSP\STM32F2xx\src\stm32f2xx_tim.o
 .text.TIM_ITConfig
                0x00000000       0x48 BSP\STM32F2xx\src\stm32f2xx_tim.o
 .text.TIM_GenerateEvent
                0x00000000       0x1c BSP\STM32F2xx\src\stm32f2xx_tim.o
 .text.TIM_GetFlagStatus
                0x00000000       0x40 BSP\STM32F2xx\src\stm32f2xx_tim.o
 .text.TIM_ClearFlag
                0x00000000       0x24 BSP\STM32F2xx\src\stm32f2xx_tim.o
 .text.TIM_GetITStatus
                0x00000000       0x60 BSP\STM32F2xx\src\stm32f2xx_tim.o
 .text.TIM_ClearITPendingBit
                0x00000000       0x24 BSP\STM32F2xx\src\stm32f2xx_tim.o
 .text.TIM_DMAConfig
                0x00000000       0x28 BSP\STM32F2xx\src\stm32f2xx_tim.o
 .text.TIM_DMACmd
                0x00000000       0x48 BSP\STM32F2xx\src\stm32f2xx_tim.o
 .text.TIM_SelectCCDMA
                0x00000000       0x40 BSP\STM32F2xx\src\stm32f2xx_tim.o
 .text.TIM_InternalClockConfig
                0x00000000       0x24 BSP\STM32F2xx\src\stm32f2xx_tim.o
 .text.TIM_ITRxExternalClockConfig
                0x00000000       0x30 BSP\STM32F2xx\src\stm32f2xx_tim.o
 .text.TIM_TIxExternalClockConfig
                0x00000000       0x58 BSP\STM32F2xx\src\stm32f2xx_tim.o
 .text.TIM_ETRClockMode1Config
                0x00000000       0x54 BSP\STM32F2xx\src\stm32f2xx_tim.o
 .text.TIM_ETRClockMode2Config
                0x00000000       0x34 BSP\STM32F2xx\src\stm32f2xx_tim.o
 .text.TIM_SelectInputTrigger
                0x00000000       0x38 BSP\STM32F2xx\src\stm32f2xx_tim.o
 .text.TIM_SelectOutputTrigger
                0x00000000       0x38 BSP\STM32F2xx\src\stm32f2xx_tim.o
 .text.TIM_SelectSlaveMode
                0x00000000       0x38 BSP\STM32F2xx\src\stm32f2xx_tim.o
 .text.TIM_SelectMasterSlaveMode
                0x00000000       0x38 BSP\STM32F2xx\src\stm32f2xx_tim.o
 .text.TIM_ETRConfig
                0x00000000       0x4c BSP\STM32F2xx\src\stm32f2xx_tim.o
 .text.TIM_EncoderInterfaceConfig
                0x00000000       0x94 BSP\STM32F2xx\src\stm32f2xx_tim.o
 .text.TIM_SelectHallSensor
                0x00000000       0x40 BSP\STM32F2xx\src\stm32f2xx_tim.o
 .text.TIM_RemapConfig
                0x00000000       0x20 BSP\STM32F2xx\src\stm32f2xx_tim.o
 .text.TI1_Config
                0x00000000       0x80 BSP\STM32F2xx\src\stm32f2xx_tim.o
 .text.TI2_Config
                0x00000000       0x9c BSP\STM32F2xx\src\stm32f2xx_tim.o
 .text.TI3_Config
                0x00000000       0x8c BSP\STM32F2xx\src\stm32f2xx_tim.o
 .text.TI4_Config
                0x00000000       0xa4 BSP\STM32F2xx\src\stm32f2xx_tim.o
 .text          0x00000000        0x0 BSP\STM32F2xx\src\stm32f2xx_syscfg.o
 .data          0x00000000        0x0 BSP\STM32F2xx\src\stm32f2xx_syscfg.o
 .bss           0x00000000        0x0 BSP\STM32F2xx\src\stm32f2xx_syscfg.o
 .text.SYSCFG_DeInit
                0x00000000       0x20 BSP\STM32F2xx\src\stm32f2xx_syscfg.o
 .text.SYSCFG_MemoryRemapConfig
                0x00000000       0x20 BSP\STM32F2xx\src\stm32f2xx_syscfg.o
 .text.SYSCFG_EXTILineConfig
                0x00000000       0xb4 BSP\STM32F2xx\src\stm32f2xx_syscfg.o
 .text.SYSCFG_ETH_MediaInterfaceConfig
                0x00000000       0x20 BSP\STM32F2xx\src\stm32f2xx_syscfg.o
 .text.SYSCFG_CompensationCellCmd
                0x00000000       0x20 BSP\STM32F2xx\src\stm32f2xx_syscfg.o
 .text.SYSCFG_GetCompensationCellStatus
                0x00000000       0x3c BSP\STM32F2xx\src\stm32f2xx_syscfg.o
 .text          0x00000000        0x0 BSP\STM32F2xx\src\stm32f2xx_spi.o
 .data          0x00000000        0x0 BSP\STM32F2xx\src\stm32f2xx_spi.o
 .bss           0x00000000        0x0 BSP\STM32F2xx\src\stm32f2xx_spi.o
 .text.SPI_I2S_DeInit
                0x00000000       0x88 BSP\STM32F2xx\src\stm32f2xx_spi.o
 .text.SPI_Init
                0x00000000       0x88 BSP\STM32F2xx\src\stm32f2xx_spi.o
 .text.I2S_Init
                0x00000000      0x214 BSP\STM32F2xx\src\stm32f2xx_spi.o
 .text.SPI_StructInit
                0x00000000       0x5c BSP\STM32F2xx\src\stm32f2xx_spi.o
 .text.I2S_StructInit
                0x00000000       0x44 BSP\STM32F2xx\src\stm32f2xx_spi.o
 .text.SPI_Cmd  0x00000000       0x40 BSP\STM32F2xx\src\stm32f2xx_spi.o
 .text.I2S_Cmd  0x00000000       0x40 BSP\STM32F2xx\src\stm32f2xx_spi.o
 .text.SPI_DataSizeConfig
                0x00000000       0x38 BSP\STM32F2xx\src\stm32f2xx_spi.o
 .text.SPI_BiDirectionalLineConfig
                0x00000000       0x40 BSP\STM32F2xx\src\stm32f2xx_spi.o
 .text.SPI_NSSInternalSoftwareConfig
                0x00000000       0x44 BSP\STM32F2xx\src\stm32f2xx_spi.o
 .text.SPI_SSOutputCmd
                0x00000000       0x40 BSP\STM32F2xx\src\stm32f2xx_spi.o
 .text.SPI_TIModeCmd
                0x00000000       0x40 BSP\STM32F2xx\src\stm32f2xx_spi.o
 .text.SPI_I2S_ReceiveData
                0x00000000       0x1c BSP\STM32F2xx\src\stm32f2xx_spi.o
 .text.SPI_I2S_SendData
                0x00000000       0x1c BSP\STM32F2xx\src\stm32f2xx_spi.o
 .text.SPI_CalculateCRC
                0x00000000       0x40 BSP\STM32F2xx\src\stm32f2xx_spi.o
 .text.SPI_TransmitCRC
                0x00000000       0x24 BSP\STM32F2xx\src\stm32f2xx_spi.o
 .text.SPI_GetCRC
                0x00000000       0x34 BSP\STM32F2xx\src\stm32f2xx_spi.o
 .text.SPI_GetCRCPolynomial
                0x00000000       0x1c BSP\STM32F2xx\src\stm32f2xx_spi.o
 .text.SPI_I2S_DMACmd
                0x00000000       0x48 BSP\STM32F2xx\src\stm32f2xx_spi.o
 .text.SPI_I2S_ITConfig
                0x00000000       0x6c BSP\STM32F2xx\src\stm32f2xx_spi.o
 .text.SPI_I2S_GetFlagStatus
                0x00000000       0x40 BSP\STM32F2xx\src\stm32f2xx_spi.o
 .text.SPI_I2S_ClearFlag
                0x00000000       0x24 BSP\STM32F2xx\src\stm32f2xx_spi.o
 .text.SPI_I2S_GetITStatus
                0x00000000       0x88 BSP\STM32F2xx\src\stm32f2xx_spi.o
 .text.SPI_I2S_ClearITPendingBit
                0x00000000       0x38 BSP\STM32F2xx\src\stm32f2xx_spi.o
 .text          0x00000000        0x0 BSP\STM32F2xx\src\stm32f2xx_sdio.o
 .data          0x00000000        0x0 BSP\STM32F2xx\src\stm32f2xx_sdio.o
 .bss           0x00000000        0x0 BSP\STM32F2xx\src\stm32f2xx_sdio.o
 .text.SDIO_DeInit
                0x00000000       0x20 BSP\STM32F2xx\src\stm32f2xx_sdio.o
 .text.SDIO_Init
                0x00000000       0x68 BSP\STM32F2xx\src\stm32f2xx_sdio.o
 .text.SDIO_StructInit
                0x00000000       0x44 BSP\STM32F2xx\src\stm32f2xx_sdio.o
 .text.SDIO_ClockCmd
                0x00000000       0x20 BSP\STM32F2xx\src\stm32f2xx_sdio.o
 .text.SDIO_SetPowerState
                0x00000000       0x44 BSP\STM32F2xx\src\stm32f2xx_sdio.o
 .text.SDIO_GetPowerState
                0x00000000       0x1c BSP\STM32F2xx\src\stm32f2xx_sdio.o
 .text.SDIO_SendCommand
                0x00000000       0x68 BSP\STM32F2xx\src\stm32f2xx_sdio.o
 .text.SDIO_CmdStructInit
                0x00000000       0x3c BSP\STM32F2xx\src\stm32f2xx_sdio.o
 .text.SDIO_GetCommandResponse
                0x00000000       0x18 BSP\STM32F2xx\src\stm32f2xx_sdio.o
 .text.SDIO_GetResponse
                0x00000000       0x2c BSP\STM32F2xx\src\stm32f2xx_sdio.o
 .text.SDIO_DataConfig
                0x00000000       0x70 BSP\STM32F2xx\src\stm32f2xx_sdio.o
 .text.SDIO_DataStructInit
                0x00000000       0x44 BSP\STM32F2xx\src\stm32f2xx_sdio.o
 .text.SDIO_GetDataCounter
                0x00000000       0x18 BSP\STM32F2xx\src\stm32f2xx_sdio.o
 .text.SDIO_ReadData
                0x00000000       0x18 BSP\STM32F2xx\src\stm32f2xx_sdio.o
 .text.SDIO_WriteData
                0x00000000       0x20 BSP\STM32F2xx\src\stm32f2xx_sdio.o
 .text.SDIO_GetFIFOCount
                0x00000000       0x18 BSP\STM32F2xx\src\stm32f2xx_sdio.o
 .text.SDIO_StartSDIOReadWait
                0x00000000       0x20 BSP\STM32F2xx\src\stm32f2xx_sdio.o
 .text.SDIO_StopSDIOReadWait
                0x00000000       0x20 BSP\STM32F2xx\src\stm32f2xx_sdio.o
 .text.SDIO_SetSDIOReadWaitMode
                0x00000000       0x20 BSP\STM32F2xx\src\stm32f2xx_sdio.o
 .text.SDIO_SetSDIOOperation
                0x00000000       0x20 BSP\STM32F2xx\src\stm32f2xx_sdio.o
 .text.SDIO_SendSDIOSuspendCmd
                0x00000000       0x20 BSP\STM32F2xx\src\stm32f2xx_sdio.o
 .text.SDIO_CommandCompletionCmd
                0x00000000       0x20 BSP\STM32F2xx\src\stm32f2xx_sdio.o
 .text.SDIO_CEATAITCmd
                0x00000000       0x2c BSP\STM32F2xx\src\stm32f2xx_sdio.o
 .text.SDIO_SendCEATACmd
                0x00000000       0x20 BSP\STM32F2xx\src\stm32f2xx_sdio.o
 .text.SDIO_DMACmd
                0x00000000       0x20 BSP\STM32F2xx\src\stm32f2xx_sdio.o
 .text.SDIO_ITConfig
                0x00000000       0x58 BSP\STM32F2xx\src\stm32f2xx_sdio.o
 .text.SDIO_GetFlagStatus
                0x00000000       0x40 BSP\STM32F2xx\src\stm32f2xx_sdio.o
 .text.SDIO_ClearFlag
                0x00000000       0x20 BSP\STM32F2xx\src\stm32f2xx_sdio.o
 .text.SDIO_GetITStatus
                0x00000000       0x40 BSP\STM32F2xx\src\stm32f2xx_sdio.o
 .text.SDIO_ClearITPendingBit
                0x00000000       0x20 BSP\STM32F2xx\src\stm32f2xx_sdio.o
 .text          0x00000000        0x0 BSP\STM32F2xx\src\stm32f2xx_rtc.o
 .data          0x00000000        0x0 BSP\STM32F2xx\src\stm32f2xx_rtc.o
 .bss           0x00000000        0x0 BSP\STM32F2xx\src\stm32f2xx_rtc.o
 .text.RTC_DeInit
                0x00000000      0x16c BSP\STM32F2xx\src\stm32f2xx_rtc.o
 .text.RTC_Init
                0x00000000       0xc4 BSP\STM32F2xx\src\stm32f2xx_rtc.o
 .text.RTC_StructInit
                0x00000000       0x2c BSP\STM32F2xx\src\stm32f2xx_rtc.o
 .text.RTC_WriteProtectionCmd
                0x00000000       0x48 BSP\STM32F2xx\src\stm32f2xx_rtc.o
 .text.RTC_EnterInitMode
                0x00000000       0x94 BSP\STM32F2xx\src\stm32f2xx_rtc.o
 .text.RTC_ExitInitMode
                0x00000000       0x24 BSP\STM32F2xx\src\stm32f2xx_rtc.o
 .text.RTC_WaitForSynchro
                0x00000000       0xb0 BSP\STM32F2xx\src\stm32f2xx_rtc.o
 .text.RTC_RefClockCmd
                0x00000000       0x9c BSP\STM32F2xx\src\stm32f2xx_rtc.o
 .text.RTC_SetTime
                0x00000000      0x148 BSP\STM32F2xx\src\stm32f2xx_rtc.o
 .text.RTC_TimeStructInit
                0x00000000       0x34 BSP\STM32F2xx\src\stm32f2xx_rtc.o
 .text.RTC_GetTime
                0x00000000       0xac BSP\STM32F2xx\src\stm32f2xx_rtc.o
 .text.RTC_SetDate
                0x00000000      0x140 BSP\STM32F2xx\src\stm32f2xx_rtc.o
 .text.RTC_DateStructInit
                0x00000000       0x34 BSP\STM32F2xx\src\stm32f2xx_rtc.o
 .text.RTC_GetDate
                0x00000000       0xb0 BSP\STM32F2xx\src\stm32f2xx_rtc.o
 .text.RTC_SetAlarm
                0x00000000      0x17c BSP\STM32F2xx\src\stm32f2xx_rtc.o
 .text.RTC_AlarmStructInit
                0x00000000       0x4c BSP\STM32F2xx\src\stm32f2xx_rtc.o
 .text.RTC_GetAlarm
                0x00000000       0xec BSP\STM32F2xx\src\stm32f2xx_rtc.o
 .text.RTC_AlarmCmd
                0x00000000       0xf0 BSP\STM32F2xx\src\stm32f2xx_rtc.o
 .text.RTC_WakeUpClockConfig
                0x00000000       0x70 BSP\STM32F2xx\src\stm32f2xx_rtc.o
 .text.RTC_SetWakeUpCounter
                0x00000000       0x48 BSP\STM32F2xx\src\stm32f2xx_rtc.o
 .text.RTC_GetWakeUpCounter
                0x00000000       0x20 BSP\STM32F2xx\src\stm32f2xx_rtc.o
 .text.RTC_WakeUpCmd
                0x00000000       0xd8 BSP\STM32F2xx\src\stm32f2xx_rtc.o
 .text.RTC_DayLightSavingConfig
                0x00000000       0x74 BSP\STM32F2xx\src\stm32f2xx_rtc.o
 .text.RTC_GetStoreOperation
                0x00000000       0x1c BSP\STM32F2xx\src\stm32f2xx_rtc.o
 .text.RTC_OutputConfig
                0x00000000       0x74 BSP\STM32F2xx\src\stm32f2xx_rtc.o
 .text.RTC_CoarseCalibConfig
                0x00000000       0x74 BSP\STM32F2xx\src\stm32f2xx_rtc.o
 .text.RTC_CoarseCalibCmd
                0x00000000       0x9c BSP\STM32F2xx\src\stm32f2xx_rtc.o
 .text.RTC_CalibOutputCmd
                0x00000000       0x78 BSP\STM32F2xx\src\stm32f2xx_rtc.o
 .text.RTC_TimeStampCmd
                0x00000000       0x84 BSP\STM32F2xx\src\stm32f2xx_rtc.o
 .text.RTC_GetTimeStamp
                0x00000000      0x134 BSP\STM32F2xx\src\stm32f2xx_rtc.o
 .text.RTC_TamperTriggerConfig
                0x00000000       0x5c BSP\STM32F2xx\src\stm32f2xx_rtc.o
 .text.RTC_TamperCmd
                0x00000000       0x58 BSP\STM32F2xx\src\stm32f2xx_rtc.o
 .text.RTC_WriteBackupRegister
                0x00000000       0x38 BSP\STM32F2xx\src\stm32f2xx_rtc.o
 .text.RTC_ReadBackupRegister
                0x00000000       0x34 BSP\STM32F2xx\src\stm32f2xx_rtc.o
 .text.RTC_TamperPinSelection
                0x00000000       0x44 BSP\STM32F2xx\src\stm32f2xx_rtc.o
 .text.RTC_TimeStampPinSelection
                0x00000000       0x44 BSP\STM32F2xx\src\stm32f2xx_rtc.o
 .text.RTC_OutputTypeConfig
                0x00000000       0x44 BSP\STM32F2xx\src\stm32f2xx_rtc.o
 .text.RTC_ITConfig
                0x00000000       0xc8 BSP\STM32F2xx\src\stm32f2xx_rtc.o
 .text.RTC_GetFlagStatus
                0x00000000       0x50 BSP\STM32F2xx\src\stm32f2xx_rtc.o
 .text.RTC_ClearFlag
                0x00000000       0x40 BSP\STM32F2xx\src\stm32f2xx_rtc.o
 .text.RTC_GetITStatus
                0x00000000       0x90 BSP\STM32F2xx\src\stm32f2xx_rtc.o
 .text.RTC_ClearITPendingBit
                0x00000000       0x4c BSP\STM32F2xx\src\stm32f2xx_rtc.o
 .text.RTC_ByteToBcd2
                0x00000000       0x44 BSP\STM32F2xx\src\stm32f2xx_rtc.o
 .text.RTC_Bcd2ToByte
                0x00000000       0x40 BSP\STM32F2xx\src\stm32f2xx_rtc.o
 .text          0x00000000        0x0 BSP\STM32F2xx\src\stm32f2xx_rng.o
 .data          0x00000000        0x0 BSP\STM32F2xx\src\stm32f2xx_rng.o
 .bss           0x00000000        0x0 BSP\STM32F2xx\src\stm32f2xx_rng.o
 .text.RNG_DeInit
                0x00000000       0x20 BSP\STM32F2xx\src\stm32f2xx_rng.o
 .text.RNG_Cmd  0x00000000       0x4c BSP\STM32F2xx\src\stm32f2xx_rng.o
 .text.RNG_GetRandomNumber
                0x00000000       0x18 BSP\STM32F2xx\src\stm32f2xx_rng.o
 .text.RNG_ITConfig
                0x00000000       0x4c BSP\STM32F2xx\src\stm32f2xx_rng.o
 .text.RNG_GetFlagStatus
                0x00000000       0x40 BSP\STM32F2xx\src\stm32f2xx_rng.o
 .text.RNG_ClearFlag
                0x00000000       0x28 BSP\STM32F2xx\src\stm32f2xx_rng.o
 .text.RNG_GetITStatus
                0x00000000       0x40 BSP\STM32F2xx\src\stm32f2xx_rng.o
 .text.RNG_ClearITPendingBit
                0x00000000       0x28 BSP\STM32F2xx\src\stm32f2xx_rng.o
 .text          0x00000000        0x0 BSP\STM32F2xx\src\stm32f2xx_rcc.o
 .data          0x00000000        0x0 BSP\STM32F2xx\src\stm32f2xx_rcc.o
 .bss           0x00000000        0x0 BSP\STM32F2xx\src\stm32f2xx_rcc.o
 .text.RCC_DeInit
                0x00000000       0x84 BSP\STM32F2xx\src\stm32f2xx_rcc.o
 .text.RCC_HSEConfig
                0x00000000       0x30 BSP\STM32F2xx\src\stm32f2xx_rcc.o
 .text.RCC_WaitForHSEStartUp
                0x00000000       0x64 BSP\STM32F2xx\src\stm32f2xx_rcc.o
 .text.RCC_AdjustHSICalibrationValue
                0x00000000       0x48 BSP\STM32F2xx\src\stm32f2xx_rcc.o
 .text.RCC_HSICmd
                0x00000000       0x20 BSP\STM32F2xx\src\stm32f2xx_rcc.o
 .text.RCC_LSEConfig
                0x00000000       0x60 BSP\STM32F2xx\src\stm32f2xx_rcc.o
 .text.RCC_LSICmd
                0x00000000       0x20 BSP\STM32F2xx\src\stm32f2xx_rcc.o
 .text.RCC_PLLConfig
                0x00000000       0x48 BSP\STM32F2xx\src\stm32f2xx_rcc.o
 .text.RCC_PLLCmd
                0x00000000       0x20 BSP\STM32F2xx\src\stm32f2xx_rcc.o
 .text.RCC_PLLI2SConfig
                0x00000000       0x30 BSP\STM32F2xx\src\stm32f2xx_rcc.o
 .text.RCC_PLLI2SCmd
                0x00000000       0x20 BSP\STM32F2xx\src\stm32f2xx_rcc.o
 .text.RCC_ClockSecuritySystemCmd
                0x00000000       0x20 BSP\STM32F2xx\src\stm32f2xx_rcc.o
 .text.RCC_MCO1Config
                0x00000000       0x48 BSP\STM32F2xx\src\stm32f2xx_rcc.o
 .text.RCC_MCO2Config
                0x00000000       0x48 BSP\STM32F2xx\src\stm32f2xx_rcc.o
 .text.RCC_SYSCLKConfig
                0x00000000       0x40 BSP\STM32F2xx\src\stm32f2xx_rcc.o
 .text.RCC_GetSYSCLKSource
                0x00000000       0x20 BSP\STM32F2xx\src\stm32f2xx_rcc.o
 .text.RCC_HCLKConfig
                0x00000000       0x40 BSP\STM32F2xx\src\stm32f2xx_rcc.o
 .text.RCC_PCLK1Config
                0x00000000       0x40 BSP\STM32F2xx\src\stm32f2xx_rcc.o
 .text.RCC_PCLK2Config
                0x00000000       0x44 BSP\STM32F2xx\src\stm32f2xx_rcc.o
 .text.RCC_RTCCLKConfig
                0x00000000       0x78 BSP\STM32F2xx\src\stm32f2xx_rcc.o
 .text.RCC_RTCCLKCmd
                0x00000000       0x20 BSP\STM32F2xx\src\stm32f2xx_rcc.o
 .text.RCC_BackupResetCmd
                0x00000000       0x20 BSP\STM32F2xx\src\stm32f2xx_rcc.o
 .text.RCC_I2SCLKConfig
                0x00000000       0x20 BSP\STM32F2xx\src\stm32f2xx_rcc.o
 .text.RCC_AHB2PeriphClockCmd
                0x00000000       0x58 BSP\STM32F2xx\src\stm32f2xx_rcc.o
 .text.RCC_AHB3PeriphClockCmd
                0x00000000       0x58 BSP\STM32F2xx\src\stm32f2xx_rcc.o
 .text.RCC_APB2PeriphClockCmd
                0x00000000       0x58 BSP\STM32F2xx\src\stm32f2xx_rcc.o
 .text.RCC_AHB1PeriphResetCmd
                0x00000000       0x58 BSP\STM32F2xx\src\stm32f2xx_rcc.o
 .text.RCC_AHB2PeriphResetCmd
                0x00000000       0x58 BSP\STM32F2xx\src\stm32f2xx_rcc.o
 .text.RCC_AHB3PeriphResetCmd
                0x00000000       0x58 BSP\STM32F2xx\src\stm32f2xx_rcc.o
 .text.RCC_APB1PeriphResetCmd
                0x00000000       0x58 BSP\STM32F2xx\src\stm32f2xx_rcc.o
 .text.RCC_APB2PeriphResetCmd
                0x00000000       0x58 BSP\STM32F2xx\src\stm32f2xx_rcc.o
 .text.RCC_AHB1PeriphClockLPModeCmd
                0x00000000       0x58 BSP\STM32F2xx\src\stm32f2xx_rcc.o
 .text.RCC_AHB2PeriphClockLPModeCmd
                0x00000000       0x58 BSP\STM32F2xx\src\stm32f2xx_rcc.o
 .text.RCC_AHB3PeriphClockLPModeCmd
                0x00000000       0x58 BSP\STM32F2xx\src\stm32f2xx_rcc.o
 .text.RCC_APB1PeriphClockLPModeCmd
                0x00000000       0x58 BSP\STM32F2xx\src\stm32f2xx_rcc.o
 .text.RCC_APB2PeriphClockLPModeCmd
                0x00000000       0x58 BSP\STM32F2xx\src\stm32f2xx_rcc.o
 .text.RCC_ITConfig
                0x00000000       0x60 BSP\STM32F2xx\src\stm32f2xx_rcc.o
 .text.RCC_GetFlagStatus
                0x00000000       0x90 BSP\STM32F2xx\src\stm32f2xx_rcc.o
 .text.RCC_ClearFlag
                0x00000000       0x24 BSP\STM32F2xx\src\stm32f2xx_rcc.o
 .text.RCC_GetITStatus
                0x00000000       0x40 BSP\STM32F2xx\src\stm32f2xx_rcc.o
 .text.RCC_ClearITPendingBit
                0x00000000       0x20 BSP\STM32F2xx\src\stm32f2xx_rcc.o
 .text          0x00000000        0x0 BSP\STM32F2xx\src\stm32f2xx_pwr.o
 .data          0x00000000        0x0 BSP\STM32F2xx\src\stm32f2xx_pwr.o
 .bss           0x00000000        0x0 BSP\STM32F2xx\src\stm32f2xx_pwr.o
 .text.PWR_DeInit
                0x00000000       0x20 BSP\STM32F2xx\src\stm32f2xx_pwr.o
 .text.PWR_BackupAccessCmd
                0x00000000       0x20 BSP\STM32F2xx\src\stm32f2xx_pwr.o
 .text.PWR_PVDLevelConfig
                0x00000000       0x40 BSP\STM32F2xx\src\stm32f2xx_pwr.o
 .text.PWR_PVDCmd
                0x00000000       0x20 BSP\STM32F2xx\src\stm32f2xx_pwr.o
 .text.PWR_WakeUpPinCmd
                0x00000000       0x20 BSP\STM32F2xx\src\stm32f2xx_pwr.o
 .text.PWR_BackupRegulatorCmd
                0x00000000       0x20 BSP\STM32F2xx\src\stm32f2xx_pwr.o
 .text.PWR_FlashPowerDownCmd
                0x00000000       0x20 BSP\STM32F2xx\src\stm32f2xx_pwr.o
 .text.PWR_EnterSTOPMode
                0x00000000       0x80 BSP\STM32F2xx\src\stm32f2xx_pwr.o
 .text.PWR_EnterSTANDBYMode
                0x00000000       0x54 BSP\STM32F2xx\src\stm32f2xx_pwr.o
 .text.PWR_GetFlagStatus
                0x00000000       0x40 BSP\STM32F2xx\src\stm32f2xx_pwr.o
 .text.PWR_ClearFlag
                0x00000000       0x30 BSP\STM32F2xx\src\stm32f2xx_pwr.o
 .text          0x00000000        0x0 BSP\STM32F2xx\src\stm32f2xx_iwdg.o
 .data          0x00000000        0x0 BSP\STM32F2xx\src\stm32f2xx_iwdg.o
 .bss           0x00000000        0x0 BSP\STM32F2xx\src\stm32f2xx_iwdg.o
 .text.IWDG_WriteAccessCmd
                0x00000000       0x20 BSP\STM32F2xx\src\stm32f2xx_iwdg.o
 .text.IWDG_SetPrescaler
                0x00000000       0x20 BSP\STM32F2xx\src\stm32f2xx_iwdg.o
 .text.IWDG_SetReload
                0x00000000       0x20 BSP\STM32F2xx\src\stm32f2xx_iwdg.o
 .text.IWDG_ReloadCounter
                0x00000000       0x18 BSP\STM32F2xx\src\stm32f2xx_iwdg.o
 .text.IWDG_Enable
                0x00000000       0x18 BSP\STM32F2xx\src\stm32f2xx_iwdg.o
 .text.IWDG_GetFlagStatus
                0x00000000       0x40 BSP\STM32F2xx\src\stm32f2xx_iwdg.o
 .text          0x00000000        0x0 BSP\STM32F2xx\src\stm32f2xx_i2c.o
 .data          0x00000000        0x0 BSP\STM32F2xx\src\stm32f2xx_i2c.o
 .bss           0x00000000        0x0 BSP\STM32F2xx\src\stm32f2xx_i2c.o
 .text.I2C_DeInit
                0x00000000       0x88 BSP\STM32F2xx\src\stm32f2xx_i2c.o
 .text.I2C_Init
                0x00000000      0x1ac BSP\STM32F2xx\src\stm32f2xx_i2c.o
 .text.I2C_StructInit
                0x00000000       0x44 BSP\STM32F2xx\src\stm32f2xx_i2c.o
 .text.I2C_Cmd  0x00000000       0x40 BSP\STM32F2xx\src\stm32f2xx_i2c.o
 .text.I2C_GenerateSTART
                0x00000000       0x40 BSP\STM32F2xx\src\stm32f2xx_i2c.o
 .text.I2C_GenerateSTOP
                0x00000000       0x40 BSP\STM32F2xx\src\stm32f2xx_i2c.o
 .text.I2C_Send7bitAddress
                0x00000000       0x3c BSP\STM32F2xx\src\stm32f2xx_i2c.o
 .text.I2C_AcknowledgeConfig
                0x00000000       0x40 BSP\STM32F2xx\src\stm32f2xx_i2c.o
 .text.I2C_OwnAddress2Config
                0x00000000       0x44 BSP\STM32F2xx\src\stm32f2xx_i2c.o
 .text.I2C_DualAddressCmd
                0x00000000       0x40 BSP\STM32F2xx\src\stm32f2xx_i2c.o
 .text.I2C_GeneralCallCmd
                0x00000000       0x40 BSP\STM32F2xx\src\stm32f2xx_i2c.o
 .text.I2C_SoftwareResetCmd
                0x00000000       0x48 BSP\STM32F2xx\src\stm32f2xx_i2c.o
 .text.I2C_StretchClockCmd
                0x00000000       0x40 BSP\STM32F2xx\src\stm32f2xx_i2c.o
 .text.I2C_FastModeDutyCycleConfig
                0x00000000       0x40 BSP\STM32F2xx\src\stm32f2xx_i2c.o
 .text.I2C_NACKPositionConfig
                0x00000000       0x40 BSP\STM32F2xx\src\stm32f2xx_i2c.o
 .text.I2C_SMBusAlertConfig
                0x00000000       0x40 BSP\STM32F2xx\src\stm32f2xx_i2c.o
 .text.I2C_ARPCmd
                0x00000000       0x40 BSP\STM32F2xx\src\stm32f2xx_i2c.o
 .text.I2C_SendData
                0x00000000       0x20 BSP\STM32F2xx\src\stm32f2xx_i2c.o
 .text.I2C_ReceiveData
                0x00000000       0x1c BSP\STM32F2xx\src\stm32f2xx_i2c.o
 .text.I2C_TransmitPEC
                0x00000000       0x40 BSP\STM32F2xx\src\stm32f2xx_i2c.o
 .text.I2C_PECPositionConfig
                0x00000000       0x40 BSP\STM32F2xx\src\stm32f2xx_i2c.o
 .text.I2C_CalculatePEC
                0x00000000       0x40 BSP\STM32F2xx\src\stm32f2xx_i2c.o
 .text.I2C_GetPEC
                0x00000000       0x24 BSP\STM32F2xx\src\stm32f2xx_i2c.o
 .text.I2C_DMACmd
                0x00000000       0x40 BSP\STM32F2xx\src\stm32f2xx_i2c.o
 .text.I2C_DMALastTransferCmd
                0x00000000       0x40 BSP\STM32F2xx\src\stm32f2xx_i2c.o
 .text.I2C_ReadRegister
                0x00000000       0x30 BSP\STM32F2xx\src\stm32f2xx_i2c.o
 .text.I2C_ITConfig
                0x00000000       0x48 BSP\STM32F2xx\src\stm32f2xx_i2c.o
 .text.I2C_CheckEvent
                0x00000000       0x70 BSP\STM32F2xx\src\stm32f2xx_i2c.o
 .text.I2C_GetLastEvent
                0x00000000       0x4c BSP\STM32F2xx\src\stm32f2xx_i2c.o
 .text.I2C_GetFlagStatus
                0x00000000       0x78 BSP\STM32F2xx\src\stm32f2xx_i2c.o
 .text.I2C_ClearFlag
                0x00000000       0x30 BSP\STM32F2xx\src\stm32f2xx_i2c.o
 .text.I2C_GetITStatus
                0x00000000       0x64 BSP\STM32F2xx\src\stm32f2xx_i2c.o
 .text.I2C_ClearITPendingBit
                0x00000000       0x30 BSP\STM32F2xx\src\stm32f2xx_i2c.o
 .text          0x00000000        0x0 BSP\STM32F2xx\src\stm32f2xx_hash_sha1.o
 .data          0x00000000        0x0 BSP\STM32F2xx\src\stm32f2xx_hash_sha1.o
 .bss           0x00000000        0x0 BSP\STM32F2xx\src\stm32f2xx_hash_sha1.o
 .text.HASH_SHA1
                0x00000000      0x158 BSP\STM32F2xx\src\stm32f2xx_hash_sha1.o
 .text.HMAC_SHA1
                0x00000000      0x270 BSP\STM32F2xx\src\stm32f2xx_hash_sha1.o
 .text          0x00000000        0x0 BSP\STM32F2xx\src\stm32f2xx_hash_md5.o
 .data          0x00000000        0x0 BSP\STM32F2xx\src\stm32f2xx_hash_md5.o
 .bss           0x00000000        0x0 BSP\STM32F2xx\src\stm32f2xx_hash_md5.o
 .text.HASH_MD5
                0x00000000      0x140 BSP\STM32F2xx\src\stm32f2xx_hash_md5.o
 .text.HMAC_MD5
                0x00000000      0x258 BSP\STM32F2xx\src\stm32f2xx_hash_md5.o
 .text          0x00000000        0x0 BSP\STM32F2xx\src\stm32f2xx_hash.o
 .data          0x00000000        0x0 BSP\STM32F2xx\src\stm32f2xx_hash.o
 .bss           0x00000000        0x0 BSP\STM32F2xx\src\stm32f2xx_hash.o
 .text.HASH_DeInit
                0x00000000       0x20 BSP\STM32F2xx\src\stm32f2xx_hash.o
 .text.HASH_Init
                0x00000000       0xa8 BSP\STM32F2xx\src\stm32f2xx_hash.o
 .text.HASH_StructInit
                0x00000000       0x34 BSP\STM32F2xx\src\stm32f2xx_hash.o
 .text.HASH_Reset
                0x00000000       0x24 BSP\STM32F2xx\src\stm32f2xx_hash.o
 .text.HASH_SetLastWordValidBitsNbr
                0x00000000       0x48 BSP\STM32F2xx\src\stm32f2xx_hash.o
 .text.HASH_DataIn
                0x00000000       0x20 BSP\STM32F2xx\src\stm32f2xx_hash.o
 .text.HASH_GetInFIFOWordsNbr
                0x00000000       0x20 BSP\STM32F2xx\src\stm32f2xx_hash.o
 .text.HASH_GetDigest
                0x00000000       0x64 BSP\STM32F2xx\src\stm32f2xx_hash.o
 .text.HASH_StartDigest
                0x00000000       0x24 BSP\STM32F2xx\src\stm32f2xx_hash.o
 .text.HASH_SaveContext
                0x00000000       0x84 BSP\STM32F2xx\src\stm32f2xx_hash.o
 .text.HASH_RestoreContext
                0x00000000       0x94 BSP\STM32F2xx\src\stm32f2xx_hash.o
 .text.HASH_DMACmd
                0x00000000       0x4c BSP\STM32F2xx\src\stm32f2xx_hash.o
 .text.HASH_ITConfig
                0x00000000       0x5c BSP\STM32F2xx\src\stm32f2xx_hash.o
 .text.HASH_GetFlagStatus
                0x00000000       0x60 BSP\STM32F2xx\src\stm32f2xx_hash.o
 .text.HASH_ClearFlag
                0x00000000       0x24 BSP\STM32F2xx\src\stm32f2xx_hash.o
 .text.HASH_GetITStatus
                0x00000000       0x58 BSP\STM32F2xx\src\stm32f2xx_hash.o
 .text.HASH_ClearITPendingBit
                0x00000000       0x28 BSP\STM32F2xx\src\stm32f2xx_hash.o
 .text          0x00000000        0x0 BSP\STM32F2xx\src\stm32f2xx_gpio.o
 .data          0x00000000        0x0 BSP\STM32F2xx\src\stm32f2xx_gpio.o
 .bss           0x00000000        0x0 BSP\STM32F2xx\src\stm32f2xx_gpio.o
 .text.GPIO_DeInit
                0x00000000      0x178 BSP\STM32F2xx\src\stm32f2xx_gpio.o
 .text.GPIO_StructInit
                0x00000000       0x3c BSP\STM32F2xx\src\stm32f2xx_gpio.o
 .text.GPIO_PinLockConfig
                0x00000000       0x44 BSP\STM32F2xx\src\stm32f2xx_gpio.o
 .text.GPIO_ReadInputDataBit
                0x00000000       0x3c BSP\STM32F2xx\src\stm32f2xx_gpio.o
 .text.GPIO_ReadInputData
                0x00000000       0x1c BSP\STM32F2xx\src\stm32f2xx_gpio.o
 .text.GPIO_ReadOutputDataBit
                0x00000000       0x3c BSP\STM32F2xx\src\stm32f2xx_gpio.o
 .text.GPIO_WriteBit
                0x00000000       0x30 BSP\STM32F2xx\src\stm32f2xx_gpio.o
 .text.GPIO_Write
                0x00000000       0x1c BSP\STM32F2xx\src\stm32f2xx_gpio.o
 .text.GPIO_ToggleBits
                0x00000000       0x24 BSP\STM32F2xx\src\stm32f2xx_gpio.o
 .text          0x00000000        0x0 BSP\STM32F2xx\src\stm32f2xx_fsmc.o
 .data          0x00000000        0x0 BSP\STM32F2xx\src\stm32f2xx_fsmc.o
 .bss           0x00000000        0x0 BSP\STM32F2xx\src\stm32f2xx_fsmc.o
 .text.FSMC_NORSRAMDeInit
                0x00000000       0x5c BSP\STM32F2xx\src\stm32f2xx_fsmc.o
 .text.FSMC_NORSRAMInit
                0x00000000      0x150 BSP\STM32F2xx\src\stm32f2xx_fsmc.o
 .text.FSMC_NORSRAMStructInit
                0x00000000      0x108 BSP\STM32F2xx\src\stm32f2xx_fsmc.o
 .text.FSMC_NORSRAMCmd
                0x00000000       0x58 BSP\STM32F2xx\src\stm32f2xx_fsmc.o
 .text.FSMC_NANDDeInit
                0x00000000       0x8c BSP\STM32F2xx\src\stm32f2xx_fsmc.o
 .text.FSMC_NANDInit
                0x00000000      0x100 BSP\STM32F2xx\src\stm32f2xx_fsmc.o
 .text.FSMC_NANDStructInit
                0x00000000       0x9c BSP\STM32F2xx\src\stm32f2xx_fsmc.o
 .text.FSMC_NANDCmd
                0x00000000       0xa0 BSP\STM32F2xx\src\stm32f2xx_fsmc.o
 .text.FSMC_NANDECCCmd
                0x00000000       0xa0 BSP\STM32F2xx\src\stm32f2xx_fsmc.o
 .text.FSMC_GetECC
                0x00000000       0x3c BSP\STM32F2xx\src\stm32f2xx_fsmc.o
 .text.FSMC_PCCARDDeInit
                0x00000000       0x50 BSP\STM32F2xx\src\stm32f2xx_fsmc.o
 .text.FSMC_PCCARDInit
                0x00000000       0xd4 BSP\STM32F2xx\src\stm32f2xx_fsmc.o
 .text.FSMC_PCCARDStructInit
                0x00000000       0xa4 BSP\STM32F2xx\src\stm32f2xx_fsmc.o
 .text.FSMC_PCCARDCmd
                0x00000000       0x54 BSP\STM32F2xx\src\stm32f2xx_fsmc.o
 .text.FSMC_ITConfig
                0x00000000       0xec BSP\STM32F2xx\src\stm32f2xx_fsmc.o
 .text.FSMC_GetFlagStatus
                0x00000000       0x74 BSP\STM32F2xx\src\stm32f2xx_fsmc.o
 .text.FSMC_ClearFlag
                0x00000000       0x80 BSP\STM32F2xx\src\stm32f2xx_fsmc.o
 .text.FSMC_GetITStatus
                0x00000000       0x94 BSP\STM32F2xx\src\stm32f2xx_fsmc.o
 .text.FSMC_ClearITPendingBit
                0x00000000       0x8c BSP\STM32F2xx\src\stm32f2xx_fsmc.o
 .text          0x00000000        0x0 BSP\STM32F2xx\src\stm32f2xx_flash.o
 .data          0x00000000        0x0 BSP\STM32F2xx\src\stm32f2xx_flash.o
 .bss           0x00000000        0x0 BSP\STM32F2xx\src\stm32f2xx_flash.o
 .text.FLASH_SetLatency
                0x00000000       0x20 BSP\STM32F2xx\src\stm32f2xx_flash.o
 .text.FLASH_PrefetchBufferCmd
                0x00000000       0x4c BSP\STM32F2xx\src\stm32f2xx_flash.o
 .text.FLASH_InstructionCacheCmd
                0x00000000       0x4c BSP\STM32F2xx\src\stm32f2xx_flash.o
 .text.FLASH_DataCacheCmd
                0x00000000       0x4c BSP\STM32F2xx\src\stm32f2xx_flash.o
 .text.FLASH_InstructionCacheReset
                0x00000000       0x24 BSP\STM32F2xx\src\stm32f2xx_flash.o
 .text.FLASH_DataCacheReset
                0x00000000       0x24 BSP\STM32F2xx\src\stm32f2xx_flash.o
 .text.FLASH_Unlock
                0x00000000       0x3c BSP\STM32F2xx\src\stm32f2xx_flash.o
 .text.FLASH_Lock
                0x00000000       0x24 BSP\STM32F2xx\src\stm32f2xx_flash.o
 .text.FLASH_EraseSector
                0x00000000      0x11c BSP\STM32F2xx\src\stm32f2xx_flash.o
 .text.FLASH_EraseAllSectors
                0x00000000       0xe4 BSP\STM32F2xx\src\stm32f2xx_flash.o
 .text.FLASH_ProgramDoubleWord
                0x00000000       0xa0 BSP\STM32F2xx\src\stm32f2xx_flash.o
 .text.FLASH_ProgramWord
                0x00000000       0x98 BSP\STM32F2xx\src\stm32f2xx_flash.o
 .text.FLASH_ProgramHalfWord
                0x00000000       0x9c BSP\STM32F2xx\src\stm32f2xx_flash.o
 .text.FLASH_ProgramByte
                0x00000000       0x98 BSP\STM32F2xx\src\stm32f2xx_flash.o
 .text.FLASH_OB_Unlock
                0x00000000       0x44 BSP\STM32F2xx\src\stm32f2xx_flash.o
 .text.FLASH_OB_Lock
                0x00000000       0x24 BSP\STM32F2xx\src\stm32f2xx_flash.o
 .text.FLASH_OB_WRPConfig
                0x00000000       0x74 BSP\STM32F2xx\src\stm32f2xx_flash.o
 .text.FLASH_OB_RDPConfig
                0x00000000       0x34 BSP\STM32F2xx\src\stm32f2xx_flash.o
 .text.FLASH_OB_UserConfig
                0x00000000       0x64 BSP\STM32F2xx\src\stm32f2xx_flash.o
 .text.FLASH_OB_BORConfig
                0x00000000       0x4c BSP\STM32F2xx\src\stm32f2xx_flash.o
 .text.FLASH_OB_Launch
                0x00000000       0x3c BSP\STM32F2xx\src\stm32f2xx_flash.o
 .text.FLASH_OB_GetUser
                0x00000000       0x1c BSP\STM32F2xx\src\stm32f2xx_flash.o
 .text.FLASH_OB_GetWRP
                0x00000000       0x18 BSP\STM32F2xx\src\stm32f2xx_flash.o
 .text.FLASH_OB_GetRDP
                0x00000000       0x38 BSP\STM32F2xx\src\stm32f2xx_flash.o
 .text.FLASH_OB_GetBOR
                0x00000000       0x20 BSP\STM32F2xx\src\stm32f2xx_flash.o
 .text.FLASH_ITConfig
                0x00000000       0x58 BSP\STM32F2xx\src\stm32f2xx_flash.o
 .text.FLASH_GetFlagStatus
                0x00000000       0x40 BSP\STM32F2xx\src\stm32f2xx_flash.o
 .text.FLASH_ClearFlag
                0x00000000       0x20 BSP\STM32F2xx\src\stm32f2xx_flash.o
 .text.FLASH_GetStatus
                0x00000000       0x88 BSP\STM32F2xx\src\stm32f2xx_flash.o
 .text.FLASH_WaitForLastOperation
                0x00000000       0x34 BSP\STM32F2xx\src\stm32f2xx_flash.o
 .text          0x00000000        0x0 BSP\STM32F2xx\src\stm32f2xx_exti.o
 .data          0x00000000        0x0 BSP\STM32F2xx\src\stm32f2xx_exti.o
 .bss           0x00000000        0x0 BSP\STM32F2xx\src\stm32f2xx_exti.o
 .text.EXTI_DeInit
                0x00000000       0x54 BSP\STM32F2xx\src\stm32f2xx_exti.o
 .text.EXTI_Init
                0x00000000      0x144 BSP\STM32F2xx\src\stm32f2xx_exti.o
 .text.EXTI_StructInit
                0x00000000       0x34 BSP\STM32F2xx\src\stm32f2xx_exti.o
 .text.EXTI_GenerateSWInterrupt
                0x00000000       0x2c BSP\STM32F2xx\src\stm32f2xx_exti.o
 .text.EXTI_GetFlagStatus
                0x00000000       0x40 BSP\STM32F2xx\src\stm32f2xx_exti.o
 .text.EXTI_ClearFlag
                0x00000000       0x20 BSP\STM32F2xx\src\stm32f2xx_exti.o
 .text.EXTI_GetITStatus
                0x00000000       0x5c BSP\STM32F2xx\src\stm32f2xx_exti.o
 .text.EXTI_ClearITPendingBit
                0x00000000       0x20 BSP\STM32F2xx\src\stm32f2xx_exti.o
 .text          0x00000000        0x0 BSP\STM32F2xx\src\stm32f2xx_dma.o
 .data          0x00000000        0x0 BSP\STM32F2xx\src\stm32f2xx_dma.o
 .bss           0x00000000        0x0 BSP\STM32F2xx\src\stm32f2xx_dma.o
 .text.DMA_DeInit
                0x00000000      0x244 BSP\STM32F2xx\src\stm32f2xx_dma.o
 .text.DMA_Init
                0x00000000       0xb0 BSP\STM32F2xx\src\stm32f2xx_dma.o
 .text.DMA_StructInit
                0x00000000       0x8c BSP\STM32F2xx\src\stm32f2xx_dma.o
 .text.DMA_Cmd  0x00000000       0x38 BSP\STM32F2xx\src\stm32f2xx_dma.o
 .text.DMA_PeriphIncOffsetSizeConfig
                0x00000000       0x34 BSP\STM32F2xx\src\stm32f2xx_dma.o
 .text.DMA_FlowControllerConfig
                0x00000000       0x34 BSP\STM32F2xx\src\stm32f2xx_dma.o
 .text.DMA_SetCurrDataCounter
                0x00000000       0x1c BSP\STM32F2xx\src\stm32f2xx_dma.o
 .text.DMA_GetCurrDataCounter
                0x00000000       0x1c BSP\STM32F2xx\src\stm32f2xx_dma.o
 .text.DMA_DoubleBufferModeConfig
                0x00000000       0x3c BSP\STM32F2xx\src\stm32f2xx_dma.o
 .text.DMA_DoubleBufferModeCmd
                0x00000000       0x38 BSP\STM32F2xx\src\stm32f2xx_dma.o
 .text.DMA_MemoryTargetConfig
                0x00000000       0x2c BSP\STM32F2xx\src\stm32f2xx_dma.o
 .text.DMA_GetCurrentMemoryTarget
                0x00000000       0x38 BSP\STM32F2xx\src\stm32f2xx_dma.o
 .text.DMA_GetCmdStatus
                0x00000000       0x38 BSP\STM32F2xx\src\stm32f2xx_dma.o
 .text.DMA_GetFIFOStatus
                0x00000000       0x28 BSP\STM32F2xx\src\stm32f2xx_dma.o
 .text.DMA_GetFlagStatus
                0x00000000       0x88 BSP\STM32F2xx\src\stm32f2xx_dma.o
 .text.DMA_ClearFlag
                0x00000000       0x64 BSP\STM32F2xx\src\stm32f2xx_dma.o
 .text.DMA_ITConfig
                0x00000000       0x78 BSP\STM32F2xx\src\stm32f2xx_dma.o
 .text.DMA_GetITStatus
                0x00000000       0xc8 BSP\STM32F2xx\src\stm32f2xx_dma.o
 .text.DMA_ClearITPendingBit
                0x00000000       0x64 BSP\STM32F2xx\src\stm32f2xx_dma.o
 .text          0x00000000        0x0 BSP\STM32F2xx\src\stm32f2xx_dcmi.o
 .data          0x00000000        0x0 BSP\STM32F2xx\src\stm32f2xx_dcmi.o
 .bss           0x00000000        0x0 BSP\STM32F2xx\src\stm32f2xx_dcmi.o
 .text.DCMI_DeInit
                0x00000000       0x6c BSP\STM32F2xx\src\stm32f2xx_dcmi.o
 .text.DCMI_Init
                0x00000000       0x94 BSP\STM32F2xx\src\stm32f2xx_dcmi.o
 .text.DCMI_StructInit
                0x00000000       0x4c BSP\STM32F2xx\src\stm32f2xx_dcmi.o
 .text.DCMI_CROPConfig
                0x00000000       0x48 BSP\STM32F2xx\src\stm32f2xx_dcmi.o
 .text.DCMI_CROPCmd
                0x00000000       0x4c BSP\STM32F2xx\src\stm32f2xx_dcmi.o
 .text.DCMI_SetEmbeddedSynchroCodes
                0x00000000       0x40 BSP\STM32F2xx\src\stm32f2xx_dcmi.o
 .text.DCMI_JPEGCmd
                0x00000000       0x4c BSP\STM32F2xx\src\stm32f2xx_dcmi.o
 .text.DCMI_Cmd
                0x00000000       0x4c BSP\STM32F2xx\src\stm32f2xx_dcmi.o
 .text.DCMI_CaptureCmd
                0x00000000       0x4c BSP\STM32F2xx\src\stm32f2xx_dcmi.o
 .text.DCMI_ReadData
                0x00000000       0x18 BSP\STM32F2xx\src\stm32f2xx_dcmi.o
 .text.DCMI_ITConfig
                0x00000000       0x5c BSP\STM32F2xx\src\stm32f2xx_dcmi.o
 .text.DCMI_GetFlagStatus
                0x00000000       0x7c BSP\STM32F2xx\src\stm32f2xx_dcmi.o
 .text.DCMI_ClearFlag
                0x00000000       0x20 BSP\STM32F2xx\src\stm32f2xx_dcmi.o
 .text.DCMI_GetITStatus
                0x00000000       0x4c BSP\STM32F2xx\src\stm32f2xx_dcmi.o
 .text.DCMI_ClearITPendingBit
                0x00000000       0x20 BSP\STM32F2xx\src\stm32f2xx_dcmi.o
 .text          0x00000000        0x0 BSP\STM32F2xx\src\stm32f2xx_dbgmcu.o
 .data          0x00000000        0x0 BSP\STM32F2xx\src\stm32f2xx_dbgmcu.o
 .bss           0x00000000        0x0 BSP\STM32F2xx\src\stm32f2xx_dbgmcu.o
 .text.DBGMCU_GetREVID
                0x00000000       0x1c BSP\STM32F2xx\src\stm32f2xx_dbgmcu.o
 .text.DBGMCU_GetDEVID
                0x00000000       0x20 BSP\STM32F2xx\src\stm32f2xx_dbgmcu.o
 .text.DBGMCU_Config
                0x00000000       0x58 BSP\STM32F2xx\src\stm32f2xx_dbgmcu.o
 .text.DBGMCU_APB1PeriphConfig
                0x00000000       0x58 BSP\STM32F2xx\src\stm32f2xx_dbgmcu.o
 .text.DBGMCU_APB2PeriphConfig
                0x00000000       0x58 BSP\STM32F2xx\src\stm32f2xx_dbgmcu.o
 .text          0x00000000        0x0 BSP\STM32F2xx\src\stm32f2xx_dac.o
 .data          0x00000000        0x0 BSP\STM32F2xx\src\stm32f2xx_dac.o
 .bss           0x00000000        0x0 BSP\STM32F2xx\src\stm32f2xx_dac.o
 .text.DAC_DeInit
                0x00000000       0x20 BSP\STM32F2xx\src\stm32f2xx_dac.o
 .text.DAC_Init
                0x00000000       0x74 BSP\STM32F2xx\src\stm32f2xx_dac.o
 .text.DAC_StructInit
                0x00000000       0x34 BSP\STM32F2xx\src\stm32f2xx_dac.o
 .text.DAC_Cmd  0x00000000       0x68 BSP\STM32F2xx\src\stm32f2xx_dac.o
 .text.DAC_SoftwareTriggerCmd
                0x00000000       0x70 BSP\STM32F2xx\src\stm32f2xx_dac.o
 .text.DAC_DualSoftwareTriggerCmd
                0x00000000       0x4c BSP\STM32F2xx\src\stm32f2xx_dac.o
 .text.DAC_WaveGenerationCmd
                0x00000000       0x64 BSP\STM32F2xx\src\stm32f2xx_dac.o
 .text.DAC_SetChannel1Data
                0x00000000       0x38 BSP\STM32F2xx\src\stm32f2xx_dac.o
 .text.DAC_SetChannel2Data
                0x00000000       0x38 BSP\STM32F2xx\src\stm32f2xx_dac.o
 .text.DAC_SetDualChannelData
                0x00000000       0x64 BSP\STM32F2xx\src\stm32f2xx_dac.o
 .text.DAC_GetDataOutputValue
                0x00000000       0x3c BSP\STM32F2xx\src\stm32f2xx_dac.o
 .text.DAC_DMACmd
                0x00000000       0x68 BSP\STM32F2xx\src\stm32f2xx_dac.o
 .text.DAC_ITConfig
                0x00000000       0x64 BSP\STM32F2xx\src\stm32f2xx_dac.o
 .text.DAC_GetFlagStatus
                0x00000000       0x48 BSP\STM32F2xx\src\stm32f2xx_dac.o
 .text.DAC_ClearFlag
                0x00000000       0x28 BSP\STM32F2xx\src\stm32f2xx_dac.o
 .text.DAC_GetITStatus
                0x00000000       0x6c BSP\STM32F2xx\src\stm32f2xx_dac.o
 .text.DAC_ClearITPendingBit
                0x00000000       0x28 BSP\STM32F2xx\src\stm32f2xx_dac.o
 .text          0x00000000        0x0 BSP\STM32F2xx\src\stm32f2xx_cryp_tdes.o
 .data          0x00000000        0x0 BSP\STM32F2xx\src\stm32f2xx_cryp_tdes.o
 .bss           0x00000000        0x0 BSP\STM32F2xx\src\stm32f2xx_cryp_tdes.o
 .text.CRYP_TDES_ECB
                0x00000000      0x1d0 BSP\STM32F2xx\src\stm32f2xx_cryp_tdes.o
 .text.CRYP_TDES_CBC
                0x00000000      0x268 BSP\STM32F2xx\src\stm32f2xx_cryp_tdes.o
 .text          0x00000000        0x0 BSP\STM32F2xx\src\stm32f2xx_cryp_des.o
 .data          0x00000000        0x0 BSP\STM32F2xx\src\stm32f2xx_cryp_des.o
 .bss           0x00000000        0x0 BSP\STM32F2xx\src\stm32f2xx_cryp_des.o
 .text.CRYP_DES_ECB
                0x00000000      0x160 BSP\STM32F2xx\src\stm32f2xx_cryp_des.o
 .text.CRYP_DES_CBC
                0x00000000      0x1b0 BSP\STM32F2xx\src\stm32f2xx_cryp_des.o
 .text          0x00000000        0x0 BSP\STM32F2xx\src\stm32f2xx_cryp_aes.o
 .data          0x00000000        0x0 BSP\STM32F2xx\src\stm32f2xx_cryp_aes.o
 .bss           0x00000000        0x0 BSP\STM32F2xx\src\stm32f2xx_cryp_aes.o
 .text.CRYP_AES_ECB
                0x00000000      0x4b0 BSP\STM32F2xx\src\stm32f2xx_cryp_aes.o
 .text.CRYP_AES_CBC
                0x00000000      0x5cc BSP\STM32F2xx\src\stm32f2xx_cryp_aes.o
 .text.CRYP_AES_CTR
                0x00000000      0x550 BSP\STM32F2xx\src\stm32f2xx_cryp_aes.o
 .text          0x00000000        0x0 BSP\STM32F2xx\src\stm32f2xx_cryp.o
 .data          0x00000000        0x0 BSP\STM32F2xx\src\stm32f2xx_cryp.o
 .bss           0x00000000        0x0 BSP\STM32F2xx\src\stm32f2xx_cryp.o
 .text.CRYP_DeInit
                0x00000000       0x20 BSP\STM32F2xx\src\stm32f2xx_cryp.o
 .text.CRYP_Init
                0x00000000      0x104 BSP\STM32F2xx\src\stm32f2xx_cryp.o
 .text.CRYP_StructInit
                0x00000000       0x34 BSP\STM32F2xx\src\stm32f2xx_cryp.o
 .text.CRYP_KeyInit
                0x00000000       0x84 BSP\STM32F2xx\src\stm32f2xx_cryp.o
 .text.CRYP_KeyStructInit
                0x00000000       0x54 BSP\STM32F2xx\src\stm32f2xx_cryp.o
 .text.CRYP_IVInit
                0x00000000       0x4c BSP\STM32F2xx\src\stm32f2xx_cryp.o
 .text.CRYP_IVStructInit
                0x00000000       0x34 BSP\STM32F2xx\src\stm32f2xx_cryp.o
 .text.CRYP_FIFOFlush
                0x00000000       0x24 BSP\STM32F2xx\src\stm32f2xx_cryp.o
 .text.CRYP_Cmd
                0x00000000       0x4c BSP\STM32F2xx\src\stm32f2xx_cryp.o
 .text.CRYP_DataIn
                0x00000000       0x20 BSP\STM32F2xx\src\stm32f2xx_cryp.o
 .text.CRYP_DataOut
                0x00000000       0x18 BSP\STM32F2xx\src\stm32f2xx_cryp.o
 .text.CRYP_SaveContext
                0x00000000      0x170 BSP\STM32F2xx\src\stm32f2xx_cryp.o
 .text.CRYP_RestoreContext
                0x00000000       0xe0 BSP\STM32F2xx\src\stm32f2xx_cryp.o
 .text.CRYP_DMACmd
                0x00000000       0x5c BSP\STM32F2xx\src\stm32f2xx_cryp.o
 .text.CRYP_ITConfig
                0x00000000       0x5c BSP\STM32F2xx\src\stm32f2xx_cryp.o
 .text.CRYP_GetITStatus
                0x00000000       0x40 BSP\STM32F2xx\src\stm32f2xx_cryp.o
 .text.CRYP_GetFlagStatus
                0x00000000       0x60 BSP\STM32F2xx\src\stm32f2xx_cryp.o
 .text          0x00000000        0x0 BSP\STM32F2xx\src\stm32f2xx_crc.o
 .data          0x00000000        0x0 BSP\STM32F2xx\src\stm32f2xx_crc.o
 .bss           0x00000000        0x0 BSP\STM32F2xx\src\stm32f2xx_crc.o
 .text.CRC_ResetDR
                0x00000000       0x18 BSP\STM32F2xx\src\stm32f2xx_crc.o
 .text.CRC_CalcCRC
                0x00000000       0x2c BSP\STM32F2xx\src\stm32f2xx_crc.o
 .text.CRC_CalcBlockCRC
                0x00000000       0x54 BSP\STM32F2xx\src\stm32f2xx_crc.o
 .text.CRC_GetCRC
                0x00000000       0x18 BSP\STM32F2xx\src\stm32f2xx_crc.o
 .text.CRC_SetIDRegister
                0x00000000       0x20 BSP\STM32F2xx\src\stm32f2xx_crc.o
 .text.CRC_GetIDRegister
                0x00000000       0x18 BSP\STM32F2xx\src\stm32f2xx_crc.o
 .text          0x00000000        0x0 BSP\STM32F2xx\src\stm32f2xx_can.o
 .data          0x00000000        0x0 BSP\STM32F2xx\src\stm32f2xx_can.o
 .bss           0x00000000        0x0 BSP\STM32F2xx\src\stm32f2xx_can.o
 .text.CAN_DeInit
                0x00000000       0x50 BSP\STM32F2xx\src\stm32f2xx_can.o
 .text.CAN_Init
                0x00000000      0x1c0 BSP\STM32F2xx\src\stm32f2xx_can.o
 .text.CAN_FilterInit
                0x00000000      0x220 BSP\STM32F2xx\src\stm32f2xx_can.o
 .text.CAN_StructInit
                0x00000000       0x6c BSP\STM32F2xx\src\stm32f2xx_can.o
 .text.CAN_SlaveStartBank
                0x00000000       0x90 BSP\STM32F2xx\src\stm32f2xx_can.o
 .text.CAN_DBGFreeze
                0x00000000       0x38 BSP\STM32F2xx\src\stm32f2xx_can.o
 .text.CAN_TTComModeCmd
                0x00000000       0x98 BSP\STM32F2xx\src\stm32f2xx_can.o
 .text.CAN_Transmit
                0x00000000      0x1e4 BSP\STM32F2xx\src\stm32f2xx_can.o
 .text.CAN_TransmitStatus
                0x00000000      0x114 BSP\STM32F2xx\src\stm32f2xx_can.o
 .text.CAN_CancelTransmit
                0x00000000       0x50 BSP\STM32F2xx\src\stm32f2xx_can.o
 .text.CAN_Receive
                0x00000000      0x1a8 BSP\STM32F2xx\src\stm32f2xx_can.o
 .text.CAN_FIFORelease
                0x00000000       0x38 BSP\STM32F2xx\src\stm32f2xx_can.o
 .text.CAN_MessagePending
                0x00000000       0x50 BSP\STM32F2xx\src\stm32f2xx_can.o
 .text.CAN_OperatingModeRequest
                0x00000000      0x114 BSP\STM32F2xx\src\stm32f2xx_can.o
 .text.CAN_Sleep
                0x00000000       0x40 BSP\STM32F2xx\src\stm32f2xx_can.o
 .text.CAN_WakeUp
                0x00000000       0x5c BSP\STM32F2xx\src\stm32f2xx_can.o
 .text.CAN_GetLastErrorCode
                0x00000000       0x28 BSP\STM32F2xx\src\stm32f2xx_can.o
 .text.CAN_GetReceiveErrorCounter
                0x00000000       0x28 BSP\STM32F2xx\src\stm32f2xx_can.o
 .text.CAN_GetLSBTransmitErrorCounter
                0x00000000       0x2c BSP\STM32F2xx\src\stm32f2xx_can.o
 .text.CAN_ITConfig
                0x00000000       0x40 BSP\STM32F2xx\src\stm32f2xx_can.o
 .text.CAN_GetFlagStatus
                0x00000000      0x104 BSP\STM32F2xx\src\stm32f2xx_can.o
 .text.CAN_ClearFlag
                0x00000000       0x7c BSP\STM32F2xx\src\stm32f2xx_can.o
 .text.CAN_GetITStatus
                0x00000000      0x1bc BSP\STM32F2xx\src\stm32f2xx_can.o
 .text.CAN_ClearITPendingBit
                0x00000000       0xfc BSP\STM32F2xx\src\stm32f2xx_can.o
 .text.CheckITStatus
                0x00000000       0x38 BSP\STM32F2xx\src\stm32f2xx_can.o
 .text          0x00000000        0x0 BSP\STM32F2xx\src\stm32f2xx_adc.o
 .data          0x00000000        0x0 BSP\STM32F2xx\src\stm32f2xx_adc.o
 .bss           0x00000000        0x0 BSP\STM32F2xx\src\stm32f2xx_adc.o
 .text.ADC_DeInit
                0x00000000       0x20 BSP\STM32F2xx\src\stm32f2xx_adc.o
 .text.ADC_Init
                0x00000000       0xb8 BSP\STM32F2xx\src\stm32f2xx_adc.o
 .text.ADC_StructInit
                0x00000000       0x4c BSP\STM32F2xx\src\stm32f2xx_adc.o
 .text.ADC_CommonInit
                0x00000000       0x5c BSP\STM32F2xx\src\stm32f2xx_adc.o
 .text.ADC_CommonStructInit
                0x00000000       0x34 BSP\STM32F2xx\src\stm32f2xx_adc.o
 .text.ADC_Cmd  0x00000000       0x38 BSP\STM32F2xx\src\stm32f2xx_adc.o
 .text.ADC_AnalogWatchdogCmd
                0x00000000       0x3c BSP\STM32F2xx\src\stm32f2xx_adc.o
 .text.ADC_AnalogWatchdogThresholdsConfig
                0x00000000       0x28 BSP\STM32F2xx\src\stm32f2xx_adc.o
 .text.ADC_AnalogWatchdogSingleChannelConfig
                0x00000000       0x38 BSP\STM32F2xx\src\stm32f2xx_adc.o
 .text.ADC_TempSensorVrefintCmd
                0x00000000       0x4c BSP\STM32F2xx\src\stm32f2xx_adc.o
 .text.ADC_VBATCmd
                0x00000000       0x4c BSP\STM32F2xx\src\stm32f2xx_adc.o
 .text.ADC_RegularChannelConfig
                0x00000000      0x1bc BSP\STM32F2xx\src\stm32f2xx_adc.o
 .text.ADC_SoftwareStartConv
                0x00000000       0x20 BSP\STM32F2xx\src\stm32f2xx_adc.o
 .text.ADC_GetSoftwareStartConvStatus
                0x00000000       0x38 BSP\STM32F2xx\src\stm32f2xx_adc.o
 .text.ADC_EOCOnEachRegularChannelCmd
                0x00000000       0x38 BSP\STM32F2xx\src\stm32f2xx_adc.o
 .text.ADC_ContinuousModeCmd
                0x00000000       0x38 BSP\STM32F2xx\src\stm32f2xx_adc.o
 .text.ADC_DiscModeChannelCountConfig
                0x00000000       0x4c BSP\STM32F2xx\src\stm32f2xx_adc.o
 .text.ADC_DiscModeCmd
                0x00000000       0x38 BSP\STM32F2xx\src\stm32f2xx_adc.o
 .text.ADC_GetConversionValue
                0x00000000       0x1c BSP\STM32F2xx\src\stm32f2xx_adc.o
 .text.ADC_GetMultiModeConversionValue
                0x00000000       0x18 BSP\STM32F2xx\src\stm32f2xx_adc.o
 .text.ADC_DMACmd
                0x00000000       0x38 BSP\STM32F2xx\src\stm32f2xx_adc.o
 .text.ADC_DMARequestAfterLastTransferCmd
                0x00000000       0x38 BSP\STM32F2xx\src\stm32f2xx_adc.o
 .text.ADC_MultiModeDMARequestAfterLastTransferCmd
                0x00000000       0x4c BSP\STM32F2xx\src\stm32f2xx_adc.o
 .text.ADC_InjectedChannelConfig
                0x00000000      0x144 BSP\STM32F2xx\src\stm32f2xx_adc.o
 .text.ADC_InjectedSequencerLengthConfig
                0x00000000       0x4c BSP\STM32F2xx\src\stm32f2xx_adc.o
 .text.ADC_SetInjectedOffset
                0x00000000       0x34 BSP\STM32F2xx\src\stm32f2xx_adc.o
 .text.ADC_ExternalTrigInjectedConvConfig
                0x00000000       0x38 BSP\STM32F2xx\src\stm32f2xx_adc.o
 .text.ADC_ExternalTrigInjectedConvEdgeConfig
                0x00000000       0x38 BSP\STM32F2xx\src\stm32f2xx_adc.o
 .text.ADC_SoftwareStartInjectedConv
                0x00000000       0x20 BSP\STM32F2xx\src\stm32f2xx_adc.o
 .text.ADC_GetSoftwareStartInjectedConvCmdStatus
                0x00000000       0x38 BSP\STM32F2xx\src\stm32f2xx_adc.o
 .text.ADC_AutoInjectedConvCmd
                0x00000000       0x38 BSP\STM32F2xx\src\stm32f2xx_adc.o
 .text.ADC_InjectedDiscModeCmd
                0x00000000       0x38 BSP\STM32F2xx\src\stm32f2xx_adc.o
 .text.ADC_GetInjectedConversionValue
                0x00000000       0x34 BSP\STM32F2xx\src\stm32f2xx_adc.o
 .text.ADC_ITConfig
                0x00000000       0x5c BSP\STM32F2xx\src\stm32f2xx_adc.o
 .text.ADC_GetFlagStatus
                0x00000000       0x3c BSP\STM32F2xx\src\stm32f2xx_adc.o
 .text.ADC_ClearFlag
                0x00000000       0x20 BSP\STM32F2xx\src\stm32f2xx_adc.o
 .text.ADC_GetITStatus
                0x00000000       0x70 BSP\STM32F2xx\src\stm32f2xx_adc.o
 .text.ADC_ClearITPendingBit
                0x00000000       0x30 BSP\STM32F2xx\src\stm32f2xx_adc.o
 .text          0x00000000        0x0 BSP\STM32F2xx\src\misc.o
 .data          0x00000000        0x0 BSP\STM32F2xx\src\misc.o
 .bss           0x00000000        0x0 BSP\STM32F2xx\src\misc.o
 .text.NVIC_PriorityGroupConfig
                0x00000000       0x28 BSP\STM32F2xx\src\misc.o
 .text.NVIC_Init
                0x00000000       0xe4 BSP\STM32F2xx\src\misc.o
 .text.NVIC_SetVectorTable
                0x00000000       0x2c BSP\STM32F2xx\src\misc.o
 .text.NVIC_SystemLPConfig
                0x00000000       0x58 BSP\STM32F2xx\src\misc.o
 .text.SysTick_CLKSourceConfig
                0x00000000       0x4c BSP\STM32F2xx\src\misc.o
 .text          0x00000000        0x0 BSP\OS\bsp_os.o
 .data          0x00000000        0x0 BSP\OS\bsp_os.o
 .bss           0x00000000        0x0 BSP\OS\bsp_os.o
 .text.BSP_OS_TimeDlyMs
                0x00000000       0x84 BSP\OS\bsp_os.o
 .text          0x00000000        0x0 BSP\CMSIS\Device Support\system_stm32f2xx.o
 .data          0x00000000        0x0 BSP\CMSIS\Device Support\system_stm32f2xx.o
 .bss           0x00000000        0x0 BSP\CMSIS\Device Support\system_stm32f2xx.o
 .data.SystemCoreClock
                0x00000000        0x4 BSP\CMSIS\Device Support\system_stm32f2xx.o
 .data.AHBPrescTable
                0x00000000       0x10 BSP\CMSIS\Device Support\system_stm32f2xx.o
 .text.SystemCoreClockUpdate
                0x00000000      0x174 BSP\CMSIS\Device Support\system_stm32f2xx.o
 .text          0x00000000        0x0 APP\os_app_hooks.o
 .data          0x00000000        0x0 APP\os_app_hooks.o
 .bss           0x00000000        0x0 APP\os_app_hooks.o
 .text.App_OS_SetAllHooks
                0x00000000       0xa0 APP\os_app_hooks.o
 .text.App_OS_ClrAllHooks
                0x00000000       0x84 APP\os_app_hooks.o
 .text.App_OS_TaskCreateHook
                0x00000000       0x14 APP\os_app_hooks.o
 .text.App_OS_TaskDelHook
                0x00000000       0x14 APP\os_app_hooks.o
 .text.App_OS_TaskReturnHook
                0x00000000       0x14 APP\os_app_hooks.o
 .text.App_OS_IdleTaskHook
                0x00000000        0xc APP\os_app_hooks.o
 .text.App_OS_InitHook
                0x00000000        0xc APP\os_app_hooks.o
 .text.App_OS_StatTaskHook
                0x00000000        0xc APP\os_app_hooks.o
 .text.App_OS_TaskSwHook
                0x00000000        0xc APP\os_app_hooks.o
 .text.App_OS_TimeTickHook
                0x00000000        0xc APP\os_app_hooks.o
 .text          0x00000000        0x0 APP\app.o
 .data          0x00000000        0x0 APP\app.o
 .bss           0x00000000        0x0 APP\app.o
 .text          0x00000000        0x0 c:/program files (x86)/atollic/truestudio for arm pro 3.2.0/armtools/bin/../lib/gcc/arm-atollic-eabi/4.6.2/../../../../arm-atollic-eabi/lib/thumb/armv7-m\libc.a(lib_a-init.o)
 .data          0x00000000        0x0 c:/program files (x86)/atollic/truestudio for arm pro 3.2.0/armtools/bin/../lib/gcc/arm-atollic-eabi/4.6.2/../../../../arm-atollic-eabi/lib/thumb/armv7-m\libc.a(lib_a-init.o)
 .bss           0x00000000        0x0 c:/program files (x86)/atollic/truestudio for arm pro 3.2.0/armtools/bin/../lib/gcc/arm-atollic-eabi/4.6.2/../../../../arm-atollic-eabi/lib/thumb/armv7-m\libc.a(lib_a-init.o)
 .text          0x00000000        0x0 c:/program files (x86)/atollic/truestudio for arm pro 3.2.0/armtools/bin/../lib/gcc/arm-atollic-eabi/4.6.2/../../../../arm-atollic-eabi/lib/thumb/armv7-m\libc.a(lib_a-vsnprintf.o)
 .data          0x00000000        0x0 c:/program files (x86)/atollic/truestudio for arm pro 3.2.0/armtools/bin/../lib/gcc/arm-atollic-eabi/4.6.2/../../../../arm-atollic-eabi/lib/thumb/armv7-m\libc.a(lib_a-vsnprintf.o)
 .bss           0x00000000        0x0 c:/program files (x86)/atollic/truestudio for arm pro 3.2.0/armtools/bin/../lib/gcc/arm-atollic-eabi/4.6.2/../../../../arm-atollic-eabi/lib/thumb/armv7-m\libc.a(lib_a-vsnprintf.o)
 .text          0x00000000        0x0 c:/program files (x86)/atollic/truestudio for arm pro 3.2.0/armtools/bin/../lib/gcc/arm-atollic-eabi/4.6.2/../../../../arm-atollic-eabi/lib/thumb/armv7-m\libc.a(lib_a-impure.o)
 .data          0x00000000        0x0 c:/program files (x86)/atollic/truestudio for arm pro 3.2.0/armtools/bin/../lib/gcc/arm-atollic-eabi/4.6.2/../../../../arm-atollic-eabi/lib/thumb/armv7-m\libc.a(lib_a-impure.o)
 .bss           0x00000000        0x0 c:/program files (x86)/atollic/truestudio for arm pro 3.2.0/armtools/bin/../lib/gcc/arm-atollic-eabi/4.6.2/../../../../arm-atollic-eabi/lib/thumb/armv7-m\libc.a(lib_a-impure.o)
 .rodata._global_impure_ptr
                0x00000000        0x4 c:/program files (x86)/atollic/truestudio for arm pro 3.2.0/armtools/bin/../lib/gcc/arm-atollic-eabi/4.6.2/../../../../arm-atollic-eabi/lib/thumb/armv7-m\libc.a(lib_a-impure.o)
 .text          0x00000000        0x0 c:/program files (x86)/atollic/truestudio for arm pro 3.2.0/armtools/bin/../lib/gcc/arm-atollic-eabi/4.6.2/../../../../arm-atollic-eabi/lib/thumb/armv7-m\libc.a(lib_a-svfprintf.o)
 .data          0x00000000        0x0 c:/program files (x86)/atollic/truestudio for arm pro 3.2.0/armtools/bin/../lib/gcc/arm-atollic-eabi/4.6.2/../../../../arm-atollic-eabi/lib/thumb/armv7-m\libc.a(lib_a-svfprintf.o)
 .bss           0x00000000        0x0 c:/program files (x86)/atollic/truestudio for arm pro 3.2.0/armtools/bin/../lib/gcc/arm-atollic-eabi/4.6.2/../../../../arm-atollic-eabi/lib/thumb/armv7-m\libc.a(lib_a-svfprintf.o)
 .text          0x00000000        0x0 c:/program files (x86)/atollic/truestudio for arm pro 3.2.0/armtools/bin/../lib/gcc/arm-atollic-eabi/4.6.2/../../../../arm-atollic-eabi/lib/thumb/armv7-m\libc.a(lib_a-dtoa.o)
 .data          0x00000000        0x0 c:/program files (x86)/atollic/truestudio for arm pro 3.2.0/armtools/bin/../lib/gcc/arm-atollic-eabi/4.6.2/../../../../arm-atollic-eabi/lib/thumb/armv7-m\libc.a(lib_a-dtoa.o)
 .bss           0x00000000        0x0 c:/program files (x86)/atollic/truestudio for arm pro 3.2.0/armtools/bin/../lib/gcc/arm-atollic-eabi/4.6.2/../../../../arm-atollic-eabi/lib/thumb/armv7-m\libc.a(lib_a-dtoa.o)
 .text          0x00000000        0x0 c:/program files (x86)/atollic/truestudio for arm pro 3.2.0/armtools/bin/../lib/gcc/arm-atollic-eabi/4.6.2/../../../../arm-atollic-eabi/lib/thumb/armv7-m\libc.a(lib_a-locale.o)
 .data          0x00000000        0x0 c:/program files (x86)/atollic/truestudio for arm pro 3.2.0/armtools/bin/../lib/gcc/arm-atollic-eabi/4.6.2/../../../../arm-atollic-eabi/lib/thumb/armv7-m\libc.a(lib_a-locale.o)
 .bss           0x00000000        0x0 c:/program files (x86)/atollic/truestudio for arm pro 3.2.0/armtools/bin/../lib/gcc/arm-atollic-eabi/4.6.2/../../../../arm-atollic-eabi/lib/thumb/armv7-m\libc.a(lib_a-locale.o)
 .text._setlocale_r
                0x00000000       0x44 c:/program files (x86)/atollic/truestudio for arm pro 3.2.0/armtools/bin/../lib/gcc/arm-atollic-eabi/4.6.2/../../../../arm-atollic-eabi/lib/thumb/armv7-m\libc.a(lib_a-locale.o)
 .text.__locale_charset
                0x00000000        0x8 c:/program files (x86)/atollic/truestudio for arm pro 3.2.0/armtools/bin/../lib/gcc/arm-atollic-eabi/4.6.2/../../../../arm-atollic-eabi/lib/thumb/armv7-m\libc.a(lib_a-locale.o)
 .text.__locale_mb_cur_max
                0x00000000        0xc c:/program files (x86)/atollic/truestudio for arm pro 3.2.0/armtools/bin/../lib/gcc/arm-atollic-eabi/4.6.2/../../../../arm-atollic-eabi/lib/thumb/armv7-m\libc.a(lib_a-locale.o)
 .text.__locale_msgcharset
                0x00000000        0x8 c:/program files (x86)/atollic/truestudio for arm pro 3.2.0/armtools/bin/../lib/gcc/arm-atollic-eabi/4.6.2/../../../../arm-atollic-eabi/lib/thumb/armv7-m\libc.a(lib_a-locale.o)
 .text.__locale_cjk_lang
                0x00000000        0x4 c:/program files (x86)/atollic/truestudio for arm pro 3.2.0/armtools/bin/../lib/gcc/arm-atollic-eabi/4.6.2/../../../../arm-atollic-eabi/lib/thumb/armv7-m\libc.a(lib_a-locale.o)
 .text.setlocale
                0x00000000       0x14 c:/program files (x86)/atollic/truestudio for arm pro 3.2.0/armtools/bin/../lib/gcc/arm-atollic-eabi/4.6.2/../../../../arm-atollic-eabi/lib/thumb/armv7-m\libc.a(lib_a-locale.o)
 .text.localeconv
                0x00000000        0x8 c:/program files (x86)/atollic/truestudio for arm pro 3.2.0/armtools/bin/../lib/gcc/arm-atollic-eabi/4.6.2/../../../../arm-atollic-eabi/lib/thumb/armv7-m\libc.a(lib_a-locale.o)
 .data.lc_message_charset
                0x00000000       0x20 c:/program files (x86)/atollic/truestudio for arm pro 3.2.0/armtools/bin/../lib/gcc/arm-atollic-eabi/4.6.2/../../../../arm-atollic-eabi/lib/thumb/armv7-m\libc.a(lib_a-locale.o)
 .bss._PathLocale
                0x00000000        0x4 c:/program files (x86)/atollic/truestudio for arm pro 3.2.0/armtools/bin/../lib/gcc/arm-atollic-eabi/4.6.2/../../../../arm-atollic-eabi/lib/thumb/armv7-m\libc.a(lib_a-locale.o)
 .bss.__nlocale_changed
                0x00000000        0x4 c:/program files (x86)/atollic/truestudio for arm pro 3.2.0/armtools/bin/../lib/gcc/arm-atollic-eabi/4.6.2/../../../../arm-atollic-eabi/lib/thumb/armv7-m\libc.a(lib_a-locale.o)
 .bss.__mlocale_changed
                0x00000000        0x4 c:/program files (x86)/atollic/truestudio for arm pro 3.2.0/armtools/bin/../lib/gcc/arm-atollic-eabi/4.6.2/../../../../arm-atollic-eabi/lib/thumb/armv7-m\libc.a(lib_a-locale.o)
 .data.lc_ctype_charset
                0x00000000       0x20 c:/program files (x86)/atollic/truestudio for arm pro 3.2.0/armtools/bin/../lib/gcc/arm-atollic-eabi/4.6.2/../../../../arm-atollic-eabi/lib/thumb/armv7-m\libc.a(lib_a-locale.o)
 .data.__mb_cur_max
                0x00000000        0x4 c:/program files (x86)/atollic/truestudio for arm pro 3.2.0/armtools/bin/../lib/gcc/arm-atollic-eabi/4.6.2/../../../../arm-atollic-eabi/lib/thumb/armv7-m\libc.a(lib_a-locale.o)
 .text          0x00000000        0x0 c:/program files (x86)/atollic/truestudio for arm pro 3.2.0/armtools/bin/../lib/gcc/arm-atollic-eabi/4.6.2/../../../../arm-atollic-eabi/lib/thumb/armv7-m\libc.a(lib_a-malloc.o)
 .data          0x00000000        0x0 c:/program files (x86)/atollic/truestudio for arm pro 3.2.0/armtools/bin/../lib/gcc/arm-atollic-eabi/4.6.2/../../../../arm-atollic-eabi/lib/thumb/armv7-m\libc.a(lib_a-malloc.o)
 .bss           0x00000000        0x0 c:/program files (x86)/atollic/truestudio for arm pro 3.2.0/armtools/bin/../lib/gcc/arm-atollic-eabi/4.6.2/../../../../arm-atollic-eabi/lib/thumb/armv7-m\libc.a(lib_a-malloc.o)
 .text.free     0x00000000       0x10 c:/program files (x86)/atollic/truestudio for arm pro 3.2.0/armtools/bin/../lib/gcc/arm-atollic-eabi/4.6.2/../../../../arm-atollic-eabi/lib/thumb/armv7-m\libc.a(lib_a-malloc.o)
 .text          0x00000000        0x0 c:/program files (x86)/atollic/truestudio for arm pro 3.2.0/armtools/bin/../lib/gcc/arm-atollic-eabi/4.6.2/../../../../arm-atollic-eabi/lib/thumb/armv7-m\libc.a(lib_a-mallocr.o)
 .data          0x00000000        0x0 c:/program files (x86)/atollic/truestudio for arm pro 3.2.0/armtools/bin/../lib/gcc/arm-atollic-eabi/4.6.2/../../../../arm-atollic-eabi/lib/thumb/armv7-m\libc.a(lib_a-mallocr.o)
 .bss           0x00000000        0x0 c:/program files (x86)/atollic/truestudio for arm pro 3.2.0/armtools/bin/../lib/gcc/arm-atollic-eabi/4.6.2/../../../../arm-atollic-eabi/lib/thumb/armv7-m\libc.a(lib_a-mallocr.o)
 .text          0x00000000        0x0 c:/program files (x86)/atollic/truestudio for arm pro 3.2.0/armtools/bin/../lib/gcc/arm-atollic-eabi/4.6.2/../../../../arm-atollic-eabi/lib/thumb/armv7-m\libc.a(lib_a-memchr.o)
 .data          0x00000000        0x0 c:/program files (x86)/atollic/truestudio for arm pro 3.2.0/armtools/bin/../lib/gcc/arm-atollic-eabi/4.6.2/../../../../arm-atollic-eabi/lib/thumb/armv7-m\libc.a(lib_a-memchr.o)
 .bss           0x00000000        0x0 c:/program files (x86)/atollic/truestudio for arm pro 3.2.0/armtools/bin/../lib/gcc/arm-atollic-eabi/4.6.2/../../../../arm-atollic-eabi/lib/thumb/armv7-m\libc.a(lib_a-memchr.o)
 .text          0x00000000        0x0 c:/program files (x86)/atollic/truestudio for arm pro 3.2.0/armtools/bin/../lib/gcc/arm-atollic-eabi/4.6.2/../../../../arm-atollic-eabi/lib/thumb/armv7-m\libc.a(lib_a-memcpy.o)
 .data          0x00000000        0x0 c:/program files (x86)/atollic/truestudio for arm pro 3.2.0/armtools/bin/../lib/gcc/arm-atollic-eabi/4.6.2/../../../../arm-atollic-eabi/lib/thumb/armv7-m\libc.a(lib_a-memcpy.o)
 .bss           0x00000000        0x0 c:/program files (x86)/atollic/truestudio for arm pro 3.2.0/armtools/bin/../lib/gcc/arm-atollic-eabi/4.6.2/../../../../arm-atollic-eabi/lib/thumb/armv7-m\libc.a(lib_a-memcpy.o)
 .text          0x00000000        0x0 c:/program files (x86)/atollic/truestudio for arm pro 3.2.0/armtools/bin/../lib/gcc/arm-atollic-eabi/4.6.2/../../../../arm-atollic-eabi/lib/thumb/armv7-m\libc.a(lib_a-mlock.o)
 .data          0x00000000        0x0 c:/program files (x86)/atollic/truestudio for arm pro 3.2.0/armtools/bin/../lib/gcc/arm-atollic-eabi/4.6.2/../../../../arm-atollic-eabi/lib/thumb/armv7-m\libc.a(lib_a-mlock.o)
 .bss           0x00000000        0x0 c:/program files (x86)/atollic/truestudio for arm pro 3.2.0/armtools/bin/../lib/gcc/arm-atollic-eabi/4.6.2/../../../../arm-atollic-eabi/lib/thumb/armv7-m\libc.a(lib_a-mlock.o)
 .text          0x00000000        0x0 c:/program files (x86)/atollic/truestudio for arm pro 3.2.0/armtools/bin/../lib/gcc/arm-atollic-eabi/4.6.2/../../../../arm-atollic-eabi/lib/thumb/armv7-m\libc.a(lib_a-mprec.o)
 .data          0x00000000        0x0 c:/program files (x86)/atollic/truestudio for arm pro 3.2.0/armtools/bin/../lib/gcc/arm-atollic-eabi/4.6.2/../../../../arm-atollic-eabi/lib/thumb/armv7-m\libc.a(lib_a-mprec.o)
 .bss           0x00000000        0x0 c:/program files (x86)/atollic/truestudio for arm pro 3.2.0/armtools/bin/../lib/gcc/arm-atollic-eabi/4.6.2/../../../../arm-atollic-eabi/lib/thumb/armv7-m\libc.a(lib_a-mprec.o)
 .text.__s2b    0x00000000       0x7c c:/program files (x86)/atollic/truestudio for arm pro 3.2.0/armtools/bin/../lib/gcc/arm-atollic-eabi/4.6.2/../../../../arm-atollic-eabi/lib/thumb/armv7-m\libc.a(lib_a-mprec.o)
 .text.__ulp    0x00000000       0x42 c:/program files (x86)/atollic/truestudio for arm pro 3.2.0/armtools/bin/../lib/gcc/arm-atollic-eabi/4.6.2/../../../../arm-atollic-eabi/lib/thumb/armv7-m\libc.a(lib_a-mprec.o)
 .text.__b2d    0x00000000       0xa6 c:/program files (x86)/atollic/truestudio for arm pro 3.2.0/armtools/bin/../lib/gcc/arm-atollic-eabi/4.6.2/../../../../arm-atollic-eabi/lib/thumb/armv7-m\libc.a(lib_a-mprec.o)
 .text.__ratio  0x00000000       0x46 c:/program files (x86)/atollic/truestudio for arm pro 3.2.0/armtools/bin/../lib/gcc/arm-atollic-eabi/4.6.2/../../../../arm-atollic-eabi/lib/thumb/armv7-m\libc.a(lib_a-mprec.o)
 .text._mprec_log10
                0x00000000       0x34 c:/program files (x86)/atollic/truestudio for arm pro 3.2.0/armtools/bin/../lib/gcc/arm-atollic-eabi/4.6.2/../../../../arm-atollic-eabi/lib/thumb/armv7-m\libc.a(lib_a-mprec.o)
 .text.__copybits
                0x00000000       0x34 c:/program files (x86)/atollic/truestudio for arm pro 3.2.0/armtools/bin/../lib/gcc/arm-atollic-eabi/4.6.2/../../../../arm-atollic-eabi/lib/thumb/armv7-m\libc.a(lib_a-mprec.o)
 .text.__any_on
                0x00000000       0x4a c:/program files (x86)/atollic/truestudio for arm pro 3.2.0/armtools/bin/../lib/gcc/arm-atollic-eabi/4.6.2/../../../../arm-atollic-eabi/lib/thumb/armv7-m\libc.a(lib_a-mprec.o)
 .rodata.__mprec_tinytens
                0x00000000       0x28 c:/program files (x86)/atollic/truestudio for arm pro 3.2.0/armtools/bin/../lib/gcc/arm-atollic-eabi/4.6.2/../../../../arm-atollic-eabi/lib/thumb/armv7-m\libc.a(lib_a-mprec.o)
 .text          0x00000000        0x0 c:/program files (x86)/atollic/truestudio for arm pro 3.2.0/armtools/bin/../lib/gcc/arm-atollic-eabi/4.6.2/../../../../arm-atollic-eabi/lib/thumb/armv7-m\libc.a(lib_a-s_fpclassify.o)
 .data          0x00000000        0x0 c:/program files (x86)/atollic/truestudio for arm pro 3.2.0/armtools/bin/../lib/gcc/arm-atollic-eabi/4.6.2/../../../../arm-atollic-eabi/lib/thumb/armv7-m\libc.a(lib_a-s_fpclassify.o)
 .bss           0x00000000        0x0 c:/program files (x86)/atollic/truestudio for arm pro 3.2.0/armtools/bin/../lib/gcc/arm-atollic-eabi/4.6.2/../../../../arm-atollic-eabi/lib/thumb/armv7-m\libc.a(lib_a-s_fpclassify.o)
 .text          0x00000000        0x0 c:/program files (x86)/atollic/truestudio for arm pro 3.2.0/armtools/bin/../lib/gcc/arm-atollic-eabi/4.6.2/../../../../arm-atollic-eabi/lib/thumb/armv7-m\libc.a(lib_a-sbrkr.o)
 .data          0x00000000        0x0 c:/program files (x86)/atollic/truestudio for arm pro 3.2.0/armtools/bin/../lib/gcc/arm-atollic-eabi/4.6.2/../../../../arm-atollic-eabi/lib/thumb/armv7-m\libc.a(lib_a-sbrkr.o)
 .bss           0x00000000        0x0 c:/program files (x86)/atollic/truestudio for arm pro 3.2.0/armtools/bin/../lib/gcc/arm-atollic-eabi/4.6.2/../../../../arm-atollic-eabi/lib/thumb/armv7-m\libc.a(lib_a-sbrkr.o)
 .text          0x00000000        0x0 c:/program files (x86)/atollic/truestudio for arm pro 3.2.0/armtools/bin/../lib/gcc/arm-atollic-eabi/4.6.2/../../../../arm-atollic-eabi/lib/thumb/armv7-m\libc.a(lib_a-strcmp.o)
 .data          0x00000000        0x0 c:/program files (x86)/atollic/truestudio for arm pro 3.2.0/armtools/bin/../lib/gcc/arm-atollic-eabi/4.6.2/../../../../arm-atollic-eabi/lib/thumb/armv7-m\libc.a(lib_a-strcmp.o)
 .bss           0x00000000        0x0 c:/program files (x86)/atollic/truestudio for arm pro 3.2.0/armtools/bin/../lib/gcc/arm-atollic-eabi/4.6.2/../../../../arm-atollic-eabi/lib/thumb/armv7-m\libc.a(lib_a-strcmp.o)
 .text.strcmp   0x00000000       0x16 c:/program files (x86)/atollic/truestudio for arm pro 3.2.0/armtools/bin/../lib/gcc/arm-atollic-eabi/4.6.2/../../../../arm-atollic-eabi/lib/thumb/armv7-m\libc.a(lib_a-strcmp.o)
 .text          0x00000000        0x0 c:/program files (x86)/atollic/truestudio for arm pro 3.2.0/armtools/bin/../lib/gcc/arm-atollic-eabi/4.6.2/../../../../arm-atollic-eabi/lib/thumb/armv7-m\libc.a(lib_a-strlen.o)
 .data          0x00000000        0x0 c:/program files (x86)/atollic/truestudio for arm pro 3.2.0/armtools/bin/../lib/gcc/arm-atollic-eabi/4.6.2/../../../../arm-atollic-eabi/lib/thumb/armv7-m\libc.a(lib_a-strlen.o)
 .bss           0x00000000        0x0 c:/program files (x86)/atollic/truestudio for arm pro 3.2.0/armtools/bin/../lib/gcc/arm-atollic-eabi/4.6.2/../../../../arm-atollic-eabi/lib/thumb/armv7-m\libc.a(lib_a-strlen.o)
 .text          0x00000000        0x0 c:/program files (x86)/atollic/truestudio for arm pro 3.2.0/armtools/bin/../lib/gcc/arm-atollic-eabi/4.6.2/../../../../arm-atollic-eabi/lib/thumb/armv7-m\libc.a(lib_a-svfiprintf.o)
 .data          0x00000000        0x0 c:/program files (x86)/atollic/truestudio for arm pro 3.2.0/armtools/bin/../lib/gcc/arm-atollic-eabi/4.6.2/../../../../arm-atollic-eabi/lib/thumb/armv7-m\libc.a(lib_a-svfiprintf.o)
 .bss           0x00000000        0x0 c:/program files (x86)/atollic/truestudio for arm pro 3.2.0/armtools/bin/../lib/gcc/arm-atollic-eabi/4.6.2/../../../../arm-atollic-eabi/lib/thumb/armv7-m\libc.a(lib_a-svfiprintf.o)
 .text._svfiprintf_r
                0x00000000      0x82c c:/program files (x86)/atollic/truestudio for arm pro 3.2.0/armtools/bin/../lib/gcc/arm-atollic-eabi/4.6.2/../../../../arm-atollic-eabi/lib/thumb/armv7-m\libc.a(lib_a-svfiprintf.o)
 .rodata.zeroes.6542
                0x00000000       0x10 c:/program files (x86)/atollic/truestudio for arm pro 3.2.0/armtools/bin/../lib/gcc/arm-atollic-eabi/4.6.2/../../../../arm-atollic-eabi/lib/thumb/armv7-m\libc.a(lib_a-svfiprintf.o)
 .rodata.str1.1
                0x00000000       0x22 c:/program files (x86)/atollic/truestudio for arm pro 3.2.0/armtools/bin/../lib/gcc/arm-atollic-eabi/4.6.2/../../../../arm-atollic-eabi/lib/thumb/armv7-m\libc.a(lib_a-svfiprintf.o)
 .rodata.blanks.6541
                0x00000000       0x10 c:/program files (x86)/atollic/truestudio for arm pro 3.2.0/armtools/bin/../lib/gcc/arm-atollic-eabi/4.6.2/../../../../arm-atollic-eabi/lib/thumb/armv7-m\libc.a(lib_a-svfiprintf.o)
 .text          0x00000000        0x0 c:/program files (x86)/atollic/truestudio for arm pro 3.2.0/armtools/bin/../lib/gcc/arm-atollic-eabi/4.6.2/../../../../arm-atollic-eabi/lib/thumb/armv7-m\libc.a(lib_a-syscalls.o)
 .data          0x00000000        0x0 c:/program files (x86)/atollic/truestudio for arm pro 3.2.0/armtools/bin/../lib/gcc/arm-atollic-eabi/4.6.2/../../../../arm-atollic-eabi/lib/thumb/armv7-m\libc.a(lib_a-syscalls.o)
 .bss           0x00000000        0x0 c:/program files (x86)/atollic/truestudio for arm pro 3.2.0/armtools/bin/../lib/gcc/arm-atollic-eabi/4.6.2/../../../../arm-atollic-eabi/lib/thumb/armv7-m\libc.a(lib_a-syscalls.o)
 .text.initialise_monitor_handles
                0x00000000        0x2 c:/program files (x86)/atollic/truestudio for arm pro 3.2.0/armtools/bin/../lib/gcc/arm-atollic-eabi/4.6.2/../../../../arm-atollic-eabi/lib/thumb/armv7-m\libc.a(lib_a-syscalls.o)
 .text._write   0x00000000        0x4 c:/program files (x86)/atollic/truestudio for arm pro 3.2.0/armtools/bin/../lib/gcc/arm-atollic-eabi/4.6.2/../../../../arm-atollic-eabi/lib/thumb/armv7-m\libc.a(lib_a-syscalls.o)
 .text._close   0x00000000        0x6 c:/program files (x86)/atollic/truestudio for arm pro 3.2.0/armtools/bin/../lib/gcc/arm-atollic-eabi/4.6.2/../../../../arm-atollic-eabi/lib/thumb/armv7-m\libc.a(lib_a-syscalls.o)
 .text._fstat   0x00000000        0xa c:/program files (x86)/atollic/truestudio for arm pro 3.2.0/armtools/bin/../lib/gcc/arm-atollic-eabi/4.6.2/../../../../arm-atollic-eabi/lib/thumb/armv7-m\libc.a(lib_a-syscalls.o)
 .text._isatty  0x00000000        0x4 c:/program files (x86)/atollic/truestudio for arm pro 3.2.0/armtools/bin/../lib/gcc/arm-atollic-eabi/4.6.2/../../../../arm-atollic-eabi/lib/thumb/armv7-m\libc.a(lib_a-syscalls.o)
 .text._lseek   0x00000000        0x4 c:/program files (x86)/atollic/truestudio for arm pro 3.2.0/armtools/bin/../lib/gcc/arm-atollic-eabi/4.6.2/../../../../arm-atollic-eabi/lib/thumb/armv7-m\libc.a(lib_a-syscalls.o)
 .text._read    0x00000000        0x4 c:/program files (x86)/atollic/truestudio for arm pro 3.2.0/armtools/bin/../lib/gcc/arm-atollic-eabi/4.6.2/../../../../arm-atollic-eabi/lib/thumb/armv7-m\libc.a(lib_a-syscalls.o)
 .text._open    0x00000000        0xa c:/program files (x86)/atollic/truestudio for arm pro 3.2.0/armtools/bin/../lib/gcc/arm-atollic-eabi/4.6.2/../../../../arm-atollic-eabi/lib/thumb/armv7-m\libc.a(lib_a-syscalls.o)
 .text._wait    0x00000000       0x10 c:/program files (x86)/atollic/truestudio for arm pro 3.2.0/armtools/bin/../lib/gcc/arm-atollic-eabi/4.6.2/../../../../arm-atollic-eabi/lib/thumb/armv7-m\libc.a(lib_a-syscalls.o)
 .text._unlink  0x00000000       0x10 c:/program files (x86)/atollic/truestudio for arm pro 3.2.0/armtools/bin/../lib/gcc/arm-atollic-eabi/4.6.2/../../../../arm-atollic-eabi/lib/thumb/armv7-m\libc.a(lib_a-syscalls.o)
 .text._times   0x00000000        0x6 c:/program files (x86)/atollic/truestudio for arm pro 3.2.0/armtools/bin/../lib/gcc/arm-atollic-eabi/4.6.2/../../../../arm-atollic-eabi/lib/thumb/armv7-m\libc.a(lib_a-syscalls.o)
 .text._stat    0x00000000        0xa c:/program files (x86)/atollic/truestudio for arm pro 3.2.0/armtools/bin/../lib/gcc/arm-atollic-eabi/4.6.2/../../../../arm-atollic-eabi/lib/thumb/armv7-m\libc.a(lib_a-syscalls.o)
 .text._link    0x00000000       0x10 c:/program files (x86)/atollic/truestudio for arm pro 3.2.0/armtools/bin/../lib/gcc/arm-atollic-eabi/4.6.2/../../../../arm-atollic-eabi/lib/thumb/armv7-m\libc.a(lib_a-syscalls.o)
 .text._fork    0x00000000       0x10 c:/program files (x86)/atollic/truestudio for arm pro 3.2.0/armtools/bin/../lib/gcc/arm-atollic-eabi/4.6.2/../../../../arm-atollic-eabi/lib/thumb/armv7-m\libc.a(lib_a-syscalls.o)
 .text._execve  0x00000000       0x10 c:/program files (x86)/atollic/truestudio for arm pro 3.2.0/armtools/bin/../lib/gcc/arm-atollic-eabi/4.6.2/../../../../arm-atollic-eabi/lib/thumb/armv7-m\libc.a(lib_a-syscalls.o)
 .data.environ  0x00000000        0x4 c:/program files (x86)/atollic/truestudio for arm pro 3.2.0/armtools/bin/../lib/gcc/arm-atollic-eabi/4.6.2/../../../../arm-atollic-eabi/lib/thumb/armv7-m\libc.a(lib_a-syscalls.o)
 .bss.__env     0x00000000        0x4 c:/program files (x86)/atollic/truestudio for arm pro 3.2.0/armtools/bin/../lib/gcc/arm-atollic-eabi/4.6.2/../../../../arm-atollic-eabi/lib/thumb/armv7-m\libc.a(lib_a-syscalls.o)
 .text          0x00000000        0x0 c:/program files (x86)/atollic/truestudio for arm pro 3.2.0/armtools/bin/../lib/gcc/arm-atollic-eabi/4.6.2/../../../../arm-atollic-eabi/lib/thumb/armv7-m\libc.a(lib_a-callocr.o)
 .data          0x00000000        0x0 c:/program files (x86)/atollic/truestudio for arm pro 3.2.0/armtools/bin/../lib/gcc/arm-atollic-eabi/4.6.2/../../../../arm-atollic-eabi/lib/thumb/armv7-m\libc.a(lib_a-callocr.o)
 .bss           0x00000000        0x0 c:/program files (x86)/atollic/truestudio for arm pro 3.2.0/armtools/bin/../lib/gcc/arm-atollic-eabi/4.6.2/../../../../arm-atollic-eabi/lib/thumb/armv7-m\libc.a(lib_a-callocr.o)
 .text          0x00000000        0x0 c:/program files (x86)/atollic/truestudio for arm pro 3.2.0/armtools/bin/../lib/gcc/arm-atollic-eabi/4.6.2/../../../../arm-atollic-eabi/lib/thumb/armv7-m\libc.a(lib_a-freer.o)
 .data          0x00000000        0x0 c:/program files (x86)/atollic/truestudio for arm pro 3.2.0/armtools/bin/../lib/gcc/arm-atollic-eabi/4.6.2/../../../../arm-atollic-eabi/lib/thumb/armv7-m\libc.a(lib_a-freer.o)
 .bss           0x00000000        0x0 c:/program files (x86)/atollic/truestudio for arm pro 3.2.0/armtools/bin/../lib/gcc/arm-atollic-eabi/4.6.2/../../../../arm-atollic-eabi/lib/thumb/armv7-m\libc.a(lib_a-freer.o)
 .text          0x00000000        0x0 c:/program files (x86)/atollic/truestudio for arm pro 3.2.0/armtools/bin/../lib/gcc/arm-atollic-eabi/4.6.2/../../../../arm-atollic-eabi/lib/thumb/armv7-m\libc.a(lib_a-memmove.o)
 .data          0x00000000        0x0 c:/program files (x86)/atollic/truestudio for arm pro 3.2.0/armtools/bin/../lib/gcc/arm-atollic-eabi/4.6.2/../../../../arm-atollic-eabi/lib/thumb/armv7-m\libc.a(lib_a-memmove.o)
 .bss           0x00000000        0x0 c:/program files (x86)/atollic/truestudio for arm pro 3.2.0/armtools/bin/../lib/gcc/arm-atollic-eabi/4.6.2/../../../../arm-atollic-eabi/lib/thumb/armv7-m\libc.a(lib_a-memmove.o)
 .text          0x00000000        0x0 c:/program files (x86)/atollic/truestudio for arm pro 3.2.0/armtools/bin/../lib/gcc/arm-atollic-eabi/4.6.2/../../../../arm-atollic-eabi/lib/thumb/armv7-m\libc.a(lib_a-memset.o)
 .data          0x00000000        0x0 c:/program files (x86)/atollic/truestudio for arm pro 3.2.0/armtools/bin/../lib/gcc/arm-atollic-eabi/4.6.2/../../../../arm-atollic-eabi/lib/thumb/armv7-m\libc.a(lib_a-memset.o)
 .bss           0x00000000        0x0 c:/program files (x86)/atollic/truestudio for arm pro 3.2.0/armtools/bin/../lib/gcc/arm-atollic-eabi/4.6.2/../../../../arm-atollic-eabi/lib/thumb/armv7-m\libc.a(lib_a-memset.o)
 .text          0x00000000        0x0 c:/program files (x86)/atollic/truestudio for arm pro 3.2.0/armtools/bin/../lib/gcc/arm-atollic-eabi/4.6.2/../../../../arm-atollic-eabi/lib/thumb/armv7-m\libc.a(lib_a-reallocr.o)
 .data          0x00000000        0x0 c:/program files (x86)/atollic/truestudio for arm pro 3.2.0/armtools/bin/../lib/gcc/arm-atollic-eabi/4.6.2/../../../../arm-atollic-eabi/lib/thumb/armv7-m\libc.a(lib_a-reallocr.o)
 .bss           0x00000000        0x0 c:/program files (x86)/atollic/truestudio for arm pro 3.2.0/armtools/bin/../lib/gcc/arm-atollic-eabi/4.6.2/../../../../arm-atollic-eabi/lib/thumb/armv7-m\libc.a(lib_a-reallocr.o)
 .text          0x00000000        0x0 c:/program files (x86)/atollic/truestudio for arm pro 3.2.0/armtools/bin/../lib/gcc/arm-atollic-eabi/4.6.2/../../../../arm-atollic-eabi/lib/thumb/armv7-m\libc.a(lib_a-reent.o)
 .data          0x00000000        0x0 c:/program files (x86)/atollic/truestudio for arm pro 3.2.0/armtools/bin/../lib/gcc/arm-atollic-eabi/4.6.2/../../../../arm-atollic-eabi/lib/thumb/armv7-m\libc.a(lib_a-reent.o)
 .bss           0x00000000        0x0 c:/program files (x86)/atollic/truestudio for arm pro 3.2.0/armtools/bin/../lib/gcc/arm-atollic-eabi/4.6.2/../../../../arm-atollic-eabi/lib/thumb/armv7-m\libc.a(lib_a-reent.o)
 .text.cleanup_glue
                0x00000000       0x1a c:/program files (x86)/atollic/truestudio for arm pro 3.2.0/armtools/bin/../lib/gcc/arm-atollic-eabi/4.6.2/../../../../arm-atollic-eabi/lib/thumb/armv7-m\libc.a(lib_a-reent.o)
 .text._reclaim_reent
                0x00000000       0xb4 c:/program files (x86)/atollic/truestudio for arm pro 3.2.0/armtools/bin/../lib/gcc/arm-atollic-eabi/4.6.2/../../../../arm-atollic-eabi/lib/thumb/armv7-m\libc.a(lib_a-reent.o)
 .text._wrapup_reent
                0x00000000       0x38 c:/program files (x86)/atollic/truestudio for arm pro 3.2.0/armtools/bin/../lib/gcc/arm-atollic-eabi/4.6.2/../../../../arm-atollic-eabi/lib/thumb/armv7-m\libc.a(lib_a-reent.o)
 .data          0x00000000        0x0 c:/program files (x86)/atollic/truestudio for arm pro 3.2.0/armtools/bin/../lib/gcc/arm-atollic-eabi/4.6.2/thumb/armv7-m\libgcc.a(_arm_addsubdf3.o)
 .bss           0x00000000        0x0 c:/program files (x86)/atollic/truestudio for arm pro 3.2.0/armtools/bin/../lib/gcc/arm-atollic-eabi/4.6.2/thumb/armv7-m\libgcc.a(_arm_addsubdf3.o)
 .data          0x00000000        0x0 c:/program files (x86)/atollic/truestudio for arm pro 3.2.0/armtools/bin/../lib/gcc/arm-atollic-eabi/4.6.2/thumb/armv7-m\libgcc.a(_arm_muldivdf3.o)
 .bss           0x00000000        0x0 c:/program files (x86)/atollic/truestudio for arm pro 3.2.0/armtools/bin/../lib/gcc/arm-atollic-eabi/4.6.2/thumb/armv7-m\libgcc.a(_arm_muldivdf3.o)
 .data          0x00000000        0x0 c:/program files (x86)/atollic/truestudio for arm pro 3.2.0/armtools/bin/../lib/gcc/arm-atollic-eabi/4.6.2/thumb/armv7-m\libgcc.a(_arm_cmpdf2.o)
 .bss           0x00000000        0x0 c:/program files (x86)/atollic/truestudio for arm pro 3.2.0/armtools/bin/../lib/gcc/arm-atollic-eabi/4.6.2/thumb/armv7-m\libgcc.a(_arm_cmpdf2.o)
 .data          0x00000000        0x0 c:/program files (x86)/atollic/truestudio for arm pro 3.2.0/armtools/bin/../lib/gcc/arm-atollic-eabi/4.6.2/thumb/armv7-m\libgcc.a(_arm_fixdfsi.o)
 .bss           0x00000000        0x0 c:/program files (x86)/atollic/truestudio for arm pro 3.2.0/armtools/bin/../lib/gcc/arm-atollic-eabi/4.6.2/thumb/armv7-m\libgcc.a(_arm_fixdfsi.o)
 .data          0x00000000        0x0 c:/program files (x86)/atollic/truestudio for arm pro 3.2.0/armtools/bin/../lib/gcc/arm-atollic-eabi/4.6.2/thumb/armv7-m\libgcc.a(_aeabi_uldivmod.o)
 .bss           0x00000000        0x0 c:/program files (x86)/atollic/truestudio for arm pro 3.2.0/armtools/bin/../lib/gcc/arm-atollic-eabi/4.6.2/thumb/armv7-m\libgcc.a(_aeabi_uldivmod.o)
 .data          0x00000000        0x0 c:/program files (x86)/atollic/truestudio for arm pro 3.2.0/armtools/bin/../lib/gcc/arm-atollic-eabi/4.6.2/thumb/armv7-m\libgcc.a(bpabi.o)
 .bss           0x00000000        0x0 c:/program files (x86)/atollic/truestudio for arm pro 3.2.0/armtools/bin/../lib/gcc/arm-atollic-eabi/4.6.2/thumb/armv7-m\libgcc.a(bpabi.o)
 .ARM.extab     0x00000000        0x0 c:/program files (x86)/atollic/truestudio for arm pro 3.2.0/armtools/bin/../lib/gcc/arm-atollic-eabi/4.6.2/thumb/armv7-m\libgcc.a(bpabi.o)
 .data          0x00000000        0x0 c:/program files (x86)/atollic/truestudio for arm pro 3.2.0/armtools/bin/../lib/gcc/arm-atollic-eabi/4.6.2/thumb/armv7-m\libgcc.a(unwind-arm.o)
 .bss           0x00000000        0x0 c:/program files (x86)/atollic/truestudio for arm pro 3.2.0/armtools/bin/../lib/gcc/arm-atollic-eabi/4.6.2/thumb/armv7-m\libgcc.a(unwind-arm.o)
 .data          0x00000000        0x0 c:/program files (x86)/atollic/truestudio for arm pro 3.2.0/armtools/bin/../lib/gcc/arm-atollic-eabi/4.6.2/thumb/armv7-m\libgcc.a(libunwind.o)
 .bss           0x00000000        0x0 c:/program files (x86)/atollic/truestudio for arm pro 3.2.0/armtools/bin/../lib/gcc/arm-atollic-eabi/4.6.2/thumb/armv7-m\libgcc.a(libunwind.o)
 .data          0x00000000        0x0 c:/program files (x86)/atollic/truestudio for arm pro 3.2.0/armtools/bin/../lib/gcc/arm-atollic-eabi/4.6.2/thumb/armv7-m\libgcc.a(pr-support.o)
 .bss           0x00000000        0x0 c:/program files (x86)/atollic/truestudio for arm pro 3.2.0/armtools/bin/../lib/gcc/arm-atollic-eabi/4.6.2/thumb/armv7-m\libgcc.a(pr-support.o)
 .data          0x00000000        0x0 c:/program files (x86)/atollic/truestudio for arm pro 3.2.0/armtools/bin/../lib/gcc/arm-atollic-eabi/4.6.2/thumb/armv7-m\libgcc.a(_dvmd_tls.o)
 .bss           0x00000000        0x0 c:/program files (x86)/atollic/truestudio for arm pro 3.2.0/armtools/bin/../lib/gcc/arm-atollic-eabi/4.6.2/thumb/armv7-m\libgcc.a(_dvmd_tls.o)
 .data          0x00000000        0x0 c:/program files (x86)/atollic/truestudio for arm pro 3.2.0/armtools/bin/../lib/gcc/arm-atollic-eabi/4.6.2/thumb/armv7-m\libgcc.a(_divdi3.o)
 .bss           0x00000000        0x0 c:/program files (x86)/atollic/truestudio for arm pro 3.2.0/armtools/bin/../lib/gcc/arm-atollic-eabi/4.6.2/thumb/armv7-m\libgcc.a(_divdi3.o)
 .ARM.extab     0x00000000        0x0 c:/program files (x86)/atollic/truestudio for arm pro 3.2.0/armtools/bin/../lib/gcc/arm-atollic-eabi/4.6.2/thumb/armv7-m\libgcc.a(_divdi3.o)
 .data          0x00000000        0x0 c:/program files (x86)/atollic/truestudio for arm pro 3.2.0/armtools/bin/../lib/gcc/arm-atollic-eabi/4.6.2/thumb/armv7-m\libgcc.a(_udivdi3.o)
 .bss           0x00000000        0x0 c:/program files (x86)/atollic/truestudio for arm pro 3.2.0/armtools/bin/../lib/gcc/arm-atollic-eabi/4.6.2/thumb/armv7-m\libgcc.a(_udivdi3.o)
 .ARM.extab     0x00000000        0x0 c:/program files (x86)/atollic/truestudio for arm pro 3.2.0/armtools/bin/../lib/gcc/arm-atollic-eabi/4.6.2/thumb/armv7-m\libgcc.a(_udivdi3.o)
 .text          0x00000000        0x0 c:/program files (x86)/atollic/truestudio for arm pro 3.2.0/armtools/bin/../lib/gcc/arm-atollic-eabi/4.6.2/../../../../arm-atollic-eabi/lib/thumb/armv7-m\libc.a(lib_a-abort.o)
 .data          0x00000000        0x0 c:/program files (x86)/atollic/truestudio for arm pro 3.2.0/armtools/bin/../lib/gcc/arm-atollic-eabi/4.6.2/../../../../arm-atollic-eabi/lib/thumb/armv7-m\libc.a(lib_a-abort.o)
 .bss           0x00000000        0x0 c:/program files (x86)/atollic/truestudio for arm pro 3.2.0/armtools/bin/../lib/gcc/arm-atollic-eabi/4.6.2/../../../../arm-atollic-eabi/lib/thumb/armv7-m\libc.a(lib_a-abort.o)
 .text          0x00000000        0x0 c:/program files (x86)/atollic/truestudio for arm pro 3.2.0/armtools/bin/../lib/gcc/arm-atollic-eabi/4.6.2/../../../../arm-atollic-eabi/lib/thumb/armv7-m\libc.a(lib_a-signal.o)
 .data          0x00000000        0x0 c:/program files (x86)/atollic/truestudio for arm pro 3.2.0/armtools/bin/../lib/gcc/arm-atollic-eabi/4.6.2/../../../../arm-atollic-eabi/lib/thumb/armv7-m\libc.a(lib_a-signal.o)
 .bss           0x00000000        0x0 c:/program files (x86)/atollic/truestudio for arm pro 3.2.0/armtools/bin/../lib/gcc/arm-atollic-eabi/4.6.2/../../../../arm-atollic-eabi/lib/thumb/armv7-m\libc.a(lib_a-signal.o)
 .text._init_signal_r
                0x00000000       0x28 c:/program files (x86)/atollic/truestudio for arm pro 3.2.0/armtools/bin/../lib/gcc/arm-atollic-eabi/4.6.2/../../../../arm-atollic-eabi/lib/thumb/armv7-m\libc.a(lib_a-signal.o)
 .text._signal_r
                0x00000000       0x32 c:/program files (x86)/atollic/truestudio for arm pro 3.2.0/armtools/bin/../lib/gcc/arm-atollic-eabi/4.6.2/../../../../arm-atollic-eabi/lib/thumb/armv7-m\libc.a(lib_a-signal.o)
 .text.__sigtramp_r
                0x00000000       0x44 c:/program files (x86)/atollic/truestudio for arm pro 3.2.0/armtools/bin/../lib/gcc/arm-atollic-eabi/4.6.2/../../../../arm-atollic-eabi/lib/thumb/armv7-m\libc.a(lib_a-signal.o)
 .text.signal   0x00000000       0x14 c:/program files (x86)/atollic/truestudio for arm pro 3.2.0/armtools/bin/../lib/gcc/arm-atollic-eabi/4.6.2/../../../../arm-atollic-eabi/lib/thumb/armv7-m\libc.a(lib_a-signal.o)
 .text._init_signal
                0x00000000        0xc c:/program files (x86)/atollic/truestudio for arm pro 3.2.0/armtools/bin/../lib/gcc/arm-atollic-eabi/4.6.2/../../../../arm-atollic-eabi/lib/thumb/armv7-m\libc.a(lib_a-signal.o)
 .text.__sigtramp
                0x00000000       0x10 c:/program files (x86)/atollic/truestudio for arm pro 3.2.0/armtools/bin/../lib/gcc/arm-atollic-eabi/4.6.2/../../../../arm-atollic-eabi/lib/thumb/armv7-m\libc.a(lib_a-signal.o)
 .text          0x00000000        0x0 c:/program files (x86)/atollic/truestudio for arm pro 3.2.0/armtools/bin/../lib/gcc/arm-atollic-eabi/4.6.2/../../../../arm-atollic-eabi/lib/thumb/armv7-m\libc.a(lib_a-signalr.o)
 .data          0x00000000        0x0 c:/program files (x86)/atollic/truestudio for arm pro 3.2.0/armtools/bin/../lib/gcc/arm-atollic-eabi/4.6.2/../../../../arm-atollic-eabi/lib/thumb/armv7-m\libc.a(lib_a-signalr.o)
 .bss           0x00000000        0x0 c:/program files (x86)/atollic/truestudio for arm pro 3.2.0/armtools/bin/../lib/gcc/arm-atollic-eabi/4.6.2/../../../../arm-atollic-eabi/lib/thumb/armv7-m\libc.a(lib_a-signalr.o)
 .text          0x00000000        0x0 c:/program files (x86)/atollic/truestudio for arm pro 3.2.0/armtools/bin/../lib/gcc/arm-atollic-eabi/4.6.2/thumb/armv7-m/crtend.o
 .data          0x00000000        0x0 c:/program files (x86)/atollic/truestudio for arm pro 3.2.0/armtools/bin/../lib/gcc/arm-atollic-eabi/4.6.2/thumb/armv7-m/crtend.o
 .bss           0x00000000        0x0 c:/program files (x86)/atollic/truestudio for arm pro 3.2.0/armtools/bin/../lib/gcc/arm-atollic-eabi/4.6.2/thumb/armv7-m/crtend.o
 .eh_frame      0x00000000        0x4 c:/program files (x86)/atollic/truestudio for arm pro 3.2.0/armtools/bin/../lib/gcc/arm-atollic-eabi/4.6.2/thumb/armv7-m/crtend.o
 .jcr           0x00000000        0x4 c:/program files (x86)/atollic/truestudio for arm pro 3.2.0/armtools/bin/../lib/gcc/arm-atollic-eabi/4.6.2/thumb/armv7-m/crtend.o
 .text          0x00000000        0x0 c:/program files (x86)/atollic/truestudio for arm pro 3.2.0/armtools/bin/../lib/gcc/arm-atollic-eabi/4.6.2/thumb/armv7-m/crtn.o
 .data          0x00000000        0x0 c:/program files (x86)/atollic/truestudio for arm pro 3.2.0/armtools/bin/../lib/gcc/arm-atollic-eabi/4.6.2/thumb/armv7-m/crtn.o
 .bss           0x00000000        0x0 c:/program files (x86)/atollic/truestudio for arm pro 3.2.0/armtools/bin/../lib/gcc/arm-atollic-eabi/4.6.2/thumb/armv7-m/crtn.o

Memory Configuration

Name             Origin             Length             Attributes
FLASH            0x08000000         0x00100000         xr
RAM              0x20000000         0x0001c000         xrw
MEMORY_B1        0x60000000         0x00000000         xr
*default*        0x00000000         0xffffffff

Linker script and memory map

LOAD c:/program files (x86)/atollic/truestudio for arm pro 3.2.0/armtools/bin/../lib/gcc/arm-atollic-eabi/4.6.2/thumb/armv7-m/crti.o
LOAD c:/program files (x86)/atollic/truestudio for arm pro 3.2.0/armtools/bin/../lib/gcc/arm-atollic-eabi/4.6.2/thumb/armv7-m/crtbegin.o
LOAD uCOS-III\Source\os_var.o
LOAD uCOS-III\Source\os_tmr.o
LOAD uCOS-III\Source\os_time.o
LOAD uCOS-III\Source\os_tick.o
LOAD uCOS-III\Source\os_task.o
LOAD uCOS-III\Source\os_stat.o
LOAD uCOS-III\Source\os_sem.o
LOAD uCOS-III\Source\os_q.o
LOAD uCOS-III\Source\os_prio.o
LOAD uCOS-III\Source\os_pend_multi.o
LOAD uCOS-III\Source\os_mutex.o
LOAD uCOS-III\Source\os_msg.o
LOAD uCOS-III\Source\os_mem.o
LOAD uCOS-III\Source\os_int.o
LOAD uCOS-III\Source\os_flag.o
LOAD uCOS-III\Source\os_dbg.o
LOAD uCOS-III\Source\os_core.o
LOAD uCOS-III\Source\os_cfg_app.o
LOAD uCOS-III\Ports\ARM-Cortex-M3\Generic\GNU\os_cpu_c.o
LOAD uCOS-III\Ports\ARM-Cortex-M3\Generic\GNU\os_cpu_a.o
LOAD uC-LIB\lib_str.o
LOAD uC-LIB\lib_mem.o
LOAD uC-LIB\lib_math.o
LOAD uC-LIB\lib_ascii.o
LOAD uC-CPU\cpu_core.o
LOAD uC-CPU\ARM-Cortex-M3\GNU\cpu_c.o
LOAD uC-CPU\ARM-Cortex-M3\GNU\cpu_a.o
LOAD BSP\cstartup.o
LOAD BSP\bsp_ser.o
LOAD BSP\bsp_lcd.o
LOAD BSP\bsp_ioe.o
LOAD BSP\bsp_int.o
LOAD BSP\bsp.o
LOAD BSP\STM32F2xx\src\stm32f2xx_wwdg.o
LOAD BSP\STM32F2xx\src\stm32f2xx_usart.o
LOAD BSP\STM32F2xx\src\stm32f2xx_tim.o
LOAD BSP\STM32F2xx\src\stm32f2xx_syscfg.o
LOAD BSP\STM32F2xx\src\stm32f2xx_spi.o
LOAD BSP\STM32F2xx\src\stm32f2xx_sdio.o
LOAD BSP\STM32F2xx\src\stm32f2xx_rtc.o
LOAD BSP\STM32F2xx\src\stm32f2xx_rng.o
LOAD BSP\STM32F2xx\src\stm32f2xx_rcc.o
LOAD BSP\STM32F2xx\src\stm32f2xx_pwr.o
LOAD BSP\STM32F2xx\src\stm32f2xx_iwdg.o
LOAD BSP\STM32F2xx\src\stm32f2xx_i2c.o
LOAD BSP\STM32F2xx\src\stm32f2xx_hash_sha1.o
LOAD BSP\STM32F2xx\src\stm32f2xx_hash_md5.o
LOAD BSP\STM32F2xx\src\stm32f2xx_hash.o
LOAD BSP\STM32F2xx\src\stm32f2xx_gpio.o
LOAD BSP\STM32F2xx\src\stm32f2xx_fsmc.o
LOAD BSP\STM32F2xx\src\stm32f2xx_flash.o
LOAD BSP\STM32F2xx\src\stm32f2xx_exti.o
LOAD BSP\STM32F2xx\src\stm32f2xx_dma.o
LOAD BSP\STM32F2xx\src\stm32f2xx_dcmi.o
LOAD BSP\STM32F2xx\src\stm32f2xx_dbgmcu.o
LOAD BSP\STM32F2xx\src\stm32f2xx_dac.o
LOAD BSP\STM32F2xx\src\stm32f2xx_cryp_tdes.o
LOAD BSP\STM32F2xx\src\stm32f2xx_cryp_des.o
LOAD BSP\STM32F2xx\src\stm32f2xx_cryp_aes.o
LOAD BSP\STM32F2xx\src\stm32f2xx_cryp.o
LOAD BSP\STM32F2xx\src\stm32f2xx_crc.o
LOAD BSP\STM32F2xx\src\stm32f2xx_can.o
LOAD BSP\STM32F2xx\src\stm32f2xx_adc.o
LOAD BSP\STM32F2xx\src\misc.o
LOAD BSP\OS\bsp_os.o
LOAD BSP\CMSIS\Device Support\system_stm32f2xx.o
LOAD APP\os_app_hooks.o
LOAD APP\app.o
                0x00001000                malloc_getpagesize_P = 0x1000
START GROUP
LOAD c:/program files (x86)/atollic/truestudio for arm pro 3.2.0/armtools/bin/../lib/gcc/arm-atollic-eabi/4.6.2/thumb/armv7-m\libgcc.a
LOAD c:/program files (x86)/atollic/truestudio for arm pro 3.2.0/armtools/bin/../lib/gcc/arm-atollic-eabi/4.6.2/../../../../arm-atollic-eabi/lib/thumb/armv7-m\libc.a
END GROUP
LOAD c:/program files (x86)/atollic/truestudio for arm pro 3.2.0/armtools/bin/../lib/gcc/arm-atollic-eabi/4.6.2/thumb/armv7-m/crtend.o
LOAD c:/program files (x86)/atollic/truestudio for arm pro 3.2.0/armtools/bin/../lib/gcc/arm-atollic-eabi/4.6.2/thumb/armv7-m/crtn.o
                0x2001c000                _estack = 0x2001c000
                0x00000000                _Min_Heap_Size = 0x0
                0x00000400                _Min_Stack_Size = 0x400

.isr_vector     0x08000000      0x184
                0x08000000                . = ALIGN (0x4)
 *(.isr_vector)
 .isr_vector    0x08000000      0x184 BSP\cstartup.o
                0x08000000                g_pfnVectors
                0x08000184                . = ALIGN (0x4)

.text           0x08000188     0xb480
                0x08000188                . = ALIGN (0x4)
 *(.text)
 .text          0x08000188       0x54 c:/program files (x86)/atollic/truestudio for arm pro 3.2.0/armtools/bin/../lib/gcc/arm-atollic-eabi/4.6.2/thumb/armv7-m/crtbegin.o
 .text          0x080001dc       0x88 uCOS-III\Ports\ARM-Cortex-M3\Generic\GNU\os_cpu_a.o
                0x080001dc                OSStartHighRdy
                0x080001fa                OS_CPU_PendSVHandler
 .text          0x08000264       0x34 uC-CPU\ARM-Cortex-M3\GNU\cpu_a.o
                0x08000264                CPU_IntDis
                0x08000268                CPU_IntEn
                0x0800026c                CPU_SR_Save
                0x08000274                CPU_SR_Restore
                0x0800027a                CPU_WaitForInt
                0x0800027e                CPU_WaitForExcept
                0x08000282                CPU_CntLeadZeros
                0x08000288                CPU_CntTrailZeros
                0x08000292                CPU_RevBits
 .text          0x08000298      0x370 c:/program files (x86)/atollic/truestudio for arm pro 3.2.0/armtools/bin/../lib/gcc/arm-atollic-eabi/4.6.2/thumb/armv7-m\libgcc.a(_arm_addsubdf3.o)
                0x08000298                __aeabi_drsub
                0x080002a0                __aeabi_dsub
                0x080002a0                __subdf3
                0x080002a4                __aeabi_dadd
                0x080002a4                __adddf3
                0x0800051c                __floatunsidf
                0x0800051c                __aeabi_ui2d
                0x0800053c                __floatsidf
                0x0800053c                __aeabi_i2d
                0x08000560                __aeabi_f2d
                0x08000560                __extendsfdf2
                0x0800059c                __floatundidf
                0x0800059c                __aeabi_ul2d
                0x080005ac                __floatdidf
                0x080005ac                __aeabi_l2d
 .text          0x08000608      0x424 c:/program files (x86)/atollic/truestudio for arm pro 3.2.0/armtools/bin/../lib/gcc/arm-atollic-eabi/4.6.2/thumb/armv7-m\libgcc.a(_arm_muldivdf3.o)
                0x08000608                __aeabi_dmul
                0x08000608                __muldf3
                0x0800085c                __divdf3
                0x0800085c                __aeabi_ddiv
 .text          0x08000a2c      0x110 c:/program files (x86)/atollic/truestudio for arm pro 3.2.0/armtools/bin/../lib/gcc/arm-atollic-eabi/4.6.2/thumb/armv7-m\libgcc.a(_arm_cmpdf2.o)
                0x08000a2c                __gtdf2
                0x08000a2c                __gedf2
                0x08000a34                __ltdf2
                0x08000a34                __ledf2
                0x08000a3c                __nedf2
                0x08000a3c                __eqdf2
                0x08000a3c                __cmpdf2
                0x08000ab8                __aeabi_cdrcmple
                0x08000ac8                __aeabi_cdcmpeq
                0x08000ac8                __aeabi_cdcmple
                0x08000ad8                __aeabi_dcmpeq
                0x08000aec                __aeabi_dcmplt
                0x08000b00                __aeabi_dcmple
                0x08000b14                __aeabi_dcmpge
                0x08000b28                __aeabi_dcmpgt
 .text          0x08000b3c       0x50 c:/program files (x86)/atollic/truestudio for arm pro 3.2.0/armtools/bin/../lib/gcc/arm-atollic-eabi/4.6.2/thumb/armv7-m\libgcc.a(_arm_fixdfsi.o)
                0x08000b3c                __aeabi_d2iz
                0x08000b3c                __fixdfsi
 .text          0x08000b8c       0x2c c:/program files (x86)/atollic/truestudio for arm pro 3.2.0/armtools/bin/../lib/gcc/arm-atollic-eabi/4.6.2/thumb/armv7-m\libgcc.a(_aeabi_uldivmod.o)
                0x08000b8c                __aeabi_uldivmod
 .text          0x08000bb8       0x5c c:/program files (x86)/atollic/truestudio for arm pro 3.2.0/armtools/bin/../lib/gcc/arm-atollic-eabi/4.6.2/thumb/armv7-m\libgcc.a(bpabi.o)
                0x08000bb8                __gnu_ldivmod_helper
                0x08000be8                __gnu_uldivmod_helper
 .text          0x08000c14      0xb4c c:/program files (x86)/atollic/truestudio for arm pro 3.2.0/armtools/bin/../lib/gcc/arm-atollic-eabi/4.6.2/thumb/armv7-m\libgcc.a(unwind-arm.o)
                0x08000ebc                _Unwind_VRS_Get
                0x08000efc                _Unwind_VRS_Set
                0x08001254                __aeabi_unwind_cpp_pr2
                0x08001258                __aeabi_unwind_cpp_pr1
                0x0800125c                __aeabi_unwind_cpp_pr0
                0x08001260                _Unwind_VRS_Pop
                0x08001614                _Unwind_GetCFA
                0x08001618                __gnu_Unwind_RaiseException
                0x08001678                __gnu_Unwind_ForcedUnwind
                0x0800168c                __gnu_Unwind_Resume
                0x080016c8                __gnu_Unwind_Resume_or_Rethrow
                0x080016d8                _Unwind_Complete
                0x080016dc                _Unwind_DeleteException
                0x080016ec                __gnu_Unwind_Backtrace
 .text          0x08001760      0x1ac c:/program files (x86)/atollic/truestudio for arm pro 3.2.0/armtools/bin/../lib/gcc/arm-atollic-eabi/4.6.2/thumb/armv7-m\libgcc.a(libunwind.o)
                0x08001760                __restore_core_regs
                0x08001760                restore_core_regs
                0x08001778                __gnu_Unwind_Restore_VFP
                0x08001780                __gnu_Unwind_Save_VFP
                0x08001788                __gnu_Unwind_Restore_VFP_D
                0x08001790                __gnu_Unwind_Save_VFP_D
                0x08001798                __gnu_Unwind_Restore_VFP_D_16_to_31
                0x080017a0                __gnu_Unwind_Save_VFP_D_16_to_31
                0x080017a8                __gnu_Unwind_Restore_WMMXD
                0x080017ec                __gnu_Unwind_Save_WMMXD
                0x08001830                __gnu_Unwind_Restore_WMMXC
                0x08001844                __gnu_Unwind_Save_WMMXC
                0x08001858                ___Unwind_RaiseException
                0x08001858                _Unwind_RaiseException
                0x0800187c                _Unwind_Resume
                0x0800187c                ___Unwind_Resume
                0x080018a0                _Unwind_Resume_or_Rethrow
                0x080018a0                ___Unwind_Resume_or_Rethrow
                0x080018c4                _Unwind_ForcedUnwind
                0x080018c4                ___Unwind_ForcedUnwind
                0x080018e8                ___Unwind_Backtrace
                0x080018e8                _Unwind_Backtrace
 .text          0x0800190c      0x374 c:/program files (x86)/atollic/truestudio for arm pro 3.2.0/armtools/bin/../lib/gcc/arm-atollic-eabi/4.6.2/thumb/armv7-m\libgcc.a(pr-support.o)
                0x08001960                __gnu_unwind_execute
                0x08001c28                __gnu_unwind_frame
                0x08001c50                _Unwind_GetRegionStart
                0x08001c5c                _Unwind_GetLanguageSpecificData
                0x08001c70                _Unwind_GetDataRelBase
                0x08001c78                _Unwind_GetTextRelBase
 .text          0x08001c80        0x4 c:/program files (x86)/atollic/truestudio for arm pro 3.2.0/armtools/bin/../lib/gcc/arm-atollic-eabi/4.6.2/thumb/armv7-m\libgcc.a(_dvmd_tls.o)
                0x08001c80                __aeabi_idiv0
                0x08001c80                __aeabi_ldiv0
 .text          0x08001c84      0x2c0 c:/program files (x86)/atollic/truestudio for arm pro 3.2.0/armtools/bin/../lib/gcc/arm-atollic-eabi/4.6.2/thumb/armv7-m\libgcc.a(_divdi3.o)
                0x08001c84                __divdi3
 .text          0x08001f44      0x28c c:/program files (x86)/atollic/truestudio for arm pro 3.2.0/armtools/bin/../lib/gcc/arm-atollic-eabi/4.6.2/thumb/armv7-m\libgcc.a(_udivdi3.o)
                0x08001f44                __udivdi3
 *(.text*)
 .text.OS_TmrInit
                0x080021d0      0x1ac uCOS-III\Source\os_tmr.o
                0x080021d0                OS_TmrInit
 .text.OS_TmrLink
                0x0800237c      0x19c uCOS-III\Source\os_tmr.o
                0x0800237c                OS_TmrLink
 .text.OS_TmrResetPeak
                0x08002518       0x4c uCOS-III\Source\os_tmr.o
                0x08002518                OS_TmrResetPeak
 .text.OS_TmrUnlink
                0x08002564       0xac uCOS-III\Source\os_tmr.o
                0x08002564                OS_TmrUnlink
 .text.OS_TmrTask
                0x08002610      0x13c uCOS-III\Source\os_tmr.o
                0x08002610                OS_TmrTask
 .text.OSTimeDly
                0x0800274c      0x100 uCOS-III\Source\os_time.o
                0x0800274c                OSTimeDly
 .text.OSTimeDlyHMSM
                0x0800284c      0x234 uCOS-III\Source\os_time.o
                0x0800284c                OSTimeDlyHMSM
 .text.OSTimeTick
                0x08002a80       0xa4 uCOS-III\Source\os_time.o
                0x08002a80                OSTimeTick
 .text.OS_TickTask
                0x08002b24       0x3c uCOS-III\Source\os_tick.o
                0x08002b24                OS_TickTask
 .text.OS_TickTaskInit
                0x08002b60       0xf0 uCOS-III\Source\os_tick.o
                0x08002b60                OS_TickTaskInit
 .text.OS_TickListInit
                0x08002c50       0x5c uCOS-III\Source\os_tick.o
                0x08002c50                OS_TickListInit
 .text.OS_TickListInsert
                0x08002cac      0x23c uCOS-III\Source\os_tick.o
                0x08002cac                OS_TickListInsert
 .text.OS_TickListRemove
                0x08002ee8       0x98 uCOS-III\Source\os_tick.o
                0x08002ee8                OS_TickListRemove
 .text.OS_TickListResetPeak
                0x08002f80       0x4c uCOS-III\Source\os_tick.o
                0x08002f80                OS_TickListResetPeak
 .text.OS_TickListUpdate
                0x08002fcc      0x26c uCOS-III\Source\os_tick.o
                0x08002fcc                OS_TickListUpdate
 .text.OSTaskCreate
                0x08003238      0x248 uCOS-III\Source\os_task.o
                0x08003238                OSTaskCreate
 .text.OSTaskSemPend
                0x08003480      0x278 uCOS-III\Source\os_task.o
                0x08003480                OSTaskSemPend
 .text.OSTaskSemPost
                0x080036f8       0x50 uCOS-III\Source\os_task.o
                0x080036f8                OSTaskSemPost
 .text.OSTaskStkChk
                0x08003748      0x108 uCOS-III\Source\os_task.o
                0x08003748                OSTaskStkChk
 .text.OS_TaskDbgListAdd
                0x08003850       0x64 uCOS-III\Source\os_task.o
                0x08003850                OS_TaskDbgListAdd
 .text.OS_TaskInit
                0x080038b4       0x44 uCOS-III\Source\os_task.o
                0x080038b4                OS_TaskInit
 .text.OS_TaskInitTCB
                0x080038f8      0x210 uCOS-III\Source\os_task.o
                0x080038f8                OS_TaskInitTCB
 .text.OS_TaskReturn
                0x08003b08       0x34 uCOS-III\Source\os_task.o
                0x08003b08                OS_TaskReturn
 .text.OS_TaskSemPost
                0x08003b3c      0x134 uCOS-III\Source\os_task.o
                0x08003b3c                OS_TaskSemPost
 .text.OSStatReset
                0x08003c70      0x170 uCOS-III\Source\os_stat.o
                0x08003c70                OSStatReset
 .text.OS_StatTask
                0x08003de0      0x404 uCOS-III\Source\os_stat.o
                0x08003de0                OS_StatTask
 .text.OS_StatTaskInit
                0x080041e4      0x114 uCOS-III\Source\os_stat.o
                0x080041e4                OS_StatTaskInit
 .text.OSSemCreate
                0x080042f8       0xa8 uCOS-III\Source\os_sem.o
                0x080042f8                OSSemCreate
 .text.OSSemPend
                0x080043a0      0x204 uCOS-III\Source\os_sem.o
                0x080043a0                OSSemPend
 .text.OSSemPost
                0x080045a4       0x98 uCOS-III\Source\os_sem.o
                0x080045a4                OSSemPost
 .text.OS_SemDbgListAdd
                0x0800463c       0x68 uCOS-III\Source\os_sem.o
                0x0800463c                OS_SemDbgListAdd
 .text.OS_SemInit
                0x080046a4       0x38 uCOS-III\Source\os_sem.o
                0x080046a4                OS_SemInit
 .text.OS_SemPost
                0x080046dc       0xf8 uCOS-III\Source\os_sem.o
                0x080046dc                OS_SemPost
 .text.OS_QInit
                0x080047d4       0x38 uCOS-III\Source\os_q.o
                0x080047d4                OS_QInit
 .text.OS_PrioInit
                0x0800480c       0x38 uCOS-III\Source\os_prio.o
                0x0800480c                OS_PrioInit
 .text.OS_PrioGetHighest
                0x08004844       0x50 uCOS-III\Source\os_prio.o
                0x08004844                OS_PrioGetHighest
 .text.OS_PrioInsert
                0x08004894       0x58 uCOS-III\Source\os_prio.o
                0x08004894                OS_PrioInsert
 .text.OS_PrioRemove
                0x080048ec       0x5c uCOS-III\Source\os_prio.o
                0x080048ec                OS_PrioRemove
 .text.OS_MutexInit
                0x08004948       0x38 uCOS-III\Source\os_mutex.o
                0x08004948                OS_MutexInit
 .text.OS_MsgPoolInit
                0x08004980      0x124 uCOS-III\Source\os_msg.o
                0x08004980                OS_MsgPoolInit
 .text.OS_MsgQInit
                0x08004aa4       0x3c uCOS-III\Source\os_msg.o
                0x08004aa4                OS_MsgQInit
 .text.OS_MemInit
                0x08004ae0       0x38 uCOS-III\Source\os_mem.o
                0x08004ae0                OS_MemInit
 .text.OS_FlagInit
                0x08004b18       0x38 uCOS-III\Source\os_flag.o
                0x08004b18                OS_FlagInit
 .text.OS_Dbg_Init
                0x08004b50      0x2cc uCOS-III\Source\os_dbg.o
                0x08004b50                OS_Dbg_Init
 .text.OSInit   0x08004e1c      0x274 uCOS-III\Source\os_core.o
                0x08004e1c                OSInit
 .text.OSIntEnter
                0x08005090       0x48 uCOS-III\Source\os_core.o
                0x08005090                OSIntEnter
 .text.OSIntExit
                0x080050d8      0x130 uCOS-III\Source\os_core.o
                0x080050d8                OSIntExit
 .text.OSSched  0x08005208       0xe4 uCOS-III\Source\os_core.o
                0x08005208                OSSched
 .text.OSSchedLock
                0x080052ec       0x94 uCOS-III\Source\os_core.o
                0x080052ec                OSSchedLock
 .text.OSSchedUnlock
                0x08005380       0xb4 uCOS-III\Source\os_core.o
                0x08005380                OSSchedUnlock
 .text.OSStart  0x08005434       0xac uCOS-III\Source\os_core.o
                0x08005434                OSStart
 .text.OS_IdleTask
                0x080054e0       0x54 uCOS-III\Source\os_core.o
                0x080054e0                OS_IdleTask
 .text.OS_IdleTaskInit
                0x08005534       0x84 uCOS-III\Source\os_core.o
                0x08005534                OS_IdleTaskInit
 .text.OS_Pend  0x080055b8       0xb4 uCOS-III\Source\os_core.o
                0x080055b8                OS_Pend
 .text.OS_PendDataInit
                0x0800566c       0x7c uCOS-III\Source\os_core.o
                0x0800566c                OS_PendDataInit
 .text.OS_PendDbgNameAdd
                0x080056e8       0x84 uCOS-III\Source\os_core.o
                0x080056e8                OS_PendDbgNameAdd
 .text.OS_PendDbgNameRemove
                0x0800576c       0x54 uCOS-III\Source\os_core.o
                0x0800576c                OS_PendDbgNameRemove
 .text.OS_PendListInit
                0x080057c0       0x2c uCOS-III\Source\os_core.o
                0x080057c0                OS_PendListInit
 .text.OS_PendListInsertPrio
                0x080057ec       0xf4 uCOS-III\Source\os_core.o
                0x080057ec                OS_PendListInsertPrio
 .text.OS_PendListRemove
                0x080058e0       0x5c uCOS-III\Source\os_core.o
                0x080058e0                OS_PendListRemove
 .text.OS_PendListRemove1
                0x0800593c       0xa0 uCOS-III\Source\os_core.o
                0x0800593c                OS_PendListRemove1
 .text.OS_Post  0x080059dc      0x11c uCOS-III\Source\os_core.o
                0x080059dc                OS_Post
 .text.OS_Post1
                0x08005af8       0x60 uCOS-III\Source\os_core.o
                0x08005af8                OS_Post1
 .text.OS_RdyListInit
                0x08005b58       0x5c uCOS-III\Source\os_core.o
                0x08005b58                OS_RdyListInit
 .text.OS_RdyListInsert
                0x08005bb4       0x40 uCOS-III\Source\os_core.o
                0x08005bb4                OS_RdyListInsert
 .text.OS_RdyListInsertHead
                0x08005bf4       0x94 uCOS-III\Source\os_core.o
                0x08005bf4                OS_RdyListInsertHead
 .text.OS_RdyListInsertTail
                0x08005c88       0x90 uCOS-III\Source\os_core.o
                0x08005c88                OS_RdyListInsertTail
 .text.OS_RdyListMoveHeadToTail
                0x08005d18       0x98 uCOS-III\Source\os_core.o
                0x08005d18                OS_RdyListMoveHeadToTail
 .text.OS_RdyListRemove
                0x08005db0       0xc8 uCOS-III\Source\os_core.o
                0x08005db0                OS_RdyListRemove
 .text.OS_SchedLockTimeMeasStart
                0x08005e78       0x24 uCOS-III\Source\os_core.o
                0x08005e78                OS_SchedLockTimeMeasStart
 .text.OS_SchedLockTimeMeasStop
                0x08005e9c       0x68 uCOS-III\Source\os_core.o
                0x08005e9c                OS_SchedLockTimeMeasStop
 .text.OS_SchedRoundRobin
                0x08005f04       0xd8 uCOS-III\Source\os_core.o
                0x08005f04                OS_SchedRoundRobin
 .text.OS_TaskBlock
                0x08005fdc       0x58 uCOS-III\Source\os_core.o
                0x08005fdc                OS_TaskBlock
 .text.OS_TaskRdy
                0x08006034       0x2c uCOS-III\Source\os_core.o
                0x08006034                OS_TaskRdy
 .text.OSCfg_Init
                0x08006060        0xc uCOS-III\Source\os_cfg_app.o
                0x08006060                OSCfg_Init
 .text.OSIdleTaskHook
                0x0800606c       0x20 uCOS-III\Ports\ARM-Cortex-M3\Generic\GNU\os_cpu_c.o
                0x0800606c                OSIdleTaskHook
 .text.OSInitHook
                0x0800608c       0x74 uCOS-III\Ports\ARM-Cortex-M3\Generic\GNU\os_cpu_c.o
                0x0800608c                OSInitHook
 .text.OSStatTaskHook
                0x08006100       0x20 uCOS-III\Ports\ARM-Cortex-M3\Generic\GNU\os_cpu_c.o
                0x08006100                OSStatTaskHook
 .text.OSTaskCreateHook
                0x08006120       0x2c uCOS-III\Ports\ARM-Cortex-M3\Generic\GNU\os_cpu_c.o
                0x08006120                OSTaskCreateHook
 .text.OSTaskReturnHook
                0x0800614c       0x2c uCOS-III\Ports\ARM-Cortex-M3\Generic\GNU\os_cpu_c.o
                0x0800614c                OSTaskReturnHook
 .text.OSTaskStkInit
                0x08006178      0x128 uCOS-III\Ports\ARM-Cortex-M3\Generic\GNU\os_cpu_c.o
                0x08006178                OSTaskStkInit
 .text.OSTaskSwHook
                0x080062a0       0xe8 uCOS-III\Ports\ARM-Cortex-M3\Generic\GNU\os_cpu_c.o
                0x080062a0                OSTaskSwHook
 .text.OSTimeTickHook
                0x08006388       0x20 uCOS-III\Ports\ARM-Cortex-M3\Generic\GNU\os_cpu_c.o
                0x08006388                OSTimeTickHook
 .text.OS_CPU_SysTickHandler
                0x080063a8       0x44 uCOS-III\Ports\ARM-Cortex-M3\Generic\GNU\os_cpu_c.o
                0x080063a8                OS_CPU_SysTickHandler
 .text.OS_CPU_SysTickInit
                0x080063ec       0x74 uCOS-III\Ports\ARM-Cortex-M3\Generic\GNU\os_cpu_c.o
                0x080063ec                OS_CPU_SysTickInit
 .text.Mem_Init
                0x08006460       0xbc uC-LIB\lib_mem.o
                0x08006460                Mem_Init
 .text.Mem_Clr  0x0800651c       0x20 uC-LIB\lib_mem.o
                0x0800651c                Mem_Clr
 .text.Mem_Set  0x0800653c       0xe4 uC-LIB\lib_mem.o
                0x0800653c                Mem_Set
 .text.CPU_Init
                0x08006620       0x10 uC-CPU\cpu_core.o
                0x08006620                CPU_Init
 .text.CPU_NameClr
                0x08006630       0x34 uC-CPU\cpu_core.o
                0x08006630                CPU_NameClr
 .text.CPU_TS_TmrFreqSet
                0x08006664       0x20 uC-CPU\cpu_core.o
                0x08006664                CPU_TS_TmrFreqSet
 .text.CPU_NameInit
                0x08006684        0xc uC-CPU\cpu_core.o
 .text.CPU_TS_Init
                0x08006690       0x18 uC-CPU\cpu_core.o
 .text.CPU_IntSrcEn
                0x080066a8      0x198 uC-CPU\ARM-Cortex-M3\GNU\cpu_c.o
                0x080066a8                CPU_IntSrcEn
 .text.Reset_Handler
                0x08006840       0x48 BSP\cstartup.o
                0x08006840                Reset_Handler
 .text.App_NMI_ISR
                0x08006888        0x2 BSP\cstartup.o
 .text.App_Fault_ISR
                0x0800688a        0x2 BSP\cstartup.o
 .text.App_MemFault_ISR
                0x0800688c        0x2 BSP\cstartup.o
 .text.App_BusFault_ISR
                0x0800688e        0x2 BSP\cstartup.o
 .text.App_UsageFault_ISR
                0x08006890        0x2 BSP\cstartup.o
 .text.App_Spurious_ISR
                0x08006892        0x2 BSP\cstartup.o
 .text.BSP_Ser_Init
                0x08006894      0x178 BSP\bsp_ser.o
                0x08006894                BSP_Ser_Init
 .text.BSP_Ser_ISR_Handler
                0x08006a0c       0x98 BSP\bsp_ser.o
 .text.BSP_Ser_Printf
                0x08006aa4       0x38 BSP\bsp_ser.o
                0x08006aa4                BSP_Ser_Printf
 .text.BSP_Ser_WrByteUnlocked
                0x08006adc       0x5c BSP\bsp_ser.o
 .text.BSP_Ser_WrStr
                0x08006b38       0x78 BSP\bsp_ser.o
                0x08006b38                BSP_Ser_WrStr
 .text.BSP_IntDisAll
                0x08006bb0        0xc BSP\bsp_int.o
                0x08006bb0                BSP_IntDisAll
 .text.BSP_IntEn
                0x08006bbc       0x28 BSP\bsp_int.o
                0x08006bbc                BSP_IntEn
 .text.BSP_IntVectSet
                0x08006be4       0x3c BSP\bsp_int.o
                0x08006be4                BSP_IntVectSet
 .text.BSP_IntHandlerWWDG
                0x08006c20       0x10 BSP\bsp_int.o
                0x08006c20                BSP_IntHandlerWWDG
 .text.BSP_IntHandlerPVD
                0x08006c30       0x10 BSP\bsp_int.o
                0x08006c30                BSP_IntHandlerPVD
 .text.BSP_IntHandlerTAMPER
                0x08006c40       0x10 BSP\bsp_int.o
                0x08006c40                BSP_IntHandlerTAMPER
 .text.BSP_IntHandlerRTC
                0x08006c50       0x10 BSP\bsp_int.o
                0x08006c50                BSP_IntHandlerRTC
 .text.BSP_IntHandlerFLASH
                0x08006c60       0x10 BSP\bsp_int.o
                0x08006c60                BSP_IntHandlerFLASH
 .text.BSP_IntHandlerRCC
                0x08006c70       0x10 BSP\bsp_int.o
                0x08006c70                BSP_IntHandlerRCC
 .text.BSP_IntHandlerEXTI0
                0x08006c80       0x10 BSP\bsp_int.o
                0x08006c80                BSP_IntHandlerEXTI0
 .text.BSP_IntHandlerEXTI1
                0x08006c90       0x10 BSP\bsp_int.o
                0x08006c90                BSP_IntHandlerEXTI1
 .text.BSP_IntHandlerEXTI2
                0x08006ca0       0x10 BSP\bsp_int.o
                0x08006ca0                BSP_IntHandlerEXTI2
 .text.BSP_IntHandlerEXTI3
                0x08006cb0       0x10 BSP\bsp_int.o
                0x08006cb0                BSP_IntHandlerEXTI3
 .text.BSP_IntHandlerEXTI4
                0x08006cc0       0x10 BSP\bsp_int.o
                0x08006cc0                BSP_IntHandlerEXTI4
 .text.BSP_IntHandlerDMA1_CH1
                0x08006cd0       0x10 BSP\bsp_int.o
                0x08006cd0                BSP_IntHandlerDMA1_CH1
 .text.BSP_IntHandlerDMA1_CH2
                0x08006ce0       0x10 BSP\bsp_int.o
                0x08006ce0                BSP_IntHandlerDMA1_CH2
 .text.BSP_IntHandlerDMA1_CH3
                0x08006cf0       0x10 BSP\bsp_int.o
                0x08006cf0                BSP_IntHandlerDMA1_CH3
 .text.BSP_IntHandlerDMA1_CH4
                0x08006d00       0x10 BSP\bsp_int.o
                0x08006d00                BSP_IntHandlerDMA1_CH4
 .text.BSP_IntHandlerDMA1_CH5
                0x08006d10       0x10 BSP\bsp_int.o
                0x08006d10                BSP_IntHandlerDMA1_CH5
 .text.BSP_IntHandlerDMA1_CH6
                0x08006d20       0x10 BSP\bsp_int.o
                0x08006d20                BSP_IntHandlerDMA1_CH6
 .text.BSP_IntHandlerDMA1_CH7
                0x08006d30       0x10 BSP\bsp_int.o
                0x08006d30                BSP_IntHandlerDMA1_CH7
 .text.BSP_IntHandlerADC1_2
                0x08006d40       0x10 BSP\bsp_int.o
                0x08006d40                BSP_IntHandlerADC1_2
 .text.BSP_IntHandlerCAN1_TX
                0x08006d50       0x10 BSP\bsp_int.o
                0x08006d50                BSP_IntHandlerCAN1_TX
 .text.BSP_IntHandlerCAN1_RX0
                0x08006d60       0x10 BSP\bsp_int.o
                0x08006d60                BSP_IntHandlerCAN1_RX0
 .text.BSP_IntHandlerCAN1_RX1
                0x08006d70       0x10 BSP\bsp_int.o
                0x08006d70                BSP_IntHandlerCAN1_RX1
 .text.BSP_IntHandlerCAN1_SCE
                0x08006d80       0x10 BSP\bsp_int.o
                0x08006d80                BSP_IntHandlerCAN1_SCE
 .text.BSP_IntHandlerEXTI9_5
                0x08006d90       0x10 BSP\bsp_int.o
                0x08006d90                BSP_IntHandlerEXTI9_5
 .text.BSP_IntHandlerTIM1_BRK
                0x08006da0       0x10 BSP\bsp_int.o
                0x08006da0                BSP_IntHandlerTIM1_BRK
 .text.BSP_IntHandlerTIM1_UP
                0x08006db0       0x10 BSP\bsp_int.o
                0x08006db0                BSP_IntHandlerTIM1_UP
 .text.BSP_IntHandlerTIM1_TRG_COM
                0x08006dc0       0x10 BSP\bsp_int.o
                0x08006dc0                BSP_IntHandlerTIM1_TRG_COM
 .text.BSP_IntHandlerTIM1_CC
                0x08006dd0       0x10 BSP\bsp_int.o
                0x08006dd0                BSP_IntHandlerTIM1_CC
 .text.BSP_IntHandlerTIM2
                0x08006de0       0x10 BSP\bsp_int.o
                0x08006de0                BSP_IntHandlerTIM2
 .text.BSP_IntHandlerTIM3
                0x08006df0       0x10 BSP\bsp_int.o
                0x08006df0                BSP_IntHandlerTIM3
 .text.BSP_IntHandlerTIM4
                0x08006e00       0x10 BSP\bsp_int.o
                0x08006e00                BSP_IntHandlerTIM4
 .text.BSP_IntHandlerI2C1_EV
                0x08006e10       0x10 BSP\bsp_int.o
                0x08006e10                BSP_IntHandlerI2C1_EV
 .text.BSP_IntHandlerI2C1_ER
                0x08006e20       0x10 BSP\bsp_int.o
                0x08006e20                BSP_IntHandlerI2C1_ER
 .text.BSP_IntHandlerI2C2_EV
                0x08006e30       0x10 BSP\bsp_int.o
                0x08006e30                BSP_IntHandlerI2C2_EV
 .text.BSP_IntHandlerI2C2_ER
                0x08006e40       0x10 BSP\bsp_int.o
                0x08006e40                BSP_IntHandlerI2C2_ER
 .text.BSP_IntHandlerSPI1
                0x08006e50       0x10 BSP\bsp_int.o
                0x08006e50                BSP_IntHandlerSPI1
 .text.BSP_IntHandlerSPI2
                0x08006e60       0x10 BSP\bsp_int.o
                0x08006e60                BSP_IntHandlerSPI2
 .text.BSP_IntHandlerUSART1
                0x08006e70       0x10 BSP\bsp_int.o
                0x08006e70                BSP_IntHandlerUSART1
 .text.BSP_IntHandlerUSART2
                0x08006e80       0x10 BSP\bsp_int.o
                0x08006e80                BSP_IntHandlerUSART2
 .text.BSP_IntHandlerUSART3
                0x08006e90       0x10 BSP\bsp_int.o
                0x08006e90                BSP_IntHandlerUSART3
 .text.BSP_IntHandlerEXTI15_10
                0x08006ea0       0x10 BSP\bsp_int.o
                0x08006ea0                BSP_IntHandlerEXTI15_10
 .text.BSP_IntHandlerRTCAlarm
                0x08006eb0       0x10 BSP\bsp_int.o
                0x08006eb0                BSP_IntHandlerRTCAlarm
 .text.BSP_IntHandlerUSBWakeUp
                0x08006ec0       0x10 BSP\bsp_int.o
                0x08006ec0                BSP_IntHandlerUSBWakeUp
 .text.BSP_IntHandlerTIM8_BRK_TIM12
                0x08006ed0       0x10 BSP\bsp_int.o
                0x08006ed0                BSP_IntHandlerTIM8_BRK_TIM12
 .text.BSP_IntHandlerTIM8_UP_TIM13
                0x08006ee0       0x10 BSP\bsp_int.o
                0x08006ee0                BSP_IntHandlerTIM8_UP_TIM13
 .text.BSP_IntHandlerTIM8_TRG_COM_TIM14
                0x08006ef0       0x10 BSP\bsp_int.o
                0x08006ef0                BSP_IntHandlerTIM8_TRG_COM_TIM14
 .text.BSP_IntHandlerTIM8_CC
                0x08006f00       0x10 BSP\bsp_int.o
                0x08006f00                BSP_IntHandlerTIM8_CC
 .text.BSP_IntHandlerDMA1_STREAM7
                0x08006f10       0x10 BSP\bsp_int.o
                0x08006f10                BSP_IntHandlerDMA1_STREAM7
 .text.BSP_IntHandlerFSMC
                0x08006f20       0x10 BSP\bsp_int.o
                0x08006f20                BSP_IntHandlerFSMC
 .text.BSP_IntHandlerSDIO
                0x08006f30       0x10 BSP\bsp_int.o
                0x08006f30                BSP_IntHandlerSDIO
 .text.BSP_IntHandlerTIM5
                0x08006f40       0x10 BSP\bsp_int.o
                0x08006f40                BSP_IntHandlerTIM5
 .text.BSP_IntHandlerSPI3
                0x08006f50       0x10 BSP\bsp_int.o
                0x08006f50                BSP_IntHandlerSPI3
 .text.BSP_IntHandlerUSART4
                0x08006f60       0x10 BSP\bsp_int.o
                0x08006f60                BSP_IntHandlerUSART4
 .text.BSP_IntHandlerUSART5
                0x08006f70       0x10 BSP\bsp_int.o
                0x08006f70                BSP_IntHandlerUSART5
 .text.BSP_IntHandlerTIM6
                0x08006f80       0x10 BSP\bsp_int.o
                0x08006f80                BSP_IntHandlerTIM6
 .text.BSP_IntHandlerTIM7
                0x08006f90       0x10 BSP\bsp_int.o
                0x08006f90                BSP_IntHandlerTIM7
 .text.BSP_IntHandlerDMA2_CH1
                0x08006fa0       0x10 BSP\bsp_int.o
                0x08006fa0                BSP_IntHandlerDMA2_CH1
 .text.BSP_IntHandlerDMA2_CH2
                0x08006fb0       0x10 BSP\bsp_int.o
                0x08006fb0                BSP_IntHandlerDMA2_CH2
 .text.BSP_IntHandlerDMA2_CH3
                0x08006fc0       0x10 BSP\bsp_int.o
                0x08006fc0                BSP_IntHandlerDMA2_CH3
 .text.BSP_IntHandlerDMA2_CH4
                0x08006fd0       0x10 BSP\bsp_int.o
                0x08006fd0                BSP_IntHandlerDMA2_CH4
 .text.BSP_IntHandlerDMA2_CH5
                0x08006fe0       0x10 BSP\bsp_int.o
                0x08006fe0                BSP_IntHandlerDMA2_CH5
 .text.BSP_IntHandlerETH
                0x08006ff0       0x10 BSP\bsp_int.o
                0x08006ff0                BSP_IntHandlerETH
 .text.BSP_IntHandlerETHWakeup
                0x08007000       0x10 BSP\bsp_int.o
                0x08007000                BSP_IntHandlerETHWakeup
 .text.BSP_IntHandlerCAN2_TX
                0x08007010       0x10 BSP\bsp_int.o
                0x08007010                BSP_IntHandlerCAN2_TX
 .text.BSP_IntHandlerCAN2_RX0
                0x08007020       0x10 BSP\bsp_int.o
                0x08007020                BSP_IntHandlerCAN2_RX0
 .text.BSP_IntHandlerCAN2_RX1
                0x08007030       0x10 BSP\bsp_int.o
                0x08007030                BSP_IntHandlerCAN2_RX1
 .text.BSP_IntHandlerCAN2_SCE
                0x08007040       0x10 BSP\bsp_int.o
                0x08007040                BSP_IntHandlerCAN2_SCE
 .text.BSP_IntHandlerOTG
                0x08007050       0x10 BSP\bsp_int.o
                0x08007050                BSP_IntHandlerOTG
 .text.BSP_IntHandlerDMA2_CH6
                0x08007060       0x10 BSP\bsp_int.o
                0x08007060                BSP_IntHandlerDMA2_CH6
 .text.BSP_IntHandlerDMA2_CH7
                0x08007070       0x10 BSP\bsp_int.o
                0x08007070                BSP_IntHandlerDMA2_CH7
 .text.BSP_IntHandlerDMA2_CH8
                0x08007080       0x10 BSP\bsp_int.o
                0x08007080                BSP_IntHandlerDMA2_CH8
 .text.BSP_IntHandlerUSART6
                0x08007090       0x10 BSP\bsp_int.o
                0x08007090                BSP_IntHandlerUSART6
 .text.BSP_IntHandlerI2C3_EV
                0x080070a0       0x10 BSP\bsp_int.o
                0x080070a0                BSP_IntHandlerI2C3_EV
 .text.BSP_IntHandlerI2C3_ER
                0x080070b0       0x10 BSP\bsp_int.o
                0x080070b0                BSP_IntHandlerI2C3_ER
 .text.BSP_IntHandlerOTG_HS_EP1_OUT
                0x080070c0       0x10 BSP\bsp_int.o
                0x080070c0                BSP_IntHandlerOTG_HS_EP1_OUT
 .text.BSP_IntHandlerOTG_HS_EP1_IN
                0x080070d0       0x10 BSP\bsp_int.o
                0x080070d0                BSP_IntHandlerOTG_HS_EP1_IN
 .text.BSP_IntHandlerOTG_HS_WKUP
                0x080070e0       0x10 BSP\bsp_int.o
                0x080070e0                BSP_IntHandlerOTG_HS_WKUP
 .text.BSP_IntHandlerOTG_HS
                0x080070f0       0x10 BSP\bsp_int.o
                0x080070f0                BSP_IntHandlerOTG_HS
 .text.BSP_IntHandlerDCMI
                0x08007100       0x10 BSP\bsp_int.o
                0x08007100                BSP_IntHandlerDCMI
 .text.BSP_IntHandlerCRYP
                0x08007110       0x10 BSP\bsp_int.o
                0x08007110                BSP_IntHandlerCRYP
 .text.BSP_IntHandlerHASH_RNG
                0x08007120       0x10 BSP\bsp_int.o
                0x08007120                BSP_IntHandlerHASH_RNG
 .text.BSP_IntHandler
                0x08007130       0x4c BSP\bsp_int.o
 .text.BSP_Init
                0x0800717c        0xc BSP\bsp.o
                0x0800717c                BSP_Init
 .text.BSP_CPU_ClkFreq
                0x08007188       0x1c BSP\bsp.o
                0x08007188                BSP_CPU_ClkFreq
 .text.BSP_CPU_TickInit
                0x080071a4       0x30 BSP\bsp.o
                0x080071a4                BSP_CPU_TickInit
 .text.BSP_LED_Init
                0x080071d4      0x140 BSP\bsp.o
 .text.BSP_LED_Toggle
                0x08007314      0x288 BSP\bsp.o
                0x08007314                BSP_LED_Toggle
 .text.CPU_TS_TmrInit
                0x0800759c       0x5c BSP\bsp.o
                0x0800759c                CPU_TS_TmrInit
 .text.CPU_TS_TmrRd
                0x080075f8       0x18 BSP\bsp.o
                0x080075f8                CPU_TS_TmrRd
 .text.USART_Init
                0x08007610      0x1ac BSP\STM32F2xx\src\stm32f2xx_usart.o
                0x08007610                USART_Init
 .text.USART_ClockInit
                0x080077bc       0x54 BSP\STM32F2xx\src\stm32f2xx_usart.o
                0x080077bc                USART_ClockInit
 .text.USART_Cmd
                0x08007810       0x40 BSP\STM32F2xx\src\stm32f2xx_usart.o
                0x08007810                USART_Cmd
 .text.USART_SendData
                0x08007850       0x28 BSP\STM32F2xx\src\stm32f2xx_usart.o
                0x08007850                USART_SendData
 .text.USART_ReceiveData
                0x08007878       0x24 BSP\STM32F2xx\src\stm32f2xx_usart.o
                0x08007878                USART_ReceiveData
 .text.USART_ITConfig
                0x0800789c       0xa4 BSP\STM32F2xx\src\stm32f2xx_usart.o
                0x0800789c                USART_ITConfig
 .text.USART_ClearITPendingBit
                0x08007940       0x44 BSP\STM32F2xx\src\stm32f2xx_usart.o
                0x08007940                USART_ClearITPendingBit
 .text.RCC_GetClocksFreq
                0x08007984      0x1d0 BSP\STM32F2xx\src\stm32f2xx_rcc.o
                0x08007984                RCC_GetClocksFreq
 .text.RCC_AHB1PeriphClockCmd
                0x08007b54       0x58 BSP\STM32F2xx\src\stm32f2xx_rcc.o
                0x08007b54                RCC_AHB1PeriphClockCmd
 .text.RCC_APB1PeriphClockCmd
                0x08007bac       0x58 BSP\STM32F2xx\src\stm32f2xx_rcc.o
                0x08007bac                RCC_APB1PeriphClockCmd
 .text.GPIO_Init
                0x08007c04      0x154 BSP\STM32F2xx\src\stm32f2xx_gpio.o
                0x08007c04                GPIO_Init
 .text.GPIO_ReadOutputData
                0x08007d58       0x1c BSP\STM32F2xx\src\stm32f2xx_gpio.o
                0x08007d58                GPIO_ReadOutputData
 .text.GPIO_SetBits
                0x08007d74       0x1c BSP\STM32F2xx\src\stm32f2xx_gpio.o
                0x08007d74                GPIO_SetBits
 .text.GPIO_ResetBits
                0x08007d90       0x1c BSP\STM32F2xx\src\stm32f2xx_gpio.o
                0x08007d90                GPIO_ResetBits
 .text.GPIO_PinAFConfig
                0x08007dac       0xac BSP\STM32F2xx\src\stm32f2xx_gpio.o
                0x08007dac                GPIO_PinAFConfig
 .text.BSP_OS_SemCreate
                0x08007e58       0x34 BSP\OS\bsp_os.o
                0x08007e58                BSP_OS_SemCreate
 .text.BSP_OS_SemWait
                0x08007e8c       0x54 BSP\OS\bsp_os.o
                0x08007e8c                BSP_OS_SemWait
 .text.BSP_OS_SemPost
                0x08007ee0       0x34 BSP\OS\bsp_os.o
                0x08007ee0                BSP_OS_SemPost
 .text.SystemInit
                0x08007f14       0x94 BSP\CMSIS\Device Support\system_stm32f2xx.o
                0x08007f14                SystemInit
 .text.SetSysClock
                0x08007fa8      0x154 BSP\CMSIS\Device Support\system_stm32f2xx.o
 .text.main     0x080080fc       0x80 APP\app.o
                0x080080fc                main
 .text.AppTaskStart
                0x0800817c       0x6c APP\app.o
 .text.AppTaskCreate
                0x080081e8        0xc APP\app.o
 .text.AppObjCreate
                0x080081f4        0xc APP\app.o
 .text.__libc_init_array
                0x08008200       0x48 c:/program files (x86)/atollic/truestudio for arm pro 3.2.0/armtools/bin/../lib/gcc/arm-atollic-eabi/4.6.2/../../../../arm-atollic-eabi/lib/thumb/armv7-m\libc.a(lib_a-init.o)
                0x08008200                __libc_init_array
 .text._vsnprintf_r
                0x08008248       0x56 c:/program files (x86)/atollic/truestudio for arm pro 3.2.0/armtools/bin/../lib/gcc/arm-atollic-eabi/4.6.2/../../../../arm-atollic-eabi/lib/thumb/armv7-m\libc.a(lib_a-vsnprintf.o)
                0x08008248                _vsnprintf_r
 *fill*         0x0800829e        0x2 00
 .text.vsnprintf
                0x080082a0       0x20 c:/program files (x86)/atollic/truestudio for arm pro 3.2.0/armtools/bin/../lib/gcc/arm-atollic-eabi/4.6.2/../../../../arm-atollic-eabi/lib/thumb/armv7-m\libc.a(lib_a-vsnprintf.o)
                0x080082a0                vsnprintf
 .text._svfprintf_r
                0x080082c0     0x102c c:/program files (x86)/atollic/truestudio for arm pro 3.2.0/armtools/bin/../lib/gcc/arm-atollic-eabi/4.6.2/../../../../arm-atollic-eabi/lib/thumb/armv7-m\libc.a(lib_a-svfprintf.o)
                0x080082c0                _svfprintf_r
 .text.quorem   0x080092ec      0x110 c:/program files (x86)/atollic/truestudio for arm pro 3.2.0/armtools/bin/../lib/gcc/arm-atollic-eabi/4.6.2/../../../../arm-atollic-eabi/lib/thumb/armv7-m\libc.a(lib_a-dtoa.o)
 *fill*         0x080093fc        0x4 00
 .text._dtoa_r  0x08009400      0xb58 c:/program files (x86)/atollic/truestudio for arm pro 3.2.0/armtools/bin/../lib/gcc/arm-atollic-eabi/4.6.2/../../../../arm-atollic-eabi/lib/thumb/armv7-m\libc.a(lib_a-dtoa.o)
                0x08009400                _dtoa_r
 .text._localeconv_r
                0x08009f58        0x8 c:/program files (x86)/atollic/truestudio for arm pro 3.2.0/armtools/bin/../lib/gcc/arm-atollic-eabi/4.6.2/../../../../arm-atollic-eabi/lib/thumb/armv7-m\libc.a(lib_a-locale.o)
                0x08009f58                _localeconv_r
 .text.malloc   0x08009f60       0x10 c:/program files (x86)/atollic/truestudio for arm pro 3.2.0/armtools/bin/../lib/gcc/arm-atollic-eabi/4.6.2/../../../../arm-atollic-eabi/lib/thumb/armv7-m\libc.a(lib_a-malloc.o)
                0x08009f60                malloc
 .text._malloc_r
                0x08009f70      0x3fc c:/program files (x86)/atollic/truestudio for arm pro 3.2.0/armtools/bin/../lib/gcc/arm-atollic-eabi/4.6.2/../../../../arm-atollic-eabi/lib/thumb/armv7-m\libc.a(lib_a-mallocr.o)
                0x08009f70                _malloc_r
 .text.memchr   0x0800a36c       0x1c c:/program files (x86)/atollic/truestudio for arm pro 3.2.0/armtools/bin/../lib/gcc/arm-atollic-eabi/4.6.2/../../../../arm-atollic-eabi/lib/thumb/armv7-m\libc.a(lib_a-memchr.o)
                0x0800a36c                memchr
 .text.memcpy   0x0800a388       0x12 c:/program files (x86)/atollic/truestudio for arm pro 3.2.0/armtools/bin/../lib/gcc/arm-atollic-eabi/4.6.2/../../../../arm-atollic-eabi/lib/thumb/armv7-m\libc.a(lib_a-memcpy.o)
                0x0800a388                memcpy
 .text.__malloc_lock
                0x0800a39a        0x2 c:/program files (x86)/atollic/truestudio for arm pro 3.2.0/armtools/bin/../lib/gcc/arm-atollic-eabi/4.6.2/../../../../arm-atollic-eabi/lib/thumb/armv7-m\libc.a(lib_a-mlock.o)
                0x0800a39a                __malloc_lock
 .text.__malloc_unlock
                0x0800a39c        0x2 c:/program files (x86)/atollic/truestudio for arm pro 3.2.0/armtools/bin/../lib/gcc/arm-atollic-eabi/4.6.2/../../../../arm-atollic-eabi/lib/thumb/armv7-m\libc.a(lib_a-mlock.o)
                0x0800a39c                __malloc_unlock
 .text._Balloc  0x0800a39e       0x62 c:/program files (x86)/atollic/truestudio for arm pro 3.2.0/armtools/bin/../lib/gcc/arm-atollic-eabi/4.6.2/../../../../arm-atollic-eabi/lib/thumb/armv7-m\libc.a(lib_a-mprec.o)
                0x0800a39e                _Balloc
 .text._Bfree   0x0800a400       0x2e c:/program files (x86)/atollic/truestudio for arm pro 3.2.0/armtools/bin/../lib/gcc/arm-atollic-eabi/4.6.2/../../../../arm-atollic-eabi/lib/thumb/armv7-m\libc.a(lib_a-mprec.o)
                0x0800a400                _Bfree
 .text.__multadd
                0x0800a42e       0x78 c:/program files (x86)/atollic/truestudio for arm pro 3.2.0/armtools/bin/../lib/gcc/arm-atollic-eabi/4.6.2/../../../../arm-atollic-eabi/lib/thumb/armv7-m\libc.a(lib_a-mprec.o)
                0x0800a42e                __multadd
 .text.__hi0bits
                0x0800a4a6       0x3e c:/program files (x86)/atollic/truestudio for arm pro 3.2.0/armtools/bin/../lib/gcc/arm-atollic-eabi/4.6.2/../../../../arm-atollic-eabi/lib/thumb/armv7-m\libc.a(lib_a-mprec.o)
                0x0800a4a6                __hi0bits
 .text.__lo0bits
                0x0800a4e4       0x5a c:/program files (x86)/atollic/truestudio for arm pro 3.2.0/armtools/bin/../lib/gcc/arm-atollic-eabi/4.6.2/../../../../arm-atollic-eabi/lib/thumb/armv7-m\libc.a(lib_a-mprec.o)
                0x0800a4e4                __lo0bits
 .text.__i2b    0x0800a53e       0x12 c:/program files (x86)/atollic/truestudio for arm pro 3.2.0/armtools/bin/../lib/gcc/arm-atollic-eabi/4.6.2/../../../../arm-atollic-eabi/lib/thumb/armv7-m\libc.a(lib_a-mprec.o)
                0x0800a53e                __i2b
 .text.__multiply
                0x0800a550      0x128 c:/program files (x86)/atollic/truestudio for arm pro 3.2.0/armtools/bin/../lib/gcc/arm-atollic-eabi/4.6.2/../../../../arm-atollic-eabi/lib/thumb/armv7-m\libc.a(lib_a-mprec.o)
                0x0800a550                __multiply
 .text.__pow5mult
                0x0800a678       0xa0 c:/program files (x86)/atollic/truestudio for arm pro 3.2.0/armtools/bin/../lib/gcc/arm-atollic-eabi/4.6.2/../../../../arm-atollic-eabi/lib/thumb/armv7-m\libc.a(lib_a-mprec.o)
                0x0800a678                __pow5mult
 .text.__lshift
                0x0800a718       0xae c:/program files (x86)/atollic/truestudio for arm pro 3.2.0/armtools/bin/../lib/gcc/arm-atollic-eabi/4.6.2/../../../../arm-atollic-eabi/lib/thumb/armv7-m\libc.a(lib_a-mprec.o)
                0x0800a718                __lshift
 .text.__mcmp   0x0800a7c6       0x3e c:/program files (x86)/atollic/truestudio for arm pro 3.2.0/armtools/bin/../lib/gcc/arm-atollic-eabi/4.6.2/../../../../arm-atollic-eabi/lib/thumb/armv7-m\libc.a(lib_a-mprec.o)
                0x0800a7c6                __mcmp
 .text.__mdiff  0x0800a804       0xc8 c:/program files (x86)/atollic/truestudio for arm pro 3.2.0/armtools/bin/../lib/gcc/arm-atollic-eabi/4.6.2/../../../../arm-atollic-eabi/lib/thumb/armv7-m\libc.a(lib_a-mprec.o)
                0x0800a804                __mdiff
 .text.__d2b    0x0800a8cc       0xbc c:/program files (x86)/atollic/truestudio for arm pro 3.2.0/armtools/bin/../lib/gcc/arm-atollic-eabi/4.6.2/../../../../arm-atollic-eabi/lib/thumb/armv7-m\libc.a(lib_a-mprec.o)
                0x0800a8cc                __d2b
 .text.__fpclassifyd
                0x0800a988       0x64 c:/program files (x86)/atollic/truestudio for arm pro 3.2.0/armtools/bin/../lib/gcc/arm-atollic-eabi/4.6.2/../../../../arm-atollic-eabi/lib/thumb/armv7-m\libc.a(lib_a-s_fpclassify.o)
                0x0800a988                __fpclassifyd
 .text._sbrk_r  0x0800a9ec       0x20 c:/program files (x86)/atollic/truestudio for arm pro 3.2.0/armtools/bin/../lib/gcc/arm-atollic-eabi/4.6.2/../../../../arm-atollic-eabi/lib/thumb/armv7-m\libc.a(lib_a-sbrkr.o)
                0x0800a9ec                _sbrk_r
 .text.strlen   0x0800aa0c       0x10 c:/program files (x86)/atollic/truestudio for arm pro 3.2.0/armtools/bin/../lib/gcc/arm-atollic-eabi/4.6.2/../../../../arm-atollic-eabi/lib/thumb/armv7-m\libc.a(lib_a-strlen.o)
                0x0800aa0c                strlen
 .text.__ssprint_r
                0x0800aa1c       0xf2 c:/program files (x86)/atollic/truestudio for arm pro 3.2.0/armtools/bin/../lib/gcc/arm-atollic-eabi/4.6.2/../../../../arm-atollic-eabi/lib/thumb/armv7-m\libc.a(lib_a-svfiprintf.o)
                0x0800aa1c                __ssprint_r
 .text._getpid  0x0800ab0e        0x4 c:/program files (x86)/atollic/truestudio for arm pro 3.2.0/armtools/bin/../lib/gcc/arm-atollic-eabi/4.6.2/../../../../arm-atollic-eabi/lib/thumb/armv7-m\libc.a(lib_a-syscalls.o)
                0x0800ab0e                _getpid
 *fill*         0x0800ab12        0x2 00
 .text._kill    0x0800ab14       0x10 c:/program files (x86)/atollic/truestudio for arm pro 3.2.0/armtools/bin/../lib/gcc/arm-atollic-eabi/4.6.2/../../../../arm-atollic-eabi/lib/thumb/armv7-m\libc.a(lib_a-syscalls.o)
                0x0800ab14                _kill
 .text._exit    0x0800ab24        0xc c:/program files (x86)/atollic/truestudio for arm pro 3.2.0/armtools/bin/../lib/gcc/arm-atollic-eabi/4.6.2/../../../../arm-atollic-eabi/lib/thumb/armv7-m\libc.a(lib_a-syscalls.o)
                0x0800ab24                _exit
 .text._sbrk    0x0800ab30       0x34 c:/program files (x86)/atollic/truestudio for arm pro 3.2.0/armtools/bin/../lib/gcc/arm-atollic-eabi/4.6.2/../../../../arm-atollic-eabi/lib/thumb/armv7-m\libc.a(lib_a-syscalls.o)
                0x0800ab30                _sbrk
 .text._calloc_r
                0x0800ab64       0x5a c:/program files (x86)/atollic/truestudio for arm pro 3.2.0/armtools/bin/../lib/gcc/arm-atollic-eabi/4.6.2/../../../../arm-atollic-eabi/lib/thumb/armv7-m\libc.a(lib_a-callocr.o)
                0x0800ab64                _calloc_r
 *fill*         0x0800abbe        0x2 00
 .text._malloc_trim_r
                0x0800abc0       0xa8 c:/program files (x86)/atollic/truestudio for arm pro 3.2.0/armtools/bin/../lib/gcc/arm-atollic-eabi/4.6.2/../../../../arm-atollic-eabi/lib/thumb/armv7-m\libc.a(lib_a-freer.o)
                0x0800abc0                _malloc_trim_r
 .text._free_r  0x0800ac68      0x16c c:/program files (x86)/atollic/truestudio for arm pro 3.2.0/armtools/bin/../lib/gcc/arm-atollic-eabi/4.6.2/../../../../arm-atollic-eabi/lib/thumb/armv7-m\libc.a(lib_a-freer.o)
                0x0800ac68                _free_r
 .text.memmove  0x0800add4       0x3a c:/program files (x86)/atollic/truestudio for arm pro 3.2.0/armtools/bin/../lib/gcc/arm-atollic-eabi/4.6.2/../../../../arm-atollic-eabi/lib/thumb/armv7-m\libc.a(lib_a-memmove.o)
                0x0800add4                memmove
 .text.memset   0x0800ae0e        0xe c:/program files (x86)/atollic/truestudio for arm pro 3.2.0/armtools/bin/../lib/gcc/arm-atollic-eabi/4.6.2/../../../../arm-atollic-eabi/lib/thumb/armv7-m\libc.a(lib_a-memset.o)
                0x0800ae0e                memset
 .text._realloc_r
                0x0800ae1c      0x2dc c:/program files (x86)/atollic/truestudio for arm pro 3.2.0/armtools/bin/../lib/gcc/arm-atollic-eabi/4.6.2/../../../../arm-atollic-eabi/lib/thumb/armv7-m\libc.a(lib_a-reallocr.o)
                0x0800ae1c                _realloc_r
 .text.abort    0x0800b0f8        0xe c:/program files (x86)/atollic/truestudio for arm pro 3.2.0/armtools/bin/../lib/gcc/arm-atollic-eabi/4.6.2/../../../../arm-atollic-eabi/lib/thumb/armv7-m\libc.a(lib_a-abort.o)
                0x0800b0f8                abort
 .text._raise_r
                0x0800b106       0x54 c:/program files (x86)/atollic/truestudio for arm pro 3.2.0/armtools/bin/../lib/gcc/arm-atollic-eabi/4.6.2/../../../../arm-atollic-eabi/lib/thumb/armv7-m\libc.a(lib_a-signal.o)
                0x0800b106                _raise_r
 *fill*         0x0800b15a        0x2 00
 .text.raise    0x0800b15c       0x10 c:/program files (x86)/atollic/truestudio for arm pro 3.2.0/armtools/bin/../lib/gcc/arm-atollic-eabi/4.6.2/../../../../arm-atollic-eabi/lib/thumb/armv7-m\libc.a(lib_a-signal.o)
                0x0800b15c                raise
 .text._kill_r  0x0800b16c       0x24 c:/program files (x86)/atollic/truestudio for arm pro 3.2.0/armtools/bin/../lib/gcc/arm-atollic-eabi/4.6.2/../../../../arm-atollic-eabi/lib/thumb/armv7-m\libc.a(lib_a-signalr.o)
                0x0800b16c                _kill_r
 .text._getpid_r
                0x0800b190        0x4 c:/program files (x86)/atollic/truestudio for arm pro 3.2.0/armtools/bin/../lib/gcc/arm-atollic-eabi/4.6.2/../../../../arm-atollic-eabi/lib/thumb/armv7-m\libc.a(lib_a-signalr.o)
                0x0800b190                _getpid_r
 *(.rodata)
 .rodata        0x0800b194       0x20 uCOS-III\Source\os_tmr.o
 .rodata        0x0800b1b4       0x14 uCOS-III\Source\os_tick.o
 .rodata        0x0800b1c8        0xc uCOS-III\Source\os_task.o
 .rodata        0x0800b1d4       0x14 uCOS-III\Source\os_stat.o
 .rodata        0x0800b1e8        0xc uCOS-III\Source\os_sem.o
 .rodata        0x0800b1f4       0x2c uCOS-III\Source\os_core.o
 .rodata        0x0800b220       0x2c BSP\bsp_ser.o
 .rodata        0x0800b24c       0x58 APP\app.o
 *(.rodata*)
 .rodata.OSDbg_DbgEn
                0x0800b2a4        0x1 uCOS-III\Source\os_dbg.o
                0x0800b2a4                OSDbg_DbgEn
 .rodata.OSDbg_ArgChkEn
                0x0800b2a5        0x1 uCOS-III\Source\os_dbg.o
                0x0800b2a5                OSDbg_ArgChkEn
 .rodata.OSDbg_AppHooksEn
                0x0800b2a6        0x1 uCOS-III\Source\os_dbg.o
                0x0800b2a6                OSDbg_AppHooksEn
 *fill*         0x0800b2a7        0x1 00
 .rodata.OSDbg_EndiannessTest
                0x0800b2a8        0x4 uCOS-III\Source\os_dbg.o
                0x0800b2a8                OSDbg_EndiannessTest
 .rodata.OSDbg_CalledFromISRChkEn
                0x0800b2ac        0x1 uCOS-III\Source\os_dbg.o
                0x0800b2ac                OSDbg_CalledFromISRChkEn
 .rodata.OSDbg_FlagEn
                0x0800b2ad        0x1 uCOS-III\Source\os_dbg.o
                0x0800b2ad                OSDbg_FlagEn
 *fill*         0x0800b2ae        0x2 00
 .rodata.OSDbg_FlagGrp
                0x0800b2b0       0x28 uCOS-III\Source\os_dbg.o
                0x0800b2b0                OSDbg_FlagGrp
 .rodata.OSDbg_FlagDelEn
                0x0800b2d8        0x1 uCOS-III\Source\os_dbg.o
                0x0800b2d8                OSDbg_FlagDelEn
 .rodata.OSDbg_FlagModeClrEn
                0x0800b2d9        0x1 uCOS-III\Source\os_dbg.o
                0x0800b2d9                OSDbg_FlagModeClrEn
 .rodata.OSDbg_FlagPendAbortEn
                0x0800b2da        0x1 uCOS-III\Source\os_dbg.o
                0x0800b2da                OSDbg_FlagPendAbortEn
 *fill*         0x0800b2db        0x1 00
 .rodata.OSDbg_FlagGrpSize
                0x0800b2dc        0x2 uCOS-III\Source\os_dbg.o
                0x0800b2dc                OSDbg_FlagGrpSize
 .rodata.OSDbg_FlagWidth
                0x0800b2de        0x2 uCOS-III\Source\os_dbg.o
                0x0800b2de                OSDbg_FlagWidth
 .rodata.OSDbg_ISRPostDeferredEn
                0x0800b2e0        0x1 uCOS-III\Source\os_dbg.o
                0x0800b2e0                OSDbg_ISRPostDeferredEn
 *fill*         0x0800b2e1        0x3 00
 .rodata.OSDbg_Mem
                0x0800b2e4       0x20 uCOS-III\Source\os_dbg.o
                0x0800b2e4                OSDbg_Mem
 .rodata.OSDbg_MemEn
                0x0800b304        0x1 uCOS-III\Source\os_dbg.o
                0x0800b304                OSDbg_MemEn
 *fill*         0x0800b305        0x1 00
 .rodata.OSDbg_MemSize
                0x0800b306        0x2 uCOS-III\Source\os_dbg.o
                0x0800b306                OSDbg_MemSize
 .rodata.OSDbg_MsgEn
                0x0800b308        0x1 uCOS-III\Source\os_dbg.o
                0x0800b308                OSDbg_MsgEn
 *fill*         0x0800b309        0x1 00
 .rodata.OSDbg_MsgSize
                0x0800b30a        0x2 uCOS-III\Source\os_dbg.o
                0x0800b30a                OSDbg_MsgSize
 .rodata.OSDbg_MsgPoolSize
                0x0800b30c        0x2 uCOS-III\Source\os_dbg.o
                0x0800b30c                OSDbg_MsgPoolSize
 .rodata.OSDbg_MsgQSize
                0x0800b30e        0x2 uCOS-III\Source\os_dbg.o
                0x0800b30e                OSDbg_MsgQSize
 .rodata.OSDbg_Mutex
                0x0800b310       0x2c uCOS-III\Source\os_dbg.o
                0x0800b310                OSDbg_Mutex
 .rodata.OSDbg_MutexEn
                0x0800b33c        0x1 uCOS-III\Source\os_dbg.o
                0x0800b33c                OSDbg_MutexEn
 .rodata.OSDbg_MutexDelEn
                0x0800b33d        0x1 uCOS-III\Source\os_dbg.o
                0x0800b33d                OSDbg_MutexDelEn
 .rodata.OSDbg_MutexPendAbortEn
                0x0800b33e        0x1 uCOS-III\Source\os_dbg.o
                0x0800b33e                OSDbg_MutexPendAbortEn
 *fill*         0x0800b33f        0x1 00
 .rodata.OSDbg_MutexSize
                0x0800b340        0x2 uCOS-III\Source\os_dbg.o
                0x0800b340                OSDbg_MutexSize
 .rodata.OSDbg_ObjTypeChkEn
                0x0800b342        0x1 uCOS-III\Source\os_dbg.o
                0x0800b342                OSDbg_ObjTypeChkEn
 .rodata.OSDbg_PendMultiEn
                0x0800b343        0x1 uCOS-III\Source\os_dbg.o
                0x0800b343                OSDbg_PendMultiEn
 .rodata.OSDbg_PendDataSize
                0x0800b344        0x2 uCOS-III\Source\os_dbg.o
                0x0800b344                OSDbg_PendDataSize
 .rodata.OSDbg_PendListSize
                0x0800b346        0x2 uCOS-III\Source\os_dbg.o
                0x0800b346                OSDbg_PendListSize
 .rodata.OSDbg_PendObjSize
                0x0800b348        0x2 uCOS-III\Source\os_dbg.o
                0x0800b348                OSDbg_PendObjSize
 .rodata.OSDbg_PrioMax
                0x0800b34a        0x2 uCOS-III\Source\os_dbg.o
                0x0800b34a                OSDbg_PrioMax
 .rodata.OSDbg_PrioTblSize
                0x0800b34c        0x2 uCOS-III\Source\os_dbg.o
                0x0800b34c                OSDbg_PrioTblSize
 .rodata.OSDbg_PtrSize
                0x0800b34e        0x2 uCOS-III\Source\os_dbg.o
                0x0800b34e                OSDbg_PtrSize
 .rodata.OSDbg_Q
                0x0800b350       0x30 uCOS-III\Source\os_dbg.o
                0x0800b350                OSDbg_Q
 .rodata.OSDbg_QEn
                0x0800b380        0x1 uCOS-III\Source\os_dbg.o
                0x0800b380                OSDbg_QEn
 .rodata.OSDbg_QDelEn
                0x0800b381        0x1 uCOS-III\Source\os_dbg.o
                0x0800b381                OSDbg_QDelEn
 .rodata.OSDbg_QFlushEn
                0x0800b382        0x1 uCOS-III\Source\os_dbg.o
                0x0800b382                OSDbg_QFlushEn
 .rodata.OSDbg_QPendAbortEn
                0x0800b383        0x1 uCOS-III\Source\os_dbg.o
                0x0800b383                OSDbg_QPendAbortEn
 .rodata.OSDbg_QSize
                0x0800b384        0x2 uCOS-III\Source\os_dbg.o
                0x0800b384                OSDbg_QSize
 .rodata.OSDbg_SchedRoundRobinEn
                0x0800b386        0x1 uCOS-III\Source\os_dbg.o
                0x0800b386                OSDbg_SchedRoundRobinEn
 *fill*         0x0800b387        0x1 00
 .rodata.OSDbg_Sem
                0x0800b388       0x28 uCOS-III\Source\os_dbg.o
                0x0800b388                OSDbg_Sem
 .rodata.OSDbg_SemEn
                0x0800b3b0        0x1 uCOS-III\Source\os_dbg.o
                0x0800b3b0                OSDbg_SemEn
 .rodata.OSDbg_SemDelEn
                0x0800b3b1        0x1 uCOS-III\Source\os_dbg.o
                0x0800b3b1                OSDbg_SemDelEn
 .rodata.OSDbg_SemPendAbortEn
                0x0800b3b2        0x1 uCOS-III\Source\os_dbg.o
                0x0800b3b2                OSDbg_SemPendAbortEn
 .rodata.OSDbg_SemSetEn
                0x0800b3b3        0x1 uCOS-III\Source\os_dbg.o
                0x0800b3b3                OSDbg_SemSetEn
 .rodata.OSDbg_SemSize
                0x0800b3b4        0x2 uCOS-III\Source\os_dbg.o
                0x0800b3b4                OSDbg_SemSize
 .rodata.OSDbg_RdyList
                0x0800b3b6        0x2 uCOS-III\Source\os_dbg.o
                0x0800b3b6                OSDbg_RdyList
 .rodata.OSDbg_RdyListSize
                0x0800b3b8        0x4 uCOS-III\Source\os_dbg.o
                0x0800b3b8                OSDbg_RdyListSize
 .rodata.OSDbg_StkWidth
                0x0800b3bc        0x1 uCOS-III\Source\os_dbg.o
                0x0800b3bc                OSDbg_StkWidth
 .rodata.OSDbg_StatTaskEn
                0x0800b3bd        0x1 uCOS-III\Source\os_dbg.o
                0x0800b3bd                OSDbg_StatTaskEn
 .rodata.OSDbg_StatTaskStkChkEn
                0x0800b3be        0x1 uCOS-III\Source\os_dbg.o
                0x0800b3be                OSDbg_StatTaskStkChkEn
 .rodata.OSDbg_TaskChangePrioEn
                0x0800b3bf        0x1 uCOS-III\Source\os_dbg.o
                0x0800b3bf                OSDbg_TaskChangePrioEn
 .rodata.OSDbg_TaskDelEn
                0x0800b3c0        0x1 uCOS-III\Source\os_dbg.o
                0x0800b3c0                OSDbg_TaskDelEn
 .rodata.OSDbg_TaskQEn
                0x0800b3c1        0x1 uCOS-III\Source\os_dbg.o
                0x0800b3c1                OSDbg_TaskQEn
 .rodata.OSDbg_TaskQPendAbortEn
                0x0800b3c2        0x1 uCOS-III\Source\os_dbg.o
                0x0800b3c2                OSDbg_TaskQPendAbortEn
 .rodata.OSDbg_TaskProfileEn
                0x0800b3c3        0x1 uCOS-III\Source\os_dbg.o
                0x0800b3c3                OSDbg_TaskProfileEn
 .rodata.OSDbg_TaskRegTblSize
                0x0800b3c4        0x2 uCOS-III\Source\os_dbg.o
                0x0800b3c4                OSDbg_TaskRegTblSize
 .rodata.OSDbg_TaskSemPendAbortEn
                0x0800b3c6        0x1 uCOS-III\Source\os_dbg.o
                0x0800b3c6                OSDbg_TaskSemPendAbortEn
 .rodata.OSDbg_TaskSuspendEn
                0x0800b3c7        0x1 uCOS-III\Source\os_dbg.o
                0x0800b3c7                OSDbg_TaskSuspendEn
 .rodata.OSDbg_TCBSize
                0x0800b3c8        0x2 uCOS-III\Source\os_dbg.o
                0x0800b3c8                OSDbg_TCBSize
 .rodata.OSDbg_TickSpokeSize
                0x0800b3ca        0x2 uCOS-III\Source\os_dbg.o
                0x0800b3ca                OSDbg_TickSpokeSize
 .rodata.OSDbg_TimeDlyHMSMEn
                0x0800b3cc        0x1 uCOS-III\Source\os_dbg.o
                0x0800b3cc                OSDbg_TimeDlyHMSMEn
 .rodata.OSDbg_TimeDlyResumeEn
                0x0800b3cd        0x1 uCOS-III\Source\os_dbg.o
                0x0800b3cd                OSDbg_TimeDlyResumeEn
 *fill*         0x0800b3ce        0x2 00
 .rodata.OSDbg_Tmr
                0x0800b3d0       0x34 uCOS-III\Source\os_dbg.o
                0x0800b3d0                OSDbg_Tmr
 .rodata.OSDbg_TmrEn
                0x0800b404        0x1 uCOS-III\Source\os_dbg.o
                0x0800b404                OSDbg_TmrEn
 .rodata.OSDbg_TmrDelEn
                0x0800b405        0x1 uCOS-III\Source\os_dbg.o
                0x0800b405                OSDbg_TmrDelEn
 .rodata.OSDbg_TmrSize
                0x0800b406        0x2 uCOS-III\Source\os_dbg.o
                0x0800b406                OSDbg_TmrSize
 .rodata.OSDbg_TmrSpokeSize
                0x0800b408        0x2 uCOS-III\Source\os_dbg.o
                0x0800b408                OSDbg_TmrSpokeSize
 .rodata.OSDbg_VersionNbr
                0x0800b40a        0x2 uCOS-III\Source\os_dbg.o
                0x0800b40a                OSDbg_VersionNbr
 .rodata.OSDbg_DataSize
                0x0800b40c        0x4 uCOS-III\Source\os_dbg.o
                0x0800b40c                OSDbg_DataSize
 .rodata.OSCfg_IdleTaskStkBasePtr
                0x0800b410        0x4 uCOS-III\Source\os_cfg_app.o
                0x0800b410                OSCfg_IdleTaskStkBasePtr
 .rodata.OSCfg_IdleTaskStkLimit
                0x0800b414        0x4 uCOS-III\Source\os_cfg_app.o
                0x0800b414                OSCfg_IdleTaskStkLimit
 .rodata.OSCfg_IdleTaskStkSize
                0x0800b418        0x4 uCOS-III\Source\os_cfg_app.o
                0x0800b418                OSCfg_IdleTaskStkSize
 .rodata.OSCfg_ISRStkBasePtr
                0x0800b41c        0x4 uCOS-III\Source\os_cfg_app.o
                0x0800b41c                OSCfg_ISRStkBasePtr
 .rodata.OSCfg_ISRStkSize
                0x0800b420        0x4 uCOS-III\Source\os_cfg_app.o
                0x0800b420                OSCfg_ISRStkSize
 .rodata.OSCfg_MsgPoolSize
                0x0800b424        0x2 uCOS-III\Source\os_cfg_app.o
                0x0800b424                OSCfg_MsgPoolSize
 *fill*         0x0800b426        0x2 00
 .rodata.OSCfg_MsgPoolBasePtr
                0x0800b428        0x4 uCOS-III\Source\os_cfg_app.o
                0x0800b428                OSCfg_MsgPoolBasePtr
 .rodata.OSCfg_StatTaskPrio
                0x0800b42c        0x1 uCOS-III\Source\os_cfg_app.o
                0x0800b42c                OSCfg_StatTaskPrio
 *fill*         0x0800b42d        0x3 00
 .rodata.OSCfg_StatTaskRate_Hz
                0x0800b430        0x4 uCOS-III\Source\os_cfg_app.o
                0x0800b430                OSCfg_StatTaskRate_Hz
 .rodata.OSCfg_StatTaskStkBasePtr
                0x0800b434        0x4 uCOS-III\Source\os_cfg_app.o
                0x0800b434                OSCfg_StatTaskStkBasePtr
 .rodata.OSCfg_StatTaskStkLimit
                0x0800b438        0x4 uCOS-III\Source\os_cfg_app.o
                0x0800b438                OSCfg_StatTaskStkLimit
 .rodata.OSCfg_StatTaskStkSize
                0x0800b43c        0x4 uCOS-III\Source\os_cfg_app.o
                0x0800b43c                OSCfg_StatTaskStkSize
 .rodata.OSCfg_StkSizeMin
                0x0800b440        0x4 uCOS-III\Source\os_cfg_app.o
                0x0800b440                OSCfg_StkSizeMin
 .rodata.OSCfg_TickRate_Hz
                0x0800b444        0x4 uCOS-III\Source\os_cfg_app.o
                0x0800b444                OSCfg_TickRate_Hz
 .rodata.OSCfg_TickTaskPrio
                0x0800b448        0x1 uCOS-III\Source\os_cfg_app.o
                0x0800b448                OSCfg_TickTaskPrio
 *fill*         0x0800b449        0x3 00
 .rodata.OSCfg_TickTaskStkBasePtr
                0x0800b44c        0x4 uCOS-III\Source\os_cfg_app.o
                0x0800b44c                OSCfg_TickTaskStkBasePtr
 .rodata.OSCfg_TickTaskStkLimit
                0x0800b450        0x4 uCOS-III\Source\os_cfg_app.o
                0x0800b450                OSCfg_TickTaskStkLimit
 .rodata.OSCfg_TickTaskStkSize
                0x0800b454        0x4 uCOS-III\Source\os_cfg_app.o
                0x0800b454                OSCfg_TickTaskStkSize
 .rodata.OSCfg_TickWheelSize
                0x0800b458        0x2 uCOS-III\Source\os_cfg_app.o
                0x0800b458                OSCfg_TickWheelSize
 .rodata.OSCfg_TmrTaskPrio
                0x0800b45a        0x1 uCOS-III\Source\os_cfg_app.o
                0x0800b45a                OSCfg_TmrTaskPrio
 *fill*         0x0800b45b        0x1 00
 .rodata.OSCfg_TmrTaskRate_Hz
                0x0800b45c        0x4 uCOS-III\Source\os_cfg_app.o
                0x0800b45c                OSCfg_TmrTaskRate_Hz
 .rodata.OSCfg_TmrTaskStkBasePtr
                0x0800b460        0x4 uCOS-III\Source\os_cfg_app.o
                0x0800b460                OSCfg_TmrTaskStkBasePtr
 .rodata.OSCfg_TmrTaskStkLimit
                0x0800b464        0x4 uCOS-III\Source\os_cfg_app.o
                0x0800b464                OSCfg_TmrTaskStkLimit
 .rodata.OSCfg_TmrTaskStkSize
                0x0800b468        0x4 uCOS-III\Source\os_cfg_app.o
                0x0800b468                OSCfg_TmrTaskStkSize
 .rodata.OSCfg_TmrWheelSize
                0x0800b46c        0x2 uCOS-III\Source\os_cfg_app.o
                0x0800b46c                OSCfg_TmrWheelSize
 *fill*         0x0800b46e        0x2 00
 .rodata.GPIO_PIN
                0x0800b470        0x8 BSP\bsp.o
                0x0800b470                GPIO_PIN
 .rodata.GPIO_CLK
                0x0800b478       0x10 BSP\bsp.o
                0x0800b478                GPIO_CLK
 .rodata.str1.1
                0x0800b488        0x2 c:/program files (x86)/atollic/truestudio for arm pro 3.2.0/armtools/bin/../lib/gcc/arm-atollic-eabi/4.6.2/../../../../arm-atollic-eabi/lib/thumb/armv7-m\libc.a(lib_a-impure.o)
 .rodata.zeroes.6598
                0x0800b48a       0x10 c:/program files (x86)/atollic/truestudio for arm pro 3.2.0/armtools/bin/../lib/gcc/arm-atollic-eabi/4.6.2/../../../../arm-atollic-eabi/lib/thumb/armv7-m\libc.a(lib_a-svfprintf.o)
 .rodata.str1.1
                0x0800b49a       0x34 c:/program files (x86)/atollic/truestudio for arm pro 3.2.0/armtools/bin/../lib/gcc/arm-atollic-eabi/4.6.2/../../../../arm-atollic-eabi/lib/thumb/armv7-m\libc.a(lib_a-svfprintf.o)
 .rodata.blanks.6597
                0x0800b4ce       0x10 c:/program files (x86)/atollic/truestudio for arm pro 3.2.0/armtools/bin/../lib/gcc/arm-atollic-eabi/4.6.2/../../../../arm-atollic-eabi/lib/thumb/armv7-m\libc.a(lib_a-svfprintf.o)
 .rodata.str1.1
                0x0800b4de        0xd c:/program files (x86)/atollic/truestudio for arm pro 3.2.0/armtools/bin/../lib/gcc/arm-atollic-eabi/4.6.2/../../../../arm-atollic-eabi/lib/thumb/armv7-m\libc.a(lib_a-dtoa.o)
                                  0xf (size before relaxing)
 .rodata.str1.1
                0x0800b4eb        0x8 c:/program files (x86)/atollic/truestudio for arm pro 3.2.0/armtools/bin/../lib/gcc/arm-atollic-eabi/4.6.2/../../../../arm-atollic-eabi/lib/thumb/armv7-m\libc.a(lib_a-locale.o)
                                  0xb (size before relaxing)
 *fill*         0x0800b4f3        0x1 00
 .rodata.p05.5123
                0x0800b4f4        0xc c:/program files (x86)/atollic/truestudio for arm pro 3.2.0/armtools/bin/../lib/gcc/arm-atollic-eabi/4.6.2/../../../../arm-atollic-eabi/lib/thumb/armv7-m\libc.a(lib_a-mprec.o)
 .rodata.__mprec_tens
                0x0800b500       0xc8 c:/program files (x86)/atollic/truestudio for arm pro 3.2.0/armtools/bin/../lib/gcc/arm-atollic-eabi/4.6.2/../../../../arm-atollic-eabi/lib/thumb/armv7-m\libc.a(lib_a-mprec.o)
                0x0800b500                __mprec_tens
 .rodata.__mprec_bigtens
                0x0800b5c8       0x28 c:/program files (x86)/atollic/truestudio for arm pro 3.2.0/armtools/bin/../lib/gcc/arm-atollic-eabi/4.6.2/../../../../arm-atollic-eabi/lib/thumb/armv7-m\libc.a(lib_a-mprec.o)
                0x0800b5c8                __mprec_bigtens
 *(.glue_7)
 .glue_7        0x00000000        0x0 linker stubs
 *(.glue_7t)
 .glue_7t       0x00000000        0x0 linker stubs
 *(.eh_frame)
 .eh_frame      0x0800b5f0        0x0 c:/program files (x86)/atollic/truestudio for arm pro 3.2.0/armtools/bin/../lib/gcc/arm-atollic-eabi/4.6.2/thumb/armv7-m/crtbegin.o
 *(.init)
 .init          0x0800b5f0        0x4 c:/program files (x86)/atollic/truestudio for arm pro 3.2.0/armtools/bin/../lib/gcc/arm-atollic-eabi/4.6.2/thumb/armv7-m/crti.o
                0x0800b5f0                _init
 .init          0x0800b5f4        0x8 c:/program files (x86)/atollic/truestudio for arm pro 3.2.0/armtools/bin/../lib/gcc/arm-atollic-eabi/4.6.2/thumb/armv7-m/crtn.o
 *(.fini)
 .fini          0x0800b5fc        0x4 c:/program files (x86)/atollic/truestudio for arm pro 3.2.0/armtools/bin/../lib/gcc/arm-atollic-eabi/4.6.2/thumb/armv7-m/crti.o
                0x0800b5fc                _fini
 .fini          0x0800b600        0x8 c:/program files (x86)/atollic/truestudio for arm pro 3.2.0/armtools/bin/../lib/gcc/arm-atollic-eabi/4.6.2/thumb/armv7-m/crtn.o
                0x0800b608                . = ALIGN (0x4)
                0x0800b608                _etext = .

.vfp11_veneer   0x0800b608        0x0
 .vfp11_veneer  0x00000000        0x0 linker stubs

.v4_bx          0x0800b608        0x0
 .v4_bx         0x00000000        0x0 linker stubs

.ARM.extab      0x0800b608       0x30
 *(.ARM.extab* .gnu.linkonce.armextab.*)
 .ARM.extab     0x0800b608       0x18 c:/program files (x86)/atollic/truestudio for arm pro 3.2.0/armtools/bin/../lib/gcc/arm-atollic-eabi/4.6.2/thumb/armv7-m\libgcc.a(unwind-arm.o)
 .ARM.extab     0x0800b620       0x18 c:/program files (x86)/atollic/truestudio for arm pro 3.2.0/armtools/bin/../lib/gcc/arm-atollic-eabi/4.6.2/thumb/armv7-m\libgcc.a(pr-support.o)

.ARM            0x0800b638       0xe8
                0x0800b638                __exidx_start = .
 *(.ARM.exidx*)
 .ARM.exidx     0x0800b638       0x10 c:/program files (x86)/atollic/truestudio for arm pro 3.2.0/armtools/bin/../lib/gcc/arm-atollic-eabi/4.6.2/thumb/armv7-m\libgcc.a(bpabi.o)
 .ARM.exidx     0x0800b648       0x88 c:/program files (x86)/atollic/truestudio for arm pro 3.2.0/armtools/bin/../lib/gcc/arm-atollic-eabi/4.6.2/thumb/armv7-m\libgcc.a(unwind-arm.o)
                                 0xc0 (size before relaxing)
 .ARM.exidx     0x0800b6d0       0x38 c:/program files (x86)/atollic/truestudio for arm pro 3.2.0/armtools/bin/../lib/gcc/arm-atollic-eabi/4.6.2/thumb/armv7-m\libgcc.a(pr-support.o)
                                 0x48 (size before relaxing)
 .ARM.exidx     0x0800b708        0x8 c:/program files (x86)/atollic/truestudio for arm pro 3.2.0/armtools/bin/../lib/gcc/arm-atollic-eabi/4.6.2/thumb/armv7-m\libgcc.a(_divdi3.o)
 .ARM.exidx     0x0800b710       0x10 c:/program files (x86)/atollic/truestudio for arm pro 3.2.0/armtools/bin/../lib/gcc/arm-atollic-eabi/4.6.2/thumb/armv7-m\libgcc.a(_udivdi3.o)
                                  0x8 (size before relaxing)
                0x0800b720                __exidx_end = .

.preinit_array  0x0800b720        0x0
                0x0800b720                PROVIDE (__preinit_array_start, .)
 *(.preinit_array*)
                0x0800b720                PROVIDE (__preinit_array_end, .)

.init_array     0x0800b720        0x4
                0x0800b720                PROVIDE (__init_array_start, .)
 *(SORT(.init_array.*))
 *(.init_array*)
 .init_array    0x0800b720        0x4 c:/program files (x86)/atollic/truestudio for arm pro 3.2.0/armtools/bin/../lib/gcc/arm-atollic-eabi/4.6.2/thumb/armv7-m/crtbegin.o
                0x0800b724                PROVIDE (__init_array_end, .)

.fini_array     0x0800b724        0x4
                0x0800b724                PROVIDE (__fini_array_start, .)
 *(SORT(.fini_array.*))
 *(.fini_array*)
 .fini_array    0x0800b724        0x4 c:/program files (x86)/atollic/truestudio for arm pro 3.2.0/armtools/bin/../lib/gcc/arm-atollic-eabi/4.6.2/thumb/armv7-m/crtbegin.o
                0x0800b728                PROVIDE (__fini_array_end, .)
                0x0800b728                _sidata = LOADADDR (.data)

.data           0x20000000      0x55c load address 0x0800b728
                0x20000000                . = ALIGN (0x4)
                0x20000000                _sdata = .
 *(.data)
 *(.data*)
 .data.GPIO_PORT
                0x20000000       0x10 BSP\bsp.o
                0x20000000                GPIO_PORT
 .data.APBAHBPrescTable
                0x20000010       0x10 BSP\STM32F2xx\src\stm32f2xx_rcc.o
 .data.impure_data
                0x20000020       0xf0 c:/program files (x86)/atollic/truestudio for arm pro 3.2.0/armtools/bin/../lib/gcc/arm-atollic-eabi/4.6.2/../../../../arm-atollic-eabi/lib/thumb/armv7-m\libc.a(lib_a-impure.o)
 .data._impure_ptr
                0x20000110        0x4 c:/program files (x86)/atollic/truestudio for arm pro 3.2.0/armtools/bin/../lib/gcc/arm-atollic-eabi/4.6.2/../../../../arm-atollic-eabi/lib/thumb/armv7-m\libc.a(lib_a-impure.o)
                0x20000110                _impure_ptr
 .data.lconv    0x20000114       0x38 c:/program files (x86)/atollic/truestudio for arm pro 3.2.0/armtools/bin/../lib/gcc/arm-atollic-eabi/4.6.2/../../../../arm-atollic-eabi/lib/thumb/armv7-m\libc.a(lib_a-locale.o)
 .data.__malloc_av_
                0x2000014c      0x408 c:/program files (x86)/atollic/truestudio for arm pro 3.2.0/armtools/bin/../lib/gcc/arm-atollic-eabi/4.6.2/../../../../arm-atollic-eabi/lib/thumb/armv7-m\libc.a(lib_a-mallocr.o)
                0x2000014c                __malloc_av_
 .data.__malloc_trim_threshold
                0x20000554        0x4 c:/program files (x86)/atollic/truestudio for arm pro 3.2.0/armtools/bin/../lib/gcc/arm-atollic-eabi/4.6.2/../../../../arm-atollic-eabi/lib/thumb/armv7-m\libc.a(lib_a-mallocr.o)
                0x20000554                __malloc_trim_threshold
 .data.__malloc_sbrk_base
                0x20000558        0x4 c:/program files (x86)/atollic/truestudio for arm pro 3.2.0/armtools/bin/../lib/gcc/arm-atollic-eabi/4.6.2/../../../../arm-atollic-eabi/lib/thumb/armv7-m\libc.a(lib_a-mallocr.o)
                0x20000558                __malloc_sbrk_base
                0x2000055c                . = ALIGN (0x4)
                0x2000055c                _edata = .

.jcr            0x2000055c        0x0 load address 0x0800bc84
 .jcr           0x2000055c        0x0 c:/program files (x86)/atollic/truestudio for arm pro 3.2.0/armtools/bin/../lib/gcc/arm-atollic-eabi/4.6.2/thumb/armv7-m/crtbegin.o
                0x2000055c                . = ALIGN (0x4)

.bss            0x2000055c     0x3dc8 load address 0x0800bc84
                0x2000055c                _sbss = .
                0x2000055c                __bss_start__ = _sbss
 *(.bss)
 .bss           0x2000055c       0x1c c:/program files (x86)/atollic/truestudio for arm pro 3.2.0/armtools/bin/../lib/gcc/arm-atollic-eabi/4.6.2/thumb/armv7-m/crtbegin.o
 *(.bss*)
 .bss.BSP_SerTxWait
                0x20000578       0x28 BSP\bsp_ser.o
 .bss.BSP_SerRxWait
                0x200005a0       0x28 BSP\bsp_ser.o
 .bss.BSP_SerLock
                0x200005c8       0x28 BSP\bsp_ser.o
 .bss.BSP_SerRxData
                0x200005f0        0x1 BSP\bsp_ser.o
 *fill*         0x200005f1        0x3 00
 .bss.BSP_IntVectTbl
                0x200005f4      0x144 BSP\bsp_int.o
 .bss.AppTaskStartTCB
                0x20000738       0xc4 APP\app.o
 .bss.AppTaskStartStk
                0x200007fc      0x200 APP\app.o
 .bss.__malloc_max_total_mem
                0x200009fc        0x4 c:/program files (x86)/atollic/truestudio for arm pro 3.2.0/armtools/bin/../lib/gcc/arm-atollic-eabi/4.6.2/../../../../arm-atollic-eabi/lib/thumb/armv7-m\libc.a(lib_a-mallocr.o)
                0x200009fc                __malloc_max_total_mem
 .bss.__malloc_max_sbrked_mem
                0x20000a00        0x4 c:/program files (x86)/atollic/truestudio for arm pro 3.2.0/armtools/bin/../lib/gcc/arm-atollic-eabi/4.6.2/../../../../arm-atollic-eabi/lib/thumb/armv7-m\libc.a(lib_a-mallocr.o)
                0x20000a00                __malloc_max_sbrked_mem
 .bss.__malloc_top_pad
                0x20000a04        0x4 c:/program files (x86)/atollic/truestudio for arm pro 3.2.0/armtools/bin/../lib/gcc/arm-atollic-eabi/4.6.2/../../../../arm-atollic-eabi/lib/thumb/armv7-m\libc.a(lib_a-mallocr.o)
                0x20000a04                __malloc_top_pad
 .bss.__malloc_current_mallinfo
                0x20000a08       0x28 c:/program files (x86)/atollic/truestudio for arm pro 3.2.0/armtools/bin/../lib/gcc/arm-atollic-eabi/4.6.2/../../../../arm-atollic-eabi/lib/thumb/armv7-m\libc.a(lib_a-mallocr.o)
                0x20000a08                __malloc_current_mallinfo
 .bss.heap_end.4982
                0x20000a30        0x4 c:/program files (x86)/atollic/truestudio for arm pro 3.2.0/armtools/bin/../lib/gcc/arm-atollic-eabi/4.6.2/../../../../arm-atollic-eabi/lib/thumb/armv7-m\libc.a(lib_a-syscalls.o)
 *(COMMON)
 COMMON         0x20000a34      0x464 uCOS-III\Source\os_var.o
                0x20000a34                OSSchedLockNestingCtr
                0x20000a38                OS_AppTaskReturnHookPtr
                0x20000a3c                OSStatTaskTimeMax
                0x20000a40                OSStatTaskCtr
                0x20000a44                OSTaskRegNextAvailID
                0x20000a45                OSRunning
                0x20000a48                OSRdyList
                0x20000ad8                OSPrioHighRdy
                0x20000ad9                OSStatTaskRdy
                0x20000adc                OSSemDbgListPtr
                0x20000ae0                OS_AppTaskCreateHookPtr
                0x20000ae4                OSPrioCur
                0x20000ae8                OSTickTaskTCB
                0x20000bac                OSTmrTickCtr
                0x20000bb0                OSSchedLockTimeBegin
                0x20000bb4                OSTCBCurPtr
                0x20000bb8                OSQQty
                0x20000bba                OSStatTaskCPUUsageMax
                0x20000bbc                OSPrioSaved
                0x20000bc0                OSTCBHighRdyPtr
                0x20000bc4                OSSchedLockTimeMaxCur
                0x20000bc8                OSTaskDbgListPtr
                0x20000bcc                OSTmrTaskTimeMax
                0x20000bd0                OS_AppTaskDelHookPtr
                0x20000bd4                OS_AppTimeTickHookPtr
                0x20000bd8                OSTaskCtxSwCtr
                0x20000bdc                OSStatTaskCPUUsage
                0x20000bde                OSIntNestingCtr
                0x20000be0                OSTaskQty
                0x20000be4                OSTmrTaskTCB
                0x20000ca8                OSMsgPool
                0x20000cb4                OSIdleTaskTCB
                0x20000d78                OSQDbgListPtr
                0x20000d7c                OSSemQty
                0x20000d80                OSMemDbgListPtr
                0x20000d84                OSSchedRoundRobinDfltTimeQuanta
                0x20000d88                OS_AppIdleTaskHookPtr
                0x20000d8c                OSStatTaskCtrMax
                0x20000d90                OSTickCtr
                0x20000d94                OS_AppTaskSwHookPtr
                0x20000d98                OSTmrQty
                0x20000d9c                OSIdleTaskCtr
                0x20000da0                OSStatTaskCtrRun
                0x20000da4                OS_AppStatTaskHookPtr
                0x20000da8                OSFlagQty
                0x20000dac                OSFlagDbgListPtr
                0x20000db0                OSSchedLockTimeMax
                0x20000db4                OSStatResetFlag
                0x20000db6                OSMemQty
                0x20000db8                OSMutexQty
                0x20000dbc                OSStatTaskTCB
                0x20000e80                OSTmrDbgListPtr
                0x20000e84                OSTickTaskTimeMax
                0x20000e88                OSTmrUpdateCnt
                0x20000e8c                OSSchedRoundRobinEn
                0x20000e90                OSMutexDbgListPtr
                0x20000e94                OSTmrUpdateCtr
 COMMON         0x20000e98        0x4 uCOS-III\Source\os_prio.o
                0x20000e98                OSPrioTbl
 COMMON         0x20000e9c     0x1020 uCOS-III\Source\os_cfg_app.o
                0x20000e9c                OSCfg_StatTaskStk
                0x2000109c                OSCfg_TickWheel
                0x2000111c                OSCfg_MsgPool
                0x2000143c                OSCfg_TmrTaskStk
                0x2000163c                OSCfg_TmrWheel
                0x200016bc                OSCfg_ISRStk
                0x20001abc                OSCfg_TickTaskStk
                0x20001cbc                OSCfg_IdleTaskStk
 COMMON         0x20001ebc        0x4 uCOS-III\Ports\ARM-Cortex-M3\Generic\GNU\os_cpu_c.o
                0x20001ebc                OS_CPU_ExceptStkBase
 COMMON         0x20001ec0     0x244c uC-LIB\lib_mem.o
                0x20001ec0                Mem_PoolHeap
                0x20001f08                Mem_Heap
                0x20004308                Mem_PoolTbl
 COMMON         0x2000430c       0x14 uC-CPU\cpu_core.o
                0x2000430c                CPU_TS_TmrFreq_Hz
                0x20004310                CPU_Name
 COMMON         0x20004320        0x4 c:/program files (x86)/atollic/truestudio for arm pro 3.2.0/armtools/bin/../lib/gcc/arm-atollic-eabi/4.6.2/../../../../arm-atollic-eabi/lib/thumb/armv7-m\libc.a(lib_a-reent.o)
                0x20004320                errno
                0x20004324                . = ALIGN (0x4)
                0x20004324                _ebss = .
                0x20004324                __bss_end__ = _ebss

._user_heap_stack
                0x20004324      0x400 load address 0x0800bc84
                0x20004324                . = ALIGN (0x4)
                0x20004324                PROVIDE (end, .)
                0x20004324                PROVIDE (_end, .)
                0x20004324                . = (. + _Min_Heap_Size)
                0x20004724                . = (. + _Min_Stack_Size)
 *fill*         0x20004324      0x400 00
                0x20004724                . = ALIGN (0x4)

.memory_b1_text
 *(.mb1text)
 *(.mb1text*)
 *(.mb1rodata)
 *(.mb1rodata*)

/DISCARD/
 libc.a(*)
 libm.a(*)
 libgcc.a(*)

.ARM.attributes
                0x00000000       0x29
 *(.ARM.attributes)
 .ARM.attributes
                0x00000000       0x1d c:/program files (x86)/atollic/truestudio for arm pro 3.2.0/armtools/bin/../lib/gcc/arm-atollic-eabi/4.6.2/thumb/armv7-m/crti.o
 .ARM.attributes
                0x0000001d       0x2d c:/program files (x86)/atollic/truestudio for arm pro 3.2.0/armtools/bin/../lib/gcc/arm-atollic-eabi/4.6.2/thumb/armv7-m/crtbegin.o
 .ARM.attributes
                0x0000004a       0x33 uCOS-III\Source\os_var.o
 .ARM.attributes
                0x0000007d       0x33 uCOS-III\Source\os_tmr.o
 .ARM.attributes
                0x000000b0       0x33 uCOS-III\Source\os_time.o
 .ARM.attributes
                0x000000e3       0x33 uCOS-III\Source\os_tick.o
 .ARM.attributes
                0x00000116       0x33 uCOS-III\Source\os_task.o
 .ARM.attributes
                0x00000149       0x33 uCOS-III\Source\os_stat.o
 .ARM.attributes
                0x0000017c       0x33 uCOS-III\Source\os_sem.o
 .ARM.attributes
                0x000001af       0x33 uCOS-III\Source\os_q.o
 .ARM.attributes
                0x000001e2       0x33 uCOS-III\Source\os_prio.o
 .ARM.attributes
                0x00000215       0x33 uCOS-III\Source\os_pend_multi.o
 .ARM.attributes
                0x00000248       0x33 uCOS-III\Source\os_mutex.o
 .ARM.attributes
                0x0000027b       0x33 uCOS-III\Source\os_msg.o
 .ARM.attributes
                0x000002ae       0x33 uCOS-III\Source\os_mem.o
 .ARM.attributes
                0x000002e1       0x33 uCOS-III\Source\os_int.o
 .ARM.attributes
                0x00000314       0x33 uCOS-III\Source\os_flag.o
 .ARM.attributes
                0x00000347       0x33 uCOS-III\Source\os_dbg.o
 .ARM.attributes
                0x0000037a       0x33 uCOS-III\Source\os_core.o
 .ARM.attributes
                0x000003ad       0x33 uCOS-III\Source\os_cfg_app.o
 .ARM.attributes
                0x000003e0       0x33 uCOS-III\Ports\ARM-Cortex-M3\Generic\GNU\os_cpu_c.o
 .ARM.attributes
                0x00000413       0x21 uCOS-III\Ports\ARM-Cortex-M3\Generic\GNU\os_cpu_a.o
 .ARM.attributes
                0x00000434       0x33 uC-LIB\lib_str.o
 .ARM.attributes
                0x00000467       0x33 uC-LIB\lib_mem.o
 .ARM.attributes
                0x0000049a       0x33 uC-LIB\lib_math.o
 .ARM.attributes
                0x000004cd       0x33 uC-LIB\lib_ascii.o
 .ARM.attributes
                0x00000500       0x33 uC-CPU\cpu_core.o
 .ARM.attributes
                0x00000533       0x33 uC-CPU\ARM-Cortex-M3\GNU\cpu_c.o
 .ARM.attributes
                0x00000566       0x21 uC-CPU\ARM-Cortex-M3\GNU\cpu_a.o
 .ARM.attributes
                0x00000587       0x21 BSP\cstartup.o
 .ARM.attributes
                0x000005a8       0x33 BSP\bsp_ser.o
 .ARM.attributes
                0x000005db       0x33 BSP\bsp_lcd.o
 .ARM.attributes
                0x0000060e       0x33 BSP\bsp_ioe.o
 .ARM.attributes
                0x00000641       0x33 BSP\bsp_int.o
 .ARM.attributes
                0x00000674       0x33 BSP\bsp.o
 .ARM.attributes
                0x000006a7       0x33 BSP\STM32F2xx\src\stm32f2xx_wwdg.o
 .ARM.attributes
                0x000006da       0x33 BSP\STM32F2xx\src\stm32f2xx_usart.o
 .ARM.attributes
                0x0000070d       0x33 BSP\STM32F2xx\src\stm32f2xx_tim.o
 .ARM.attributes
                0x00000740       0x33 BSP\STM32F2xx\src\stm32f2xx_syscfg.o
 .ARM.attributes
                0x00000773       0x33 BSP\STM32F2xx\src\stm32f2xx_spi.o
 .ARM.attributes
                0x000007a6       0x33 BSP\STM32F2xx\src\stm32f2xx_sdio.o
 .ARM.attributes
                0x000007d9       0x33 BSP\STM32F2xx\src\stm32f2xx_rtc.o
 .ARM.attributes
                0x0000080c       0x33 BSP\STM32F2xx\src\stm32f2xx_rng.o
 .ARM.attributes
                0x0000083f       0x33 BSP\STM32F2xx\src\stm32f2xx_rcc.o
 .ARM.attributes
                0x00000872       0x33 BSP\STM32F2xx\src\stm32f2xx_pwr.o
 .ARM.attributes
                0x000008a5       0x33 BSP\STM32F2xx\src\stm32f2xx_iwdg.o
 .ARM.attributes
                0x000008d8       0x33 BSP\STM32F2xx\src\stm32f2xx_i2c.o
 .ARM.attributes
                0x0000090b       0x33 BSP\STM32F2xx\src\stm32f2xx_hash_sha1.o
 .ARM.attributes
                0x0000093e       0x33 BSP\STM32F2xx\src\stm32f2xx_hash_md5.o
 .ARM.attributes
                0x00000971       0x33 BSP\STM32F2xx\src\stm32f2xx_hash.o
 .ARM.attributes
                0x000009a4       0x33 BSP\STM32F2xx\src\stm32f2xx_gpio.o
 .ARM.attributes
                0x000009d7       0x33 BSP\STM32F2xx\src\stm32f2xx_fsmc.o
 .ARM.attributes
                0x00000a0a       0x33 BSP\STM32F2xx\src\stm32f2xx_flash.o
 .ARM.attributes
                0x00000a3d       0x33 BSP\STM32F2xx\src\stm32f2xx_exti.o
 .ARM.attributes
                0x00000a70       0x33 BSP\STM32F2xx\src\stm32f2xx_dma.o
 .ARM.attributes
                0x00000aa3       0x33 BSP\STM32F2xx\src\stm32f2xx_dcmi.o
 .ARM.attributes
                0x00000ad6       0x33 BSP\STM32F2xx\src\stm32f2xx_dbgmcu.o
 .ARM.attributes
                0x00000b09       0x33 BSP\STM32F2xx\src\stm32f2xx_dac.o
 .ARM.attributes
                0x00000b3c       0x33 BSP\STM32F2xx\src\stm32f2xx_cryp_tdes.o
 .ARM.attributes
                0x00000b6f       0x33 BSP\STM32F2xx\src\stm32f2xx_cryp_des.o
 .ARM.attributes
                0x00000ba2       0x33 BSP\STM32F2xx\src\stm32f2xx_cryp_aes.o
 .ARM.attributes
                0x00000bd5       0x33 BSP\STM32F2xx\src\stm32f2xx_cryp.o
 .ARM.attributes
                0x00000c08       0x33 BSP\STM32F2xx\src\stm32f2xx_crc.o
 .ARM.attributes
                0x00000c3b       0x33 BSP\STM32F2xx\src\stm32f2xx_can.o
 .ARM.attributes
                0x00000c6e       0x33 BSP\STM32F2xx\src\stm32f2xx_adc.o
 .ARM.attributes
                0x00000ca1       0x33 BSP\STM32F2xx\src\misc.o
 .ARM.attributes
                0x00000cd4       0x33 BSP\OS\bsp_os.o
 .ARM.attributes
                0x00000d07       0x33 BSP\CMSIS\Device Support\system_stm32f2xx.o
 .ARM.attributes
                0x00000d3a       0x33 APP\os_app_hooks.o
 .ARM.attributes
                0x00000d6d       0x33 APP\app.o
 .ARM.attributes
                0x00000da0       0x2d c:/program files (x86)/atollic/truestudio for arm pro 3.2.0/armtools/bin/../lib/gcc/arm-atollic-eabi/4.6.2/../../../../arm-atollic-eabi/lib/thumb/armv7-m\libc.a(lib_a-init.o)
 .ARM.attributes
                0x00000dcd       0x2d c:/program files (x86)/atollic/truestudio for arm pro 3.2.0/armtools/bin/../lib/gcc/arm-atollic-eabi/4.6.2/../../../../arm-atollic-eabi/lib/thumb/armv7-m\libc.a(lib_a-vsnprintf.o)
 .ARM.attributes
                0x00000dfa       0x2d c:/program files (x86)/atollic/truestudio for arm pro 3.2.0/armtools/bin/../lib/gcc/arm-atollic-eabi/4.6.2/../../../../arm-atollic-eabi/lib/thumb/armv7-m\libc.a(lib_a-impure.o)
 .ARM.attributes
                0x00000e27       0x2d c:/program files (x86)/atollic/truestudio for arm pro 3.2.0/armtools/bin/../lib/gcc/arm-atollic-eabi/4.6.2/../../../../arm-atollic-eabi/lib/thumb/armv7-m\libc.a(lib_a-svfprintf.o)
 .ARM.attributes
                0x00000e54       0x2d c:/program files (x86)/atollic/truestudio for arm pro 3.2.0/armtools/bin/../lib/gcc/arm-atollic-eabi/4.6.2/../../../../arm-atollic-eabi/lib/thumb/armv7-m\libc.a(lib_a-dtoa.o)
 .ARM.attributes
                0x00000e81       0x2d c:/program files (x86)/atollic/truestudio for arm pro 3.2.0/armtools/bin/../lib/gcc/arm-atollic-eabi/4.6.2/../../../../arm-atollic-eabi/lib/thumb/armv7-m\libc.a(lib_a-locale.o)
 .ARM.attributes
                0x00000eae       0x2d c:/program files (x86)/atollic/truestudio for arm pro 3.2.0/armtools/bin/../lib/gcc/arm-atollic-eabi/4.6.2/../../../../arm-atollic-eabi/lib/thumb/armv7-m\libc.a(lib_a-malloc.o)
 .ARM.attributes
                0x00000edb       0x2d c:/program files (x86)/atollic/truestudio for arm pro 3.2.0/armtools/bin/../lib/gcc/arm-atollic-eabi/4.6.2/../../../../arm-atollic-eabi/lib/thumb/armv7-m\libc.a(lib_a-mallocr.o)
 .ARM.attributes
                0x00000f08       0x2d c:/program files (x86)/atollic/truestudio for arm pro 3.2.0/armtools/bin/../lib/gcc/arm-atollic-eabi/4.6.2/../../../../arm-atollic-eabi/lib/thumb/armv7-m\libc.a(lib_a-memchr.o)
 .ARM.attributes
                0x00000f35       0x2d c:/program files (x86)/atollic/truestudio for arm pro 3.2.0/armtools/bin/../lib/gcc/arm-atollic-eabi/4.6.2/../../../../arm-atollic-eabi/lib/thumb/armv7-m\libc.a(lib_a-memcpy.o)
 .ARM.attributes
                0x00000f62       0x2d c:/program files (x86)/atollic/truestudio for arm pro 3.2.0/armtools/bin/../lib/gcc/arm-atollic-eabi/4.6.2/../../../../arm-atollic-eabi/lib/thumb/armv7-m\libc.a(lib_a-mlock.o)
 .ARM.attributes
                0x00000f8f       0x2d c:/program files (x86)/atollic/truestudio for arm pro 3.2.0/armtools/bin/../lib/gcc/arm-atollic-eabi/4.6.2/../../../../arm-atollic-eabi/lib/thumb/armv7-m\libc.a(lib_a-mprec.o)
 .ARM.attributes
                0x00000fbc       0x2d c:/program files (x86)/atollic/truestudio for arm pro 3.2.0/armtools/bin/../lib/gcc/arm-atollic-eabi/4.6.2/../../../../arm-atollic-eabi/lib/thumb/armv7-m\libc.a(lib_a-s_fpclassify.o)
 .ARM.attributes
                0x00000fe9       0x2d c:/program files (x86)/atollic/truestudio for arm pro 3.2.0/armtools/bin/../lib/gcc/arm-atollic-eabi/4.6.2/../../../../arm-atollic-eabi/lib/thumb/armv7-m\libc.a(lib_a-sbrkr.o)
 .ARM.attributes
                0x00001016       0x2d c:/program files (x86)/atollic/truestudio for arm pro 3.2.0/armtools/bin/../lib/gcc/arm-atollic-eabi/4.6.2/../../../../arm-atollic-eabi/lib/thumb/armv7-m\libc.a(lib_a-strcmp.o)
 .ARM.attributes
                0x00001043       0x2d c:/program files (x86)/atollic/truestudio for arm pro 3.2.0/armtools/bin/../lib/gcc/arm-atollic-eabi/4.6.2/../../../../arm-atollic-eabi/lib/thumb/armv7-m\libc.a(lib_a-strlen.o)
 .ARM.attributes
                0x00001070       0x2d c:/program files (x86)/atollic/truestudio for arm pro 3.2.0/armtools/bin/../lib/gcc/arm-atollic-eabi/4.6.2/../../../../arm-atollic-eabi/lib/thumb/armv7-m\libc.a(lib_a-svfiprintf.o)
 .ARM.attributes
                0x0000109d       0x2d c:/program files (x86)/atollic/truestudio for arm pro 3.2.0/armtools/bin/../lib/gcc/arm-atollic-eabi/4.6.2/../../../../arm-atollic-eabi/lib/thumb/armv7-m\libc.a(lib_a-syscalls.o)
 .ARM.attributes
                0x000010ca       0x2d c:/program files (x86)/atollic/truestudio for arm pro 3.2.0/armtools/bin/../lib/gcc/arm-atollic-eabi/4.6.2/../../../../arm-atollic-eabi/lib/thumb/armv7-m\libc.a(lib_a-callocr.o)
 .ARM.attributes
                0x000010f7       0x2d c:/program files (x86)/atollic/truestudio for arm pro 3.2.0/armtools/bin/../lib/gcc/arm-atollic-eabi/4.6.2/../../../../arm-atollic-eabi/lib/thumb/armv7-m\libc.a(lib_a-freer.o)
 .ARM.attributes
                0x00001124       0x2d c:/program files (x86)/atollic/truestudio for arm pro 3.2.0/armtools/bin/../lib/gcc/arm-atollic-eabi/4.6.2/../../../../arm-atollic-eabi/lib/thumb/armv7-m\libc.a(lib_a-memmove.o)
 .ARM.attributes
                0x00001151       0x2d c:/program files (x86)/atollic/truestudio for arm pro 3.2.0/armtools/bin/../lib/gcc/arm-atollic-eabi/4.6.2/../../../../arm-atollic-eabi/lib/thumb/armv7-m\libc.a(lib_a-memset.o)
 .ARM.attributes
                0x0000117e       0x2d c:/program files (x86)/atollic/truestudio for arm pro 3.2.0/armtools/bin/../lib/gcc/arm-atollic-eabi/4.6.2/../../../../arm-atollic-eabi/lib/thumb/armv7-m\libc.a(lib_a-reallocr.o)
 .ARM.attributes
                0x000011ab       0x2d c:/program files (x86)/atollic/truestudio for arm pro 3.2.0/armtools/bin/../lib/gcc/arm-atollic-eabi/4.6.2/../../../../arm-atollic-eabi/lib/thumb/armv7-m\libc.a(lib_a-reent.o)
 .ARM.attributes
                0x000011d8       0x1d c:/program files (x86)/atollic/truestudio for arm pro 3.2.0/armtools/bin/../lib/gcc/arm-atollic-eabi/4.6.2/thumb/armv7-m\libgcc.a(_arm_addsubdf3.o)
 .ARM.attributes
                0x000011f5       0x1d c:/program files (x86)/atollic/truestudio for arm pro 3.2.0/armtools/bin/../lib/gcc/arm-atollic-eabi/4.6.2/thumb/armv7-m\libgcc.a(_arm_muldivdf3.o)
 .ARM.attributes
                0x00001212       0x1d c:/program files (x86)/atollic/truestudio for arm pro 3.2.0/armtools/bin/../lib/gcc/arm-atollic-eabi/4.6.2/thumb/armv7-m\libgcc.a(_arm_cmpdf2.o)
 .ARM.attributes
                0x0000122f       0x1d c:/program files (x86)/atollic/truestudio for arm pro 3.2.0/armtools/bin/../lib/gcc/arm-atollic-eabi/4.6.2/thumb/armv7-m\libgcc.a(_arm_fixdfsi.o)
 .ARM.attributes
                0x0000124c       0x1d c:/program files (x86)/atollic/truestudio for arm pro 3.2.0/armtools/bin/../lib/gcc/arm-atollic-eabi/4.6.2/thumb/armv7-m\libgcc.a(_aeabi_uldivmod.o)
 .ARM.attributes
                0x00001269       0x2d c:/program files (x86)/atollic/truestudio for arm pro 3.2.0/armtools/bin/../lib/gcc/arm-atollic-eabi/4.6.2/thumb/armv7-m\libgcc.a(bpabi.o)
 .ARM.attributes
                0x00001296       0x2d c:/program files (x86)/atollic/truestudio for arm pro 3.2.0/armtools/bin/../lib/gcc/arm-atollic-eabi/4.6.2/thumb/armv7-m\libgcc.a(unwind-arm.o)
 .ARM.attributes
                0x000012c3       0x1d c:/program files (x86)/atollic/truestudio for arm pro 3.2.0/armtools/bin/../lib/gcc/arm-atollic-eabi/4.6.2/thumb/armv7-m\libgcc.a(libunwind.o)
 .ARM.attributes
                0x000012e0       0x2d c:/program files (x86)/atollic/truestudio for arm pro 3.2.0/armtools/bin/../lib/gcc/arm-atollic-eabi/4.6.2/thumb/armv7-m\libgcc.a(pr-support.o)
 .ARM.attributes
                0x0000130d       0x1d c:/program files (x86)/atollic/truestudio for arm pro 3.2.0/armtools/bin/../lib/gcc/arm-atollic-eabi/4.6.2/thumb/armv7-m\libgcc.a(_dvmd_tls.o)
 .ARM.attributes
                0x0000132a       0x2d c:/program files (x86)/atollic/truestudio for arm pro 3.2.0/armtools/bin/../lib/gcc/arm-atollic-eabi/4.6.2/thumb/armv7-m\libgcc.a(_divdi3.o)
 .ARM.attributes
                0x00001357       0x2d c:/program files (x86)/atollic/truestudio for arm pro 3.2.0/armtools/bin/../lib/gcc/arm-atollic-eabi/4.6.2/thumb/armv7-m\libgcc.a(_udivdi3.o)
 .ARM.attributes
                0x00001384       0x2d c:/program files (x86)/atollic/truestudio for arm pro 3.2.0/armtools/bin/../lib/gcc/arm-atollic-eabi/4.6.2/../../../../arm-atollic-eabi/lib/thumb/armv7-m\libc.a(lib_a-abort.o)
 .ARM.attributes
                0x000013b1       0x2d c:/program files (x86)/atollic/truestudio for arm pro 3.2.0/armtools/bin/../lib/gcc/arm-atollic-eabi/4.6.2/../../../../arm-atollic-eabi/lib/thumb/armv7-m\libc.a(lib_a-signal.o)
 .ARM.attributes
                0x000013de       0x2d c:/program files (x86)/atollic/truestudio for arm pro 3.2.0/armtools/bin/../lib/gcc/arm-atollic-eabi/4.6.2/../../../../arm-atollic-eabi/lib/thumb/armv7-m\libc.a(lib_a-signalr.o)
 .ARM.attributes
                0x0000140b       0x2d c:/program files (x86)/atollic/truestudio for arm pro 3.2.0/armtools/bin/../lib/gcc/arm-atollic-eabi/4.6.2/thumb/armv7-m/crtend.o
 .ARM.attributes
                0x00001438       0x1d c:/program files (x86)/atollic/truestudio for arm pro 3.2.0/armtools/bin/../lib/gcc/arm-atollic-eabi/4.6.2/thumb/armv7-m/crtn.o
OUTPUT(uCOS-III.elf elf32-littlearm)

.debug_info     0x00000000    0x2b33f
 .debug_info    0x00000000     0x10f6 uCOS-III\Source\os_var.o
 .debug_info    0x000010f6     0x150f uCOS-III\Source\os_tmr.o
 .debug_info    0x00002605     0x1020 uCOS-III\Source\os_time.o
 .debug_info    0x00003625     0x106c uCOS-III\Source\os_tick.o
 .debug_info    0x00004691     0x17d7 uCOS-III\Source\os_task.o
 .debug_info    0x00005e68     0x121f uCOS-III\Source\os_stat.o
 .debug_info    0x00007087     0x11b1 uCOS-III\Source\os_sem.o
 .debug_info    0x00008238     0x1177 uCOS-III\Source\os_q.o
 .debug_info    0x000093af      0x1db uCOS-III\Source\os_prio.o
 .debug_info    0x0000958a     0x1058 uCOS-III\Source\os_pend_multi.o
 .debug_info    0x0000a5e2     0x1034 uCOS-III\Source\os_mutex.o
 .debug_info    0x0000b616      0x953 uCOS-III\Source\os_msg.o
 .debug_info    0x0000bf69      0x8ed uCOS-III\Source\os_mem.o
 .debug_info    0x0000c856       0x73 uCOS-III\Source\os_int.o
 .debug_info    0x0000c8c9     0x1224 uCOS-III\Source\os_flag.o
 .debug_info    0x0000daed     0x1c57 uCOS-III\Source\os_dbg.o
 .debug_info    0x0000f744     0x1c18 uCOS-III\Source\os_core.o
 .debug_info    0x0001135c      0xf38 uCOS-III\Source\os_cfg_app.o
 .debug_info    0x00012294      0xb51 uCOS-III\Ports\ARM-Cortex-M3\Generic\GNU\os_cpu_c.o
 .debug_info    0x00012de5       0xee uCOS-III\Ports\ARM-Cortex-M3\Generic\GNU\os_cpu_a.o
 .debug_info    0x00012ed3      0xda9 uC-LIB\lib_str.o
 .debug_info    0x00013c7c      0xee1 uC-LIB\lib_mem.o
 .debug_info    0x00014b5d      0x188 uC-LIB\lib_math.o
 .debug_info    0x00014ce5      0x465 uC-LIB\lib_ascii.o
 .debug_info    0x0001514a      0x589 uC-CPU\cpu_core.o
 .debug_info    0x000156d3      0x3b5 uC-CPU\ARM-Cortex-M3\GNU\cpu_c.o
 .debug_info    0x00015a88       0xdb uC-CPU\ARM-Cortex-M3\GNU\cpu_a.o
 .debug_info    0x00015b63       0xc7 BSP\cstartup.o
 .debug_info    0x00015c2a      0xe83 BSP\bsp_ser.o
 .debug_info    0x00016aad      0x55d BSP\bsp_lcd.o
 .debug_info    0x0001700a      0xbd9 BSP\bsp_ioe.o
 .debug_info    0x00017be3      0x9a3 BSP\bsp_int.o
 .debug_info    0x00018586      0x830 BSP\bsp.o
 .debug_info    0x00018db6      0x25a BSP\STM32F2xx\src\stm32f2xx_wwdg.o
 .debug_info    0x00019010      0xa53 BSP\STM32F2xx\src\stm32f2xx_usart.o
 .debug_info    0x00019a63     0x1e2c BSP\STM32F2xx\src\stm32f2xx_tim.o
 .debug_info    0x0001b88f      0x27e BSP\STM32F2xx\src\stm32f2xx_syscfg.o
 .debug_info    0x0001bb0d      0xb75 BSP\STM32F2xx\src\stm32f2xx_spi.o
 .debug_info    0x0001c682      0x8a8 BSP\STM32F2xx\src\stm32f2xx_sdio.o
 .debug_info    0x0001cf2a      0xf60 BSP\STM32F2xx\src\stm32f2xx_rtc.o
 .debug_info    0x0001de8a      0x295 BSP\STM32F2xx\src\stm32f2xx_rng.o
 .debug_info    0x0001e11f      0xd28 BSP\STM32F2xx\src\stm32f2xx_rcc.o
 .debug_info    0x0001ee47      0x4f7 BSP\STM32F2xx\src\stm32f2xx_pwr.o
 .debug_info    0x0001f33e      0x20f BSP\STM32F2xx\src\stm32f2xx_iwdg.o
 .debug_info    0x0001f54d      0xb95 BSP\STM32F2xx\src\stm32f2xx_i2c.o
 .debug_info    0x000200e2      0x54e BSP\STM32F2xx\src\stm32f2xx_hash_sha1.o
 .debug_info    0x00020630      0x4ed BSP\STM32F2xx\src\stm32f2xx_hash_md5.o
 .debug_info    0x00020b1d      0x58a BSP\STM32F2xx\src\stm32f2xx_hash.o
 .debug_info    0x000210a7      0x63d BSP\STM32F2xx\src\stm32f2xx_gpio.o
 .debug_info    0x000216e4      0x9a9 BSP\STM32F2xx\src\stm32f2xx_fsmc.o
 .debug_info    0x0002208d      0x778 BSP\STM32F2xx\src\stm32f2xx_flash.o
 .debug_info    0x00022805      0x376 BSP\STM32F2xx\src\stm32f2xx_exti.o
 .debug_info    0x00022b7b      0x7a7 BSP\STM32F2xx\src\stm32f2xx_dma.o
 .debug_info    0x00023322      0x5a1 BSP\STM32F2xx\src\stm32f2xx_dcmi.o
 .debug_info    0x000238c3      0x1f3 BSP\STM32F2xx\src\stm32f2xx_dbgmcu.o
 .debug_info    0x00023ab6      0x687 BSP\STM32F2xx\src\stm32f2xx_dac.o
 .debug_info    0x0002413d      0x6e3 BSP\STM32F2xx\src\stm32f2xx_cryp_tdes.o
 .debug_info    0x00024820      0x564 BSP\STM32F2xx\src\stm32f2xx_cryp_des.o
 .debug_info    0x00024d84     0x1168 BSP\STM32F2xx\src\stm32f2xx_cryp_aes.o
 .debug_info    0x00025eec      0x7a2 BSP\STM32F2xx\src\stm32f2xx_cryp.o
 .debug_info    0x0002668e      0x20f BSP\STM32F2xx\src\stm32f2xx_crc.o
 .debug_info    0x0002689d      0xc66 BSP\STM32F2xx\src\stm32f2xx_can.o
 .debug_info    0x00027503      0xcf9 BSP\STM32F2xx\src\stm32f2xx_adc.o
 .debug_info    0x000281fc      0x568 BSP\STM32F2xx\src\misc.o
 .debug_info    0x00028764      0xee9 BSP\OS\bsp_os.o
 .debug_info    0x0002964d      0x5cd BSP\CMSIS\Device Support\system_stm32f2xx.o
 .debug_info    0x00029c1a      0x99e APP\os_app_hooks.o
 .debug_info    0x0002a5b8      0xd87 APP\app.o

.debug_abbrev   0x00000000     0x57ac
 .debug_abbrev  0x00000000       0xbb uCOS-III\Source\os_var.o
 .debug_abbrev  0x000000bb      0x18a uCOS-III\Source\os_tmr.o
 .debug_abbrev  0x00000245      0x176 uCOS-III\Source\os_time.o
 .debug_abbrev  0x000003bb      0x171 uCOS-III\Source\os_tick.o
 .debug_abbrev  0x0000052c      0x176 uCOS-III\Source\os_task.o
 .debug_abbrev  0x000006a2      0x15d uCOS-III\Source\os_stat.o
 .debug_abbrev  0x000007ff      0x17e uCOS-III\Source\os_sem.o
 .debug_abbrev  0x0000097d      0x17e uCOS-III\Source\os_q.o
 .debug_abbrev  0x00000afb       0xd3 uCOS-III\Source\os_prio.o
 .debug_abbrev  0x00000bce      0x171 uCOS-III\Source\os_pend_multi.o
 .debug_abbrev  0x00000d3f      0x156 uCOS-III\Source\os_mutex.o
 .debug_abbrev  0x00000e95      0x145 uCOS-III\Source\os_msg.o
 .debug_abbrev  0x00000fda      0x120 uCOS-III\Source\os_mem.o
 .debug_abbrev  0x000010fa       0x2a uCOS-III\Source\os_int.o
 .debug_abbrev  0x00001124      0x16f uCOS-III\Source\os_flag.o
 .debug_abbrev  0x00001293      0x10c uCOS-III\Source\os_dbg.o
 .debug_abbrev  0x0000139f      0x199 uCOS-III\Source\os_core.o
 .debug_abbrev  0x00001538       0xfd uCOS-III\Source\os_cfg_app.o
 .debug_abbrev  0x00001635      0x1c7 uCOS-III\Ports\ARM-Cortex-M3\Generic\GNU\os_cpu_c.o
 .debug_abbrev  0x000017fc       0x14 uCOS-III\Ports\ARM-Cortex-M3\Generic\GNU\os_cpu_a.o
 .debug_abbrev  0x00001810      0x10d uC-LIB\lib_str.o
 .debug_abbrev  0x0000191d      0x175 uC-LIB\lib_mem.o
 .debug_abbrev  0x00001a92      0x102 uC-LIB\lib_math.o
 .debug_abbrev  0x00001b94       0xcd uC-LIB\lib_ascii.o
 .debug_abbrev  0x00001c61      0x15a uC-CPU\cpu_core.o
 .debug_abbrev  0x00001dbb      0x10a uC-CPU\ARM-Cortex-M3\GNU\cpu_c.o
 .debug_abbrev  0x00001ec5       0x14 uC-CPU\ARM-Cortex-M3\GNU\cpu_a.o
 .debug_abbrev  0x00001ed9       0x12 BSP\cstartup.o
 .debug_abbrev  0x00001eeb      0x20c BSP\bsp_ser.o
 .debug_abbrev  0x000020f7      0x153 BSP\bsp_lcd.o
 .debug_abbrev  0x0000224a      0x1c8 BSP\bsp_ioe.o
 .debug_abbrev  0x00002412      0x15a BSP\bsp_int.o
 .debug_abbrev  0x0000256c      0x1c1 BSP\bsp.o
 .debug_abbrev  0x0000272d      0x120 BSP\STM32F2xx\src\stm32f2xx_wwdg.o
 .debug_abbrev  0x0000284d      0x150 BSP\STM32F2xx\src\stm32f2xx_usart.o
 .debug_abbrev  0x0000299d      0x165 BSP\STM32F2xx\src\stm32f2xx_tim.o
 .debug_abbrev  0x00002b02      0x12c BSP\STM32F2xx\src\stm32f2xx_syscfg.o
 .debug_abbrev  0x00002c2e      0x171 BSP\STM32F2xx\src\stm32f2xx_spi.o
 .debug_abbrev  0x00002d9f      0x16f BSP\STM32F2xx\src\stm32f2xx_sdio.o
 .debug_abbrev  0x00002f0e      0x16d BSP\STM32F2xx\src\stm32f2xx_rtc.o
 .debug_abbrev  0x0000307b      0x139 BSP\STM32F2xx\src\stm32f2xx_rng.o
 .debug_abbrev  0x000031b4      0x1b9 BSP\STM32F2xx\src\stm32f2xx_rcc.o
 .debug_abbrev  0x0000336d      0x193 BSP\STM32F2xx\src\stm32f2xx_pwr.o
 .debug_abbrev  0x00003500       0xfc BSP\STM32F2xx\src\stm32f2xx_iwdg.o
 .debug_abbrev  0x000035fc      0x15f BSP\STM32F2xx\src\stm32f2xx_i2c.o
 .debug_abbrev  0x0000375b      0x191 BSP\STM32F2xx\src\stm32f2xx_hash_sha1.o
 .debug_abbrev  0x000038ec      0x191 BSP\STM32F2xx\src\stm32f2xx_hash_md5.o
 .debug_abbrev  0x00003a7d      0x1a3 BSP\STM32F2xx\src\stm32f2xx_hash.o
 .debug_abbrev  0x00003c20      0x184 BSP\STM32F2xx\src\stm32f2xx_gpio.o
 .debug_abbrev  0x00003da4      0x168 BSP\STM32F2xx\src\stm32f2xx_fsmc.o
 .debug_abbrev  0x00003f0c      0x16a BSP\STM32F2xx\src\stm32f2xx_flash.o
 .debug_abbrev  0x00004076      0x19a BSP\STM32F2xx\src\stm32f2xx_exti.o
 .debug_abbrev  0x00004210      0x150 BSP\STM32F2xx\src\stm32f2xx_dma.o
 .debug_abbrev  0x00004360      0x17c BSP\STM32F2xx\src\stm32f2xx_dcmi.o
 .debug_abbrev  0x000044dc       0xdc BSP\STM32F2xx\src\stm32f2xx_dbgmcu.o
 .debug_abbrev  0x000045b8      0x174 BSP\STM32F2xx\src\stm32f2xx_dac.o
 .debug_abbrev  0x0000472c      0x15f BSP\STM32F2xx\src\stm32f2xx_cryp_tdes.o
 .debug_abbrev  0x0000488b      0x15f BSP\STM32F2xx\src\stm32f2xx_cryp_des.o
 .debug_abbrev  0x000049ea      0x1d4 BSP\STM32F2xx\src\stm32f2xx_cryp_aes.o
 .debug_abbrev  0x00004bbe      0x182 BSP\STM32F2xx\src\stm32f2xx_cryp.o
 .debug_abbrev  0x00004d40      0x10c BSP\STM32F2xx\src\stm32f2xx_crc.o
 .debug_abbrev  0x00004e4c      0x1ae BSP\STM32F2xx\src\stm32f2xx_can.o
 .debug_abbrev  0x00004ffa      0x18b BSP\STM32F2xx\src\stm32f2xx_adc.o
 .debug_abbrev  0x00005185      0x137 BSP\STM32F2xx\src\misc.o
 .debug_abbrev  0x000052bc      0x148 BSP\OS\bsp_os.o
 .debug_abbrev  0x00005404      0x15e BSP\CMSIS\Device Support\system_stm32f2xx.o
 .debug_abbrev  0x00005562      0x107 APP\os_app_hooks.o
 .debug_abbrev  0x00005669      0x143 APP\app.o

.debug_line     0x00000000    0x11fa3
 .debug_line    0x00000000      0x214 uCOS-III\Source\os_var.o
 .debug_line    0x00000214      0x4b5 uCOS-III\Source\os_tmr.o
 .debug_line    0x000006c9      0x328 uCOS-III\Source\os_time.o
 .debug_line    0x000009f1      0x3b4 uCOS-III\Source\os_tick.o
 .debug_line    0x00000da5      0x6d5 uCOS-III\Source\os_task.o
 .debug_line    0x0000147a      0x363 uCOS-III\Source\os_stat.o
 .debug_line    0x000017dd      0x3de uCOS-III\Source\os_sem.o
 .debug_line    0x00001bbb      0x3b8 uCOS-III\Source\os_q.o
 .debug_line    0x00001f73      0x211 uCOS-III\Source\os_prio.o
 .debug_line    0x00002184      0x325 uCOS-III\Source\os_pend_multi.o
 .debug_line    0x000024a9      0x37c uCOS-III\Source\os_mutex.o
 .debug_line    0x00002825      0x322 uCOS-III\Source\os_msg.o
 .debug_line    0x00002b47      0x26b uCOS-III\Source\os_mem.o
 .debug_line    0x00002db2       0x1d uCOS-III\Source\os_int.o
 .debug_line    0x00002dcf      0x41f uCOS-III\Source\os_flag.o
 .debug_line    0x000031ee      0x299 uCOS-III\Source\os_dbg.o
 .debug_line    0x00003487      0x7ec uCOS-III\Source\os_core.o
 .debug_line    0x00003c73      0x259 uCOS-III\Source\os_cfg_app.o
 .debug_line    0x00003ecc      0x423 uCOS-III\Ports\ARM-Cortex-M3\Generic\GNU\os_cpu_c.o
 .debug_line    0x000042ef       0x9f uCOS-III\Ports\ARM-Cortex-M3\Generic\GNU\os_cpu_a.o
 .debug_line    0x0000438e      0x5a8 uC-LIB\lib_str.o
 .debug_line    0x00004936      0x6a5 uC-LIB\lib_mem.o
 .debug_line    0x00004fdb      0x1df uC-LIB\lib_math.o
 .debug_line    0x000051ba      0x43e uC-LIB\lib_ascii.o
 .debug_line    0x000055f8      0x371 uC-CPU\cpu_core.o
 .debug_line    0x00005969      0x292 uC-CPU\ARM-Cortex-M3\GNU\cpu_c.o
 .debug_line    0x00005bfb       0x82 uC-CPU\ARM-Cortex-M3\GNU\cpu_a.o
 .debug_line    0x00005c7d       0xd8 BSP\cstartup.o
 .debug_line    0x00005d55      0x705 BSP\bsp_ser.o
 .debug_line    0x0000645a      0x516 BSP\bsp_lcd.o
 .debug_line    0x00006970      0x783 BSP\bsp_ioe.o
 .debug_line    0x000070f3      0x83a BSP\bsp_int.o
 .debug_line    0x0000792d      0x6b1 BSP\bsp.o
 .debug_line    0x00007fde      0x2c3 BSP\STM32F2xx\src\stm32f2xx_wwdg.o
 .debug_line    0x000082a1      0x585 BSP\STM32F2xx\src\stm32f2xx_usart.o
 .debug_line    0x00008826      0xb5a BSP\STM32F2xx\src\stm32f2xx_tim.o
 .debug_line    0x00009380      0x2a1 BSP\STM32F2xx\src\stm32f2xx_syscfg.o
 .debug_line    0x00009621      0x507 BSP\STM32F2xx\src\stm32f2xx_spi.o
 .debug_line    0x00009b28      0x526 BSP\STM32F2xx\src\stm32f2xx_sdio.o
 .debug_line    0x0000a04e      0x7b8 BSP\STM32F2xx\src\stm32f2xx_rtc.o
 .debug_line    0x0000a806      0x2c4 BSP\STM32F2xx\src\stm32f2xx_rng.o
 .debug_line    0x0000aaca      0x67d BSP\STM32F2xx\src\stm32f2xx_rcc.o
 .debug_line    0x0000b147      0x32a BSP\STM32F2xx\src\stm32f2xx_pwr.o
 .debug_line    0x0000b471      0x298 BSP\STM32F2xx\src\stm32f2xx_iwdg.o
 .debug_line    0x0000b709      0x5bd BSP\STM32F2xx\src\stm32f2xx_i2c.o
 .debug_line    0x0000bcc6      0x46a BSP\STM32F2xx\src\stm32f2xx_hash_sha1.o
 .debug_line    0x0000c130      0x44b BSP\STM32F2xx\src\stm32f2xx_hash_md5.o
 .debug_line    0x0000c57b      0x451 BSP\STM32F2xx\src\stm32f2xx_hash.o
 .debug_line    0x0000c9cc      0x420 BSP\STM32F2xx\src\stm32f2xx_gpio.o
 .debug_line    0x0000cdec      0x53a BSP\STM32F2xx\src\stm32f2xx_fsmc.o
 .debug_line    0x0000d326      0x56d BSP\STM32F2xx\src\stm32f2xx_flash.o
 .debug_line    0x0000d893      0x386 BSP\STM32F2xx\src\stm32f2xx_exti.o
 .debug_line    0x0000dc19      0x4bd BSP\STM32F2xx\src\stm32f2xx_dma.o
 .debug_line    0x0000e0d6      0x420 BSP\STM32F2xx\src\stm32f2xx_dcmi.o
 .debug_line    0x0000e4f6      0x288 BSP\STM32F2xx\src\stm32f2xx_dbgmcu.o
 .debug_line    0x0000e77e      0x443 BSP\STM32F2xx\src\stm32f2xx_dac.o
 .debug_line    0x0000ebc1      0x456 BSP\STM32F2xx\src\stm32f2xx_cryp_tdes.o
 .debug_line    0x0000f017      0x3dd BSP\STM32F2xx\src\stm32f2xx_cryp_des.o
 .debug_line    0x0000f3f4      0x7a1 BSP\STM32F2xx\src\stm32f2xx_cryp_aes.o
 .debug_line    0x0000fb95      0x475 BSP\STM32F2xx\src\stm32f2xx_cryp.o
 .debug_line    0x0001000a      0x2a5 BSP\STM32F2xx\src\stm32f2xx_crc.o
 .debug_line    0x000102af      0x63f BSP\STM32F2xx\src\stm32f2xx_can.o
 .debug_line    0x000108ee      0x635 BSP\STM32F2xx\src\stm32f2xx_adc.o
 .debug_line    0x00010f23      0x326 BSP\STM32F2xx\src\misc.o
 .debug_line    0x00011249      0x462 BSP\OS\bsp_os.o
 .debug_line    0x000116ab      0x250 BSP\CMSIS\Device Support\system_stm32f2xx.o
 .debug_line    0x000118fb      0x2e9 APP\os_app_hooks.o
 .debug_line    0x00011be4      0x3bf APP\app.o

.debug_str      0x00000000     0xac94
 .debug_str     0x00000000      0xa2a uCOS-III\Source\os_var.o
                                0xb06 (size before relaxing)
 .debug_str     0x00000a2a      0xeb1 uCOS-III\Source\os_tmr.o
                               0x1536 (size before relaxing)
 .debug_str     0x000018db       0xad uCOS-III\Source\os_time.o
                               0x1386 (size before relaxing)
 .debug_str     0x00001988      0x16c uCOS-III\Source\os_tick.o
                               0x13ed (size before relaxing)
 .debug_str     0x00001af4      0x251 uCOS-III\Source\os_task.o
                               0x157d (size before relaxing)
 .debug_str     0x00001d45      0x128 uCOS-III\Source\os_stat.o
                               0x14da (size before relaxing)
 .debug_str     0x00001e6d       0xec uCOS-III\Source\os_sem.o
                               0x1376 (size before relaxing)
 .debug_str     0x00001f59       0xaf uCOS-III\Source\os_q.o
                               0x1374 (size before relaxing)
 .debug_str     0x00002008       0x87 uCOS-III\Source\os_prio.o
                                0x1ee (size before relaxing)
 .debug_str     0x0000208f       0x9c uCOS-III\Source\os_pend_multi.o
                               0x1324 (size before relaxing)
 .debug_str     0x0000212b       0xb7 uCOS-III\Source\os_mutex.o
                               0x1382 (size before relaxing)
 .debug_str     0x000021e2       0xb5 uCOS-III\Source\os_msg.o
                                0xf75 (size before relaxing)
 .debug_str     0x00002297       0x99 uCOS-III\Source\os_mem.o
                                0xf52 (size before relaxing)
 .debug_str     0x00002330       0x2b uCOS-III\Source\os_int.o
                                0x16f (size before relaxing)
 .debug_str     0x0000235b      0x10e uCOS-III\Source\os_flag.o
                               0x13d4 (size before relaxing)
 .debug_str     0x00002469      0x4fb uCOS-III\Source\os_dbg.o
                                0xfe9 (size before relaxing)
 .debug_str     0x00002964      0x35b uCOS-III\Source\os_core.o
                               0x1861 (size before relaxing)
 .debug_str     0x00002cbf      0x20b uCOS-III\Source\os_cfg_app.o
                                0xa4c (size before relaxing)
 .debug_str     0x00002eca      0x10c uCOS-III\Ports\ARM-Cortex-M3\Generic\GNU\os_cpu_c.o
                                0x828 (size before relaxing)
 .debug_str     0x00002fd6      0x48f uC-LIB\lib_str.o
                                0x648 (size before relaxing)
 .debug_str     0x00003465      0x7f0 uC-LIB\lib_mem.o
                                0x9f4 (size before relaxing)
 .debug_str     0x00003c55       0x7f uC-LIB\lib_math.o
                                0x1dc (size before relaxing)
 .debug_str     0x00003cd4      0x14c uC-LIB\lib_ascii.o
                                0x2c8 (size before relaxing)
 .debug_str     0x00003e20      0x224 uC-CPU\cpu_core.o
                                0x3db (size before relaxing)
 .debug_str     0x00004044       0xd8 uC-CPU\ARM-Cortex-M3\GNU\cpu_c.o
                                0x270 (size before relaxing)
 .debug_str     0x0000411c      0x45b BSP\bsp_ser.o
                                0xa4a (size before relaxing)
 .debug_str     0x00004577      0x2c1 BSP\bsp_lcd.o
                                0x604 (size before relaxing)
 .debug_str     0x00004838      0x4a8 BSP\bsp_ioe.o
                                0x857 (size before relaxing)
 .debug_str     0x00004ce0      0x7aa BSP\bsp_int.o
                                0x950 (size before relaxing)
 .debug_str     0x0000548a      0x19b BSP\bsp.o
                                0x72f (size before relaxing)
 .debug_str     0x00005625       0xcd BSP\STM32F2xx\src\stm32f2xx_wwdg.o
                                0x27e (size before relaxing)
 .debug_str     0x000056f2      0x355 BSP\STM32F2xx\src\stm32f2xx_usart.o
                                0x68b (size before relaxing)
 .debug_str     0x00005a47      0xb4d BSP\STM32F2xx\src\stm32f2xx_tim.o
                                0xdcc (size before relaxing)
 .debug_str     0x00006594      0x145 BSP\STM32F2xx\src\stm32f2xx_syscfg.o
                                0x2fb (size before relaxing)
 .debug_str     0x000066d9      0x421 BSP\STM32F2xx\src\stm32f2xx_spi.o
                                0x669 (size before relaxing)
 .debug_str     0x00006afa      0x468 BSP\STM32F2xx\src\stm32f2xx_sdio.o
                                0x647 (size before relaxing)
 .debug_str     0x00006f62      0x6f3 BSP\STM32F2xx\src\stm32f2xx_rtc.o
                                0x924 (size before relaxing)
 .debug_str     0x00007655       0xb5 BSP\STM32F2xx\src\stm32f2xx_rng.o
                                0x280 (size before relaxing)
 .debug_str     0x0000770a      0x4f5 BSP\STM32F2xx\src\stm32f2xx_rcc.o
                                0x84c (size before relaxing)
 .debug_str     0x00007bff      0x185 BSP\STM32F2xx\src\stm32f2xx_pwr.o
                                0x34b (size before relaxing)
 .debug_str     0x00007d84       0xca BSP\STM32F2xx\src\stm32f2xx_iwdg.o
                                0x268 (size before relaxing)
 .debug_str     0x00007e4e      0x31e BSP\STM32F2xx\src\stm32f2xx_i2c.o
                                0x661 (size before relaxing)
 .debug_str     0x0000816c      0x12f BSP\STM32F2xx\src\stm32f2xx_hash_sha1.o
                                0x2f3 (size before relaxing)
 .debug_str     0x0000829b       0x6b BSP\STM32F2xx\src\stm32f2xx_hash_md5.o
                                0x2ee (size before relaxing)
 .debug_str     0x00008306      0x1f1 BSP\STM32F2xx\src\stm32f2xx_hash.o
                                0x42e (size before relaxing)
 .debug_str     0x000084f7      0x17a BSP\STM32F2xx\src\stm32f2xx_gpio.o
                                0x49f (size before relaxing)
 .debug_str     0x00008671      0x3a0 BSP\STM32F2xx\src\stm32f2xx_fsmc.o
                                0x790 (size before relaxing)
 .debug_str     0x00008a11      0x3ab BSP\STM32F2xx\src\stm32f2xx_flash.o
                                0x583 (size before relaxing)
 .debug_str     0x00008dbc      0x1af BSP\STM32F2xx\src\stm32f2xx_exti.o
                                0x36a (size before relaxing)
 .debug_str     0x00008f6b      0x243 BSP\STM32F2xx\src\stm32f2xx_dma.o
                                0x548 (size before relaxing)
 .debug_str     0x000091ae      0x2f7 BSP\STM32F2xx\src\stm32f2xx_dcmi.o
                                0x4d5 (size before relaxing)
 .debug_str     0x000094a5       0xbe BSP\STM32F2xx\src\stm32f2xx_dbgmcu.o
                                0x251 (size before relaxing)
 .debug_str     0x00009563      0x270 BSP\STM32F2xx\src\stm32f2xx_dac.o
                                0x44f (size before relaxing)
 .debug_str     0x000097d3      0x1cd BSP\STM32F2xx\src\stm32f2xx_cryp_tdes.o
                                0x3d4 (size before relaxing)
 .debug_str     0x000099a0       0x4a BSP\STM32F2xx\src\stm32f2xx_cryp_des.o
                                0x3ce (size before relaxing)
 .debug_str     0x000099ea       0xa9 BSP\STM32F2xx\src\stm32f2xx_cryp_aes.o
                                0x3e3 (size before relaxing)
 .debug_str     0x00009a93      0x259 BSP\STM32F2xx\src\stm32f2xx_cryp.o
                                0x5b9 (size before relaxing)
 .debug_str     0x00009cec       0xb2 BSP\STM32F2xx\src\stm32f2xx_crc.o
                                0x247 (size before relaxing)
 .debug_str     0x00009d9e      0x4fe BSP\STM32F2xx\src\stm32f2xx_can.o
                                0x73a (size before relaxing)
 .debug_str     0x0000a29c      0x5f8 BSP\STM32F2xx\src\stm32f2xx_adc.o
                                0x800 (size before relaxing)
 .debug_str     0x0000a894      0x1a8 BSP\STM32F2xx\src\misc.o
                                0x3cf (size before relaxing)
 .debug_str     0x0000aa3c       0x95 BSP\OS\bsp_os.o
                               0x12fb (size before relaxing)
 .debug_str     0x0000aad1       0x8b BSP\CMSIS\Device Support\system_stm32f2xx.o
                                0x3a1 (size before relaxing)
 .debug_str     0x0000ab5c       0xd8 APP\os_app_hooks.o
                                0x740 (size before relaxing)
 .debug_str     0x0000ac34       0x60 APP\app.o
                               0x1289 (size before relaxing)

.comment        0x00000000       0x89
 .comment       0x00000000       0x89 uCOS-III\Source\os_var.o
                                 0x8a (size before relaxing)
 .comment       0x00000000       0x8a uCOS-III\Source\os_tmr.o
 .comment       0x00000000       0x8a uCOS-III\Source\os_time.o
 .comment       0x00000000       0x8a uCOS-III\Source\os_tick.o
 .comment       0x00000000       0x8a uCOS-III\Source\os_task.o
 .comment       0x00000000       0x8a uCOS-III\Source\os_stat.o
 .comment       0x00000000       0x8a uCOS-III\Source\os_sem.o
 .comment       0x00000000       0x8a uCOS-III\Source\os_q.o
 .comment       0x00000000       0x8a uCOS-III\Source\os_prio.o
 .comment       0x00000000       0x8a uCOS-III\Source\os_pend_multi.o
 .comment       0x00000000       0x8a uCOS-III\Source\os_mutex.o
 .comment       0x00000000       0x8a uCOS-III\Source\os_msg.o
 .comment       0x00000000       0x8a uCOS-III\Source\os_mem.o
 .comment       0x00000000       0x8a uCOS-III\Source\os_int.o
 .comment       0x00000000       0x8a uCOS-III\Source\os_flag.o
 .comment       0x00000000       0x8a uCOS-III\Source\os_dbg.o
 .comment       0x00000000       0x8a uCOS-III\Source\os_core.o
 .comment       0x00000000       0x8a uCOS-III\Source\os_cfg_app.o
 .comment       0x00000000       0x8a uCOS-III\Ports\ARM-Cortex-M3\Generic\GNU\os_cpu_c.o
 .comment       0x00000000       0x8a uC-LIB\lib_str.o
 .comment       0x00000000       0x8a uC-LIB\lib_mem.o
 .comment       0x00000000       0x8a uC-LIB\lib_math.o
 .comment       0x00000000       0x8a uC-LIB\lib_ascii.o
 .comment       0x00000000       0x8a uC-CPU\cpu_core.o
 .comment       0x00000000       0x8a uC-CPU\ARM-Cortex-M3\GNU\cpu_c.o
 .comment       0x00000000       0x8a BSP\bsp_ser.o
 .comment       0x00000000       0x8a BSP\bsp_lcd.o
 .comment       0x00000000       0x8a BSP\bsp_ioe.o
 .comment       0x00000000       0x8a BSP\bsp_int.o
 .comment       0x00000000       0x8a BSP\bsp.o
 .comment       0x00000000       0x8a BSP\STM32F2xx\src\stm32f2xx_wwdg.o
 .comment       0x00000000       0x8a BSP\STM32F2xx\src\stm32f2xx_usart.o
 .comment       0x00000000       0x8a BSP\STM32F2xx\src\stm32f2xx_tim.o
 .comment       0x00000000       0x8a BSP\STM32F2xx\src\stm32f2xx_syscfg.o
 .comment       0x00000000       0x8a BSP\STM32F2xx\src\stm32f2xx_spi.o
 .comment       0x00000000       0x8a BSP\STM32F2xx\src\stm32f2xx_sdio.o
 .comment       0x00000000       0x8a BSP\STM32F2xx\src\stm32f2xx_rtc.o
 .comment       0x00000000       0x8a BSP\STM32F2xx\src\stm32f2xx_rng.o
 .comment       0x00000000       0x8a BSP\STM32F2xx\src\stm32f2xx_rcc.o
 .comment       0x00000000       0x8a BSP\STM32F2xx\src\stm32f2xx_pwr.o
 .comment       0x00000000       0x8a BSP\STM32F2xx\src\stm32f2xx_iwdg.o
 .comment       0x00000000       0x8a BSP\STM32F2xx\src\stm32f2xx_i2c.o
 .comment       0x00000000       0x8a BSP\STM32F2xx\src\stm32f2xx_hash_sha1.o
 .comment       0x00000000       0x8a BSP\STM32F2xx\src\stm32f2xx_hash_md5.o
 .comment       0x00000000       0x8a BSP\STM32F2xx\src\stm32f2xx_hash.o
 .comment       0x00000000       0x8a BSP\STM32F2xx\src\stm32f2xx_gpio.o
 .comment       0x00000000       0x8a BSP\STM32F2xx\src\stm32f2xx_fsmc.o
 .comment       0x00000000       0x8a BSP\STM32F2xx\src\stm32f2xx_flash.o
 .comment       0x00000000       0x8a BSP\STM32F2xx\src\stm32f2xx_exti.o
 .comment       0x00000000       0x8a BSP\STM32F2xx\src\stm32f2xx_dma.o
 .comment       0x00000000       0x8a BSP\STM32F2xx\src\stm32f2xx_dcmi.o
 .comment       0x00000000       0x8a BSP\STM32F2xx\src\stm32f2xx_dbgmcu.o
 .comment       0x00000000       0x8a BSP\STM32F2xx\src\stm32f2xx_dac.o
 .comment       0x00000000       0x8a BSP\STM32F2xx\src\stm32f2xx_cryp_tdes.o
 .comment       0x00000000       0x8a BSP\STM32F2xx\src\stm32f2xx_cryp_des.o
 .comment       0x00000000       0x8a BSP\STM32F2xx\src\stm32f2xx_cryp_aes.o
 .comment       0x00000000       0x8a BSP\STM32F2xx\src\stm32f2xx_cryp.o
 .comment       0x00000000       0x8a BSP\STM32F2xx\src\stm32f2xx_crc.o
 .comment       0x00000000       0x8a BSP\STM32F2xx\src\stm32f2xx_can.o
 .comment       0x00000000       0x8a BSP\STM32F2xx\src\stm32f2xx_adc.o
 .comment       0x00000000       0x8a BSP\STM32F2xx\src\misc.o
 .comment       0x00000000       0x8a BSP\OS\bsp_os.o
 .comment       0x00000000       0x8a BSP\CMSIS\Device Support\system_stm32f2xx.o
 .comment       0x00000000       0x8a APP\os_app_hooks.o
 .comment       0x00000000       0x8a APP\app.o

.debug_loc      0x00000000     0xd0a4
 .debug_loc     0x00000000      0x2d9 uCOS-III\Source\os_tmr.o
 .debug_loc     0x000002d9      0x118 uCOS-III\Source\os_time.o
 .debug_loc     0x000003f1      0x188 uCOS-III\Source\os_tick.o
 .debug_loc     0x00000579      0x578 uCOS-III\Source\os_task.o
 .debug_loc     0x00000af1       0xe2 uCOS-III\Source\os_stat.o
 .debug_loc     0x00000bd3      0x233 uCOS-III\Source\os_sem.o
 .debug_loc     0x00000e06      0x1fa uCOS-III\Source\os_q.o
 .debug_loc     0x00001000       0xe0 uCOS-III\Source\os_prio.o
 .debug_loc     0x000010e0       0xe0 uCOS-III\Source\os_pend_multi.o
 .debug_loc     0x000011c0      0x18a uCOS-III\Source\os_mutex.o
 .debug_loc     0x0000134a      0x118 uCOS-III\Source\os_msg.o
 .debug_loc     0x00001462      0x118 uCOS-III\Source\os_mem.o
 .debug_loc     0x0000157a      0x26a uCOS-III\Source\os_flag.o
 .debug_loc     0x000017e4       0x38 uCOS-III\Source\os_dbg.o
 .debug_loc     0x0000181c      0x870 uCOS-III\Source\os_core.o
 .debug_loc     0x0000208c       0x2c uCOS-III\Source\os_cfg_app.o
 .debug_loc     0x000020b8      0x244 uCOS-III\Ports\ARM-Cortex-M3\Generic\GNU\os_cpu_c.o
 .debug_loc     0x000022fc      0x544 uC-LIB\lib_str.o
 .debug_loc     0x00002840      0x3f8 uC-LIB\lib_mem.o
 .debug_loc     0x00002c38       0xd4 uC-LIB\lib_math.o
 .debug_loc     0x00002d0c      0x380 uC-LIB\lib_ascii.o
 .debug_loc     0x0000308c      0x3ee uC-CPU\cpu_core.o
 .debug_loc     0x0000347a      0x188 uC-CPU\ARM-Cortex-M3\GNU\cpu_c.o
 .debug_loc     0x00003602      0x206 BSP\bsp_ser.o
 .debug_loc     0x00003808      0x11a BSP\bsp_lcd.o
 .debug_loc     0x00003922      0x41e BSP\bsp_ioe.o
 .debug_loc     0x00003d40      0xfcc BSP\bsp_int.o
 .debug_loc     0x00004d0c      0x28a BSP\bsp.o
 .debug_loc     0x00004f96      0x19c BSP\STM32F2xx\src\stm32f2xx_wwdg.o
 .debug_loc     0x00005132      0x658 BSP\STM32F2xx\src\stm32f2xx_usart.o
 .debug_loc     0x0000578a     0x1420 BSP\STM32F2xx\src\stm32f2xx_tim.o
 .debug_loc     0x00006baa      0x144 BSP\STM32F2xx\src\stm32f2xx_syscfg.o
 .debug_loc     0x00006cee      0x540 BSP\STM32F2xx\src\stm32f2xx_spi.o
 .debug_loc     0x0000722e      0x648 BSP\STM32F2xx\src\stm32f2xx_sdio.o
 .debug_loc     0x00007876      0x97c BSP\STM32F2xx\src\stm32f2xx_rtc.o
 .debug_loc     0x000081f2      0x1a8 BSP\STM32F2xx\src\stm32f2xx_rng.o
 .debug_loc     0x0000839a      0x97c BSP\STM32F2xx\src\stm32f2xx_rcc.o
 .debug_loc     0x00008d16      0x250 BSP\STM32F2xx\src\stm32f2xx_pwr.o
 .debug_loc     0x00008f66      0x138 BSP\STM32F2xx\src\stm32f2xx_iwdg.o
 .debug_loc     0x0000909e      0x738 BSP\STM32F2xx\src\stm32f2xx_i2c.o
 .debug_loc     0x000097d6       0x74 BSP\STM32F2xx\src\stm32f2xx_hash_sha1.o
 .debug_loc     0x0000984a       0x74 BSP\STM32F2xx\src\stm32f2xx_hash_md5.o
 .debug_loc     0x000098be      0x388 BSP\STM32F2xx\src\stm32f2xx_hash.o
 .debug_loc     0x00009c46      0x310 BSP\STM32F2xx\src\stm32f2xx_gpio.o
 .debug_loc     0x00009f56      0x41c BSP\STM32F2xx\src\stm32f2xx_fsmc.o
 .debug_loc     0x0000a372      0x624 BSP\STM32F2xx\src\stm32f2xx_flash.o
 .debug_loc     0x0000a996      0x1b4 BSP\STM32F2xx\src\stm32f2xx_exti.o
 .debug_loc     0x0000ab4a      0x428 BSP\STM32F2xx\src\stm32f2xx_dma.o
 .debug_loc     0x0000af72      0x330 BSP\STM32F2xx\src\stm32f2xx_dcmi.o
 .debug_loc     0x0000b2a2      0x100 BSP\STM32F2xx\src\stm32f2xx_dbgmcu.o
 .debug_loc     0x0000b3a2      0x3ac BSP\STM32F2xx\src\stm32f2xx_dac.o
 .debug_loc     0x0000b74e       0x74 BSP\STM32F2xx\src\stm32f2xx_cryp_tdes.o
 .debug_loc     0x0000b7c2       0x74 BSP\STM32F2xx\src\stm32f2xx_cryp_des.o
 .debug_loc     0x0000b836       0xae BSP\STM32F2xx\src\stm32f2xx_cryp_aes.o
 .debug_loc     0x0000b8e4      0x394 BSP\STM32F2xx\src\stm32f2xx_cryp.o
 .debug_loc     0x0000bc78      0x12c BSP\STM32F2xx\src\stm32f2xx_crc.o
 .debug_loc     0x0000bda4      0x578 BSP\STM32F2xx\src\stm32f2xx_can.o
 .debug_loc     0x0000c31c      0x838 BSP\STM32F2xx\src\stm32f2xx_adc.o
 .debug_loc     0x0000cb54      0x118 BSP\STM32F2xx\src\misc.o
 .debug_loc     0x0000cc6c       0xe0 BSP\OS\bsp_os.o
 .debug_loc     0x0000cd4c       0x9c BSP\CMSIS\Device Support\system_stm32f2xx.o
 .debug_loc     0x0000cde8      0x1f4 APP\os_app_hooks.o
 .debug_loc     0x0000cfdc       0xc8 APP\app.o

.debug_aranges  0x00000000     0x2550
 .debug_aranges
                0x00000000       0x80 uCOS-III\Source\os_tmr.o
 .debug_aranges
                0x00000080       0x40 uCOS-III\Source\os_time.o
 .debug_aranges
                0x000000c0       0x50 uCOS-III\Source\os_tick.o
 .debug_aranges
                0x00000110       0xe0 uCOS-III\Source\os_task.o
 .debug_aranges
                0x000001f0       0x38 uCOS-III\Source\os_stat.o
 .debug_aranges
                0x00000228       0x68 uCOS-III\Source\os_sem.o
 .debug_aranges
                0x00000290       0x60 uCOS-III\Source\os_q.o
 .debug_aranges
                0x000002f0       0x38 uCOS-III\Source\os_prio.o
 .debug_aranges
                0x00000328       0x38 uCOS-III\Source\os_pend_multi.o
 .debug_aranges
                0x00000360       0x50 uCOS-III\Source\os_mutex.o
 .debug_aranges
                0x000003b0       0x40 uCOS-III\Source\os_msg.o
 .debug_aranges
                0x000003f0       0x40 uCOS-III\Source\os_mem.o
 .debug_aranges
                0x00000430       0x70 uCOS-III\Source\os_flag.o
 .debug_aranges
                0x000004a0       0x20 uCOS-III\Source\os_dbg.o
 .debug_aranges
                0x000004c0      0x150 uCOS-III\Source\os_core.o
 .debug_aranges
                0x00000610       0x20 uCOS-III\Source\os_cfg_app.o
 .debug_aranges
                0x00000630       0x70 uCOS-III\Ports\ARM-Cortex-M3\Generic\GNU\os_cpu_c.o
 .debug_aranges
                0x000006a0       0x20 uCOS-III\Ports\ARM-Cortex-M3\Generic\GNU\os_cpu_a.o
 .debug_aranges
                0x000006c0       0xd8 uC-LIB\lib_str.o
 .debug_aranges
                0x00000798       0xa8 uC-LIB\lib_mem.o
 .debug_aranges
                0x00000840       0x38 uC-LIB\lib_math.o
 .debug_aranges
                0x00000878       0x98 uC-LIB\lib_ascii.o
 .debug_aranges
                0x00000910       0xb0 uC-CPU\cpu_core.o
 .debug_aranges
                0x000009c0       0x50 uC-CPU\ARM-Cortex-M3\GNU\cpu_c.o
 .debug_aranges
                0x00000a10       0x20 uC-CPU\ARM-Cortex-M3\GNU\cpu_a.o
 .debug_aranges
                0x00000a30       0x58 BSP\cstartup.o
 .debug_aranges
                0x00000a88       0x60 BSP\bsp_ser.o
 .debug_aranges
                0x00000ae8       0x40 BSP\bsp_lcd.o
 .debug_aranges
                0x00000b28       0xb0 BSP\bsp_ioe.o
 .debug_aranges
                0x00000bd8      0x2e8 BSP\bsp_int.o
 .debug_aranges
                0x00000ec0       0x78 BSP\bsp.o
 .debug_aranges
                0x00000f38       0x58 BSP\STM32F2xx\src\stm32f2xx_wwdg.o
 .debug_aranges
                0x00000f90      0x100 BSP\STM32F2xx\src\stm32f2xx_usart.o
 .debug_aranges
                0x00001090      0x2f8 BSP\STM32F2xx\src\stm32f2xx_tim.o
 .debug_aranges
                0x00001388       0x48 BSP\STM32F2xx\src\stm32f2xx_syscfg.o
 .debug_aranges
                0x000013d0       0xd8 BSP\STM32F2xx\src\stm32f2xx_spi.o
 .debug_aranges
                0x000014a8      0x108 BSP\STM32F2xx\src\stm32f2xx_sdio.o
 .debug_aranges
                0x000015b0      0x178 BSP\STM32F2xx\src\stm32f2xx_rtc.o
 .debug_aranges
                0x00001728       0x58 BSP\STM32F2xx\src\stm32f2xx_rng.o
 .debug_aranges
                0x00001780      0x178 BSP\STM32F2xx\src\stm32f2xx_rcc.o
 .debug_aranges
                0x000018f8       0x70 BSP\STM32F2xx\src\stm32f2xx_pwr.o
 .debug_aranges
                0x00001968       0x48 BSP\STM32F2xx\src\stm32f2xx_iwdg.o
 .debug_aranges
                0x000019b0      0x120 BSP\STM32F2xx\src\stm32f2xx_i2c.o
 .debug_aranges
                0x00001ad0       0x28 BSP\STM32F2xx\src\stm32f2xx_hash_sha1.o
 .debug_aranges
                0x00001af8       0x28 BSP\STM32F2xx\src\stm32f2xx_hash_md5.o
 .debug_aranges
                0x00001b20       0xa0 BSP\STM32F2xx\src\stm32f2xx_hash.o
 .debug_aranges
                0x00001bc0       0x88 BSP\STM32F2xx\src\stm32f2xx_gpio.o
 .debug_aranges
                0x00001c48       0xb0 BSP\STM32F2xx\src\stm32f2xx_fsmc.o
 .debug_aranges
                0x00001cf8      0x108 BSP\STM32F2xx\src\stm32f2xx_flash.o
 .debug_aranges
                0x00001e00       0x58 BSP\STM32F2xx\src\stm32f2xx_exti.o
 .debug_aranges
                0x00001e58       0xb0 BSP\STM32F2xx\src\stm32f2xx_dma.o
 .debug_aranges
                0x00001f08       0x90 BSP\STM32F2xx\src\stm32f2xx_dcmi.o
 .debug_aranges
                0x00001f98       0x40 BSP\STM32F2xx\src\stm32f2xx_dbgmcu.o
 .debug_aranges
                0x00001fd8       0xa0 BSP\STM32F2xx\src\stm32f2xx_dac.o
 .debug_aranges
                0x00002078       0x28 BSP\STM32F2xx\src\stm32f2xx_cryp_tdes.o
 .debug_aranges
                0x000020a0       0x28 BSP\STM32F2xx\src\stm32f2xx_cryp_des.o
 .debug_aranges
                0x000020c8       0x30 BSP\STM32F2xx\src\stm32f2xx_cryp_aes.o
 .debug_aranges
                0x000020f8       0xa0 BSP\STM32F2xx\src\stm32f2xx_cryp.o
 .debug_aranges
                0x00002198       0x48 BSP\STM32F2xx\src\stm32f2xx_crc.o
 .debug_aranges
                0x000021e0       0xe0 BSP\STM32F2xx\src\stm32f2xx_can.o
 .debug_aranges
                0x000022c0      0x148 BSP\STM32F2xx\src\stm32f2xx_adc.o
 .debug_aranges
                0x00002408       0x40 BSP\STM32F2xx\src\misc.o
 .debug_aranges
                0x00002448       0x38 BSP\OS\bsp_os.o
 .debug_aranges
                0x00002480       0x30 BSP\CMSIS\Device Support\system_stm32f2xx.o
 .debug_aranges
                0x000024b0       0x68 APP\os_app_hooks.o
 .debug_aranges
                0x00002518       0x38 APP\app.o

.debug_ranges   0x00000000     0x2118
 .debug_ranges  0x00000000       0x70 uCOS-III\Source\os_tmr.o
 .debug_ranges  0x00000070       0x30 uCOS-III\Source\os_time.o
 .debug_ranges  0x000000a0       0x40 uCOS-III\Source\os_tick.o
 .debug_ranges  0x000000e0       0xd0 uCOS-III\Source\os_task.o
 .debug_ranges  0x000001b0       0x28 uCOS-III\Source\os_stat.o
 .debug_ranges  0x000001d8       0x58 uCOS-III\Source\os_sem.o
 .debug_ranges  0x00000230       0x50 uCOS-III\Source\os_q.o
 .debug_ranges  0x00000280       0x28 uCOS-III\Source\os_prio.o
 .debug_ranges  0x000002a8       0x28 uCOS-III\Source\os_pend_multi.o
 .debug_ranges  0x000002d0       0x40 uCOS-III\Source\os_mutex.o
 .debug_ranges  0x00000310       0x30 uCOS-III\Source\os_msg.o
 .debug_ranges  0x00000340       0x30 uCOS-III\Source\os_mem.o
 .debug_ranges  0x00000370       0x60 uCOS-III\Source\os_flag.o
 .debug_ranges  0x000003d0       0x10 uCOS-III\Source\os_dbg.o
 .debug_ranges  0x000003e0      0x140 uCOS-III\Source\os_core.o
 .debug_ranges  0x00000520       0x10 uCOS-III\Source\os_cfg_app.o
 .debug_ranges  0x00000530       0x60 uCOS-III\Ports\ARM-Cortex-M3\Generic\GNU\os_cpu_c.o
 .debug_ranges  0x00000590       0xc8 uC-LIB\lib_str.o
 .debug_ranges  0x00000658       0x98 uC-LIB\lib_mem.o
 .debug_ranges  0x000006f0       0x28 uC-LIB\lib_math.o
 .debug_ranges  0x00000718       0x88 uC-LIB\lib_ascii.o
 .debug_ranges  0x000007a0       0xa0 uC-CPU\cpu_core.o
 .debug_ranges  0x00000840       0x40 uC-CPU\ARM-Cortex-M3\GNU\cpu_c.o
 .debug_ranges  0x00000880       0x50 BSP\cstartup.o
 .debug_ranges  0x000008d0       0x50 BSP\bsp_ser.o
 .debug_ranges  0x00000920       0x30 BSP\bsp_lcd.o
 .debug_ranges  0x00000950       0xa0 BSP\bsp_ioe.o
 .debug_ranges  0x000009f0      0x2d8 BSP\bsp_int.o
 .debug_ranges  0x00000cc8       0x68 BSP\bsp.o
 .debug_ranges  0x00000d30       0x48 BSP\STM32F2xx\src\stm32f2xx_wwdg.o
 .debug_ranges  0x00000d78       0xf0 BSP\STM32F2xx\src\stm32f2xx_usart.o
 .debug_ranges  0x00000e68      0x2e8 BSP\STM32F2xx\src\stm32f2xx_tim.o
 .debug_ranges  0x00001150       0x38 BSP\STM32F2xx\src\stm32f2xx_syscfg.o
 .debug_ranges  0x00001188       0xc8 BSP\STM32F2xx\src\stm32f2xx_spi.o
 .debug_ranges  0x00001250       0xf8 BSP\STM32F2xx\src\stm32f2xx_sdio.o
 .debug_ranges  0x00001348      0x168 BSP\STM32F2xx\src\stm32f2xx_rtc.o
 .debug_ranges  0x000014b0       0x48 BSP\STM32F2xx\src\stm32f2xx_rng.o
 .debug_ranges  0x000014f8      0x168 BSP\STM32F2xx\src\stm32f2xx_rcc.o
 .debug_ranges  0x00001660       0x60 BSP\STM32F2xx\src\stm32f2xx_pwr.o
 .debug_ranges  0x000016c0       0x38 BSP\STM32F2xx\src\stm32f2xx_iwdg.o
 .debug_ranges  0x000016f8      0x110 BSP\STM32F2xx\src\stm32f2xx_i2c.o
 .debug_ranges  0x00001808       0x18 BSP\STM32F2xx\src\stm32f2xx_hash_sha1.o
 .debug_ranges  0x00001820       0x18 BSP\STM32F2xx\src\stm32f2xx_hash_md5.o
 .debug_ranges  0x00001838       0x90 BSP\STM32F2xx\src\stm32f2xx_hash.o
 .debug_ranges  0x000018c8       0x78 BSP\STM32F2xx\src\stm32f2xx_gpio.o
 .debug_ranges  0x00001940       0xa0 BSP\STM32F2xx\src\stm32f2xx_fsmc.o
 .debug_ranges  0x000019e0       0xf8 BSP\STM32F2xx\src\stm32f2xx_flash.o
 .debug_ranges  0x00001ad8       0x48 BSP\STM32F2xx\src\stm32f2xx_exti.o
 .debug_ranges  0x00001b20       0xa0 BSP\STM32F2xx\src\stm32f2xx_dma.o
 .debug_ranges  0x00001bc0       0x80 BSP\STM32F2xx\src\stm32f2xx_dcmi.o
 .debug_ranges  0x00001c40       0x30 BSP\STM32F2xx\src\stm32f2xx_dbgmcu.o
 .debug_ranges  0x00001c70       0x90 BSP\STM32F2xx\src\stm32f2xx_dac.o
 .debug_ranges  0x00001d00       0x18 BSP\STM32F2xx\src\stm32f2xx_cryp_tdes.o
 .debug_ranges  0x00001d18       0x18 BSP\STM32F2xx\src\stm32f2xx_cryp_des.o
 .debug_ranges  0x00001d30       0x20 BSP\STM32F2xx\src\stm32f2xx_cryp_aes.o
 .debug_ranges  0x00001d50       0x90 BSP\STM32F2xx\src\stm32f2xx_cryp.o
 .debug_ranges  0x00001de0       0x38 BSP\STM32F2xx\src\stm32f2xx_crc.o
 .debug_ranges  0x00001e18       0xd0 BSP\STM32F2xx\src\stm32f2xx_can.o
 .debug_ranges  0x00001ee8      0x138 BSP\STM32F2xx\src\stm32f2xx_adc.o
 .debug_ranges  0x00002020       0x30 BSP\STM32F2xx\src\misc.o
 .debug_ranges  0x00002050       0x28 BSP\OS\bsp_os.o
 .debug_ranges  0x00002078       0x20 BSP\CMSIS\Device Support\system_stm32f2xx.o
 .debug_ranges  0x00002098       0x58 APP\os_app_hooks.o
 .debug_ranges  0x000020f0       0x28 APP\app.o

.debug_frame    0x00000000     0x809c
 .debug_frame   0x00000000      0x198 uCOS-III\Source\os_tmr.o
 .debug_frame   0x00000198       0xb0 uCOS-III\Source\os_time.o
 .debug_frame   0x00000248       0xe0 uCOS-III\Source\os_tick.o
 .debug_frame   0x00000328      0x324 uCOS-III\Source\os_task.o
 .debug_frame   0x0000064c       0x90 uCOS-III\Source\os_stat.o
 .debug_frame   0x000006dc      0x144 uCOS-III\Source\os_sem.o
 .debug_frame   0x00000820      0x124 uCOS-III\Source\os_q.o
 .debug_frame   0x00000944       0x84 uCOS-III\Source\os_prio.o
 .debug_frame   0x000009c8       0x8c uCOS-III\Source\os_pend_multi.o
 .debug_frame   0x00000a54       0xe4 uCOS-III\Source\os_mutex.o
 .debug_frame   0x00000b38       0x9c uCOS-III\Source\os_msg.o
 .debug_frame   0x00000bd4       0xa8 uCOS-III\Source\os_mem.o
 .debug_frame   0x00000c7c      0x164 uCOS-III\Source\os_flag.o
 .debug_frame   0x00000de0       0x2c uCOS-III\Source\os_dbg.o
 .debug_frame   0x00000e0c      0x4a8 uCOS-III\Source\os_core.o
 .debug_frame   0x000012b4       0x28 uCOS-III\Source\os_cfg_app.o
 .debug_frame   0x000012dc      0x158 uCOS-III\Ports\ARM-Cortex-M3\Generic\GNU\os_cpu_c.o
 .debug_frame   0x00001434      0x2f8 uC-LIB\lib_str.o
 .debug_frame   0x0000172c      0x238 uC-LIB\lib_mem.o
 .debug_frame   0x00001964       0x88 uC-LIB\lib_math.o
 .debug_frame   0x000019ec      0x1d4 uC-LIB\lib_ascii.o
 .debug_frame   0x00001bc0      0x258 uC-CPU\cpu_core.o
 .debug_frame   0x00001e18       0xe8 uC-CPU\ARM-Cortex-M3\GNU\cpu_c.o
 .debug_frame   0x00001f00      0x138 BSP\bsp_ser.o
 .debug_frame   0x00002038       0xa8 BSP\bsp_lcd.o
 .debug_frame   0x000020e0      0x26c BSP\bsp_ioe.o
 .debug_frame   0x0000234c      0x9fc BSP\bsp_int.o
 .debug_frame   0x00002d48      0x17c BSP\bsp.o
 .debug_frame   0x00002ec4       0xe8 BSP\STM32F2xx\src\stm32f2xx_wwdg.o
 .debug_frame   0x00002fac      0x344 BSP\STM32F2xx\src\stm32f2xx_usart.o
 .debug_frame   0x000032f0      0xa3c BSP\STM32F2xx\src\stm32f2xx_tim.o
 .debug_frame   0x00003d2c       0xbc BSP\STM32F2xx\src\stm32f2xx_syscfg.o
 .debug_frame   0x00003de8      0x2b4 BSP\STM32F2xx\src\stm32f2xx_spi.o
 .debug_frame   0x0000409c      0x344 BSP\STM32F2xx\src\stm32f2xx_sdio.o
 .debug_frame   0x000043e0      0x504 BSP\STM32F2xx\src\stm32f2xx_rtc.o
 .debug_frame   0x000048e4       0xec BSP\STM32F2xx\src\stm32f2xx_rng.o
 .debug_frame   0x000049d0      0x4d8 BSP\STM32F2xx\src\stm32f2xx_rcc.o
 .debug_frame   0x00004ea8      0x140 BSP\STM32F2xx\src\stm32f2xx_pwr.o
 .debug_frame   0x00004fe8       0xb0 BSP\STM32F2xx\src\stm32f2xx_iwdg.o
 .debug_frame   0x00005098      0x3b4 BSP\STM32F2xx\src\stm32f2xx_i2c.o
 .debug_frame   0x0000544c       0x50 BSP\STM32F2xx\src\stm32f2xx_hash_sha1.o
 .debug_frame   0x0000549c       0x50 BSP\STM32F2xx\src\stm32f2xx_hash_md5.o
 .debug_frame   0x000054ec      0x1e0 BSP\STM32F2xx\src\stm32f2xx_hash.o
 .debug_frame   0x000056cc      0x19c BSP\STM32F2xx\src\stm32f2xx_gpio.o
 .debug_frame   0x00005868      0x220 BSP\STM32F2xx\src\stm32f2xx_fsmc.o
 .debug_frame   0x00005a88      0x360 BSP\STM32F2xx\src\stm32f2xx_flash.o
 .debug_frame   0x00005de8       0xec BSP\STM32F2xx\src\stm32f2xx_exti.o
 .debug_frame   0x00005ed4      0x224 BSP\STM32F2xx\src\stm32f2xx_dma.o
 .debug_frame   0x000060f8      0x1ac BSP\STM32F2xx\src\stm32f2xx_dcmi.o
 .debug_frame   0x000062a4       0x94 BSP\STM32F2xx\src\stm32f2xx_dbgmcu.o
 .debug_frame   0x00006338      0x1ec BSP\STM32F2xx\src\stm32f2xx_dac.o
 .debug_frame   0x00006524       0x50 BSP\STM32F2xx\src\stm32f2xx_cryp_tdes.o
 .debug_frame   0x00006574       0x50 BSP\STM32F2xx\src\stm32f2xx_cryp_des.o
 .debug_frame   0x000065c4       0x70 BSP\STM32F2xx\src\stm32f2xx_cryp_aes.o
 .debug_frame   0x00006634      0x1e4 BSP\STM32F2xx\src\stm32f2xx_cryp.o
 .debug_frame   0x00006818       0xac BSP\STM32F2xx\src\stm32f2xx_crc.o
 .debug_frame   0x000068c4      0x2d4 BSP\STM32F2xx\src\stm32f2xx_can.o
 .debug_frame   0x00006b98      0x434 BSP\STM32F2xx\src\stm32f2xx_adc.o
 .debug_frame   0x00006fcc       0x9c BSP\STM32F2xx\src\misc.o
 .debug_frame   0x00007068       0x90 BSP\OS\bsp_os.o
 .debug_frame   0x000070f8       0x64 BSP\CMSIS\Device Support\system_stm32f2xx.o
 .debug_frame   0x0000715c      0x11c APP\os_app_hooks.o
 .debug_frame   0x00007278       0x80 APP\app.o
 .debug_frame   0x000072f8       0x2c c:/program files (x86)/atollic/truestudio for arm pro 3.2.0/armtools/bin/../lib/gcc/arm-atollic-eabi/4.6.2/../../../../arm-atollic-eabi/lib/thumb/armv7-m\libc.a(lib_a-init.o)
 .debug_frame   0x00007324       0x4c c:/program files (x86)/atollic/truestudio for arm pro 3.2.0/armtools/bin/../lib/gcc/arm-atollic-eabi/4.6.2/../../../../arm-atollic-eabi/lib/thumb/armv7-m\libc.a(lib_a-vsnprintf.o)
 .debug_frame   0x00007370       0x3c c:/program files (x86)/atollic/truestudio for arm pro 3.2.0/armtools/bin/../lib/gcc/arm-atollic-eabi/4.6.2/../../../../arm-atollic-eabi/lib/thumb/armv7-m\libc.a(lib_a-svfprintf.o)
 .debug_frame   0x000073ac       0x68 c:/program files (x86)/atollic/truestudio for arm pro 3.2.0/armtools/bin/../lib/gcc/arm-atollic-eabi/4.6.2/../../../../arm-atollic-eabi/lib/thumb/armv7-m\libc.a(lib_a-dtoa.o)
 .debug_frame   0x00007414       0x98 c:/program files (x86)/atollic/truestudio for arm pro 3.2.0/armtools/bin/../lib/gcc/arm-atollic-eabi/4.6.2/../../../../arm-atollic-eabi/lib/thumb/armv7-m\libc.a(lib_a-locale.o)
 .debug_frame   0x000074ac       0x30 c:/program files (x86)/atollic/truestudio for arm pro 3.2.0/armtools/bin/../lib/gcc/arm-atollic-eabi/4.6.2/../../../../arm-atollic-eabi/lib/thumb/armv7-m\libc.a(lib_a-malloc.o)
 .debug_frame   0x000074dc       0x34 c:/program files (x86)/atollic/truestudio for arm pro 3.2.0/armtools/bin/../lib/gcc/arm-atollic-eabi/4.6.2/../../../../arm-atollic-eabi/lib/thumb/armv7-m\libc.a(lib_a-mallocr.o)
 .debug_frame   0x00007510       0x28 c:/program files (x86)/atollic/truestudio for arm pro 3.2.0/armtools/bin/../lib/gcc/arm-atollic-eabi/4.6.2/../../../../arm-atollic-eabi/lib/thumb/armv7-m\libc.a(lib_a-memchr.o)
 .debug_frame   0x00007538       0x28 c:/program files (x86)/atollic/truestudio for arm pro 3.2.0/armtools/bin/../lib/gcc/arm-atollic-eabi/4.6.2/../../../../arm-atollic-eabi/lib/thumb/armv7-m\libc.a(lib_a-memcpy.o)
 .debug_frame   0x00007560       0x30 c:/program files (x86)/atollic/truestudio for arm pro 3.2.0/armtools/bin/../lib/gcc/arm-atollic-eabi/4.6.2/../../../../arm-atollic-eabi/lib/thumb/armv7-m\libc.a(lib_a-mlock.o)
 .debug_frame   0x00007590      0x238 c:/program files (x86)/atollic/truestudio for arm pro 3.2.0/armtools/bin/../lib/gcc/arm-atollic-eabi/4.6.2/../../../../arm-atollic-eabi/lib/thumb/armv7-m\libc.a(lib_a-mprec.o)
 .debug_frame   0x000077c8       0x20 c:/program files (x86)/atollic/truestudio for arm pro 3.2.0/armtools/bin/../lib/gcc/arm-atollic-eabi/4.6.2/../../../../arm-atollic-eabi/lib/thumb/armv7-m\libc.a(lib_a-s_fpclassify.o)
 .debug_frame   0x000077e8       0x2c c:/program files (x86)/atollic/truestudio for arm pro 3.2.0/armtools/bin/../lib/gcc/arm-atollic-eabi/4.6.2/../../../../arm-atollic-eabi/lib/thumb/armv7-m\libc.a(lib_a-sbrkr.o)
 .debug_frame   0x00007814       0x20 c:/program files (x86)/atollic/truestudio for arm pro 3.2.0/armtools/bin/../lib/gcc/arm-atollic-eabi/4.6.2/../../../../arm-atollic-eabi/lib/thumb/armv7-m\libc.a(lib_a-strcmp.o)
 .debug_frame   0x00007834       0x20 c:/program files (x86)/atollic/truestudio for arm pro 3.2.0/armtools/bin/../lib/gcc/arm-atollic-eabi/4.6.2/../../../../arm-atollic-eabi/lib/thumb/armv7-m\libc.a(lib_a-strlen.o)
 .debug_frame   0x00007854       0x68 c:/program files (x86)/atollic/truestudio for arm pro 3.2.0/armtools/bin/../lib/gcc/arm-atollic-eabi/4.6.2/../../../../arm-atollic-eabi/lib/thumb/armv7-m\libc.a(lib_a-svfiprintf.o)
 .debug_frame   0x000078bc      0x14c c:/program files (x86)/atollic/truestudio for arm pro 3.2.0/armtools/bin/../lib/gcc/arm-atollic-eabi/4.6.2/../../../../arm-atollic-eabi/lib/thumb/armv7-m\libc.a(lib_a-syscalls.o)
 .debug_frame   0x00007a08       0x28 c:/program files (x86)/atollic/truestudio for arm pro 3.2.0/armtools/bin/../lib/gcc/arm-atollic-eabi/4.6.2/../../../../arm-atollic-eabi/lib/thumb/armv7-m\libc.a(lib_a-callocr.o)
 .debug_frame   0x00007a30       0x50 c:/program files (x86)/atollic/truestudio for arm pro 3.2.0/armtools/bin/../lib/gcc/arm-atollic-eabi/4.6.2/../../../../arm-atollic-eabi/lib/thumb/armv7-m\libc.a(lib_a-freer.o)
 .debug_frame   0x00007a80       0x2c c:/program files (x86)/atollic/truestudio for arm pro 3.2.0/armtools/bin/../lib/gcc/arm-atollic-eabi/4.6.2/../../../../arm-atollic-eabi/lib/thumb/armv7-m\libc.a(lib_a-memmove.o)
 .debug_frame   0x00007aac       0x20 c:/program files (x86)/atollic/truestudio for arm pro 3.2.0/armtools/bin/../lib/gcc/arm-atollic-eabi/4.6.2/../../../../arm-atollic-eabi/lib/thumb/armv7-m\libc.a(lib_a-memset.o)
 .debug_frame   0x00007acc       0x38 c:/program files (x86)/atollic/truestudio for arm pro 3.2.0/armtools/bin/../lib/gcc/arm-atollic-eabi/4.6.2/../../../../arm-atollic-eabi/lib/thumb/armv7-m\libc.a(lib_a-reallocr.o)
 .debug_frame   0x00007b04       0x68 c:/program files (x86)/atollic/truestudio for arm pro 3.2.0/armtools/bin/../lib/gcc/arm-atollic-eabi/4.6.2/../../../../arm-atollic-eabi/lib/thumb/armv7-m\libc.a(lib_a-reent.o)
 .debug_frame   0x00007b6c       0x50 c:/program files (x86)/atollic/truestudio for arm pro 3.2.0/armtools/bin/../lib/gcc/arm-atollic-eabi/4.6.2/thumb/armv7-m\libgcc.a(bpabi.o)
 .debug_frame   0x00007bbc      0x268 c:/program files (x86)/atollic/truestudio for arm pro 3.2.0/armtools/bin/../lib/gcc/arm-atollic-eabi/4.6.2/thumb/armv7-m\libgcc.a(unwind-arm.o)
 .debug_frame   0x00007e24       0xec c:/program files (x86)/atollic/truestudio for arm pro 3.2.0/armtools/bin/../lib/gcc/arm-atollic-eabi/4.6.2/thumb/armv7-m\libgcc.a(pr-support.o)
 .debug_frame   0x00007f10       0x34 c:/program files (x86)/atollic/truestudio for arm pro 3.2.0/armtools/bin/../lib/gcc/arm-atollic-eabi/4.6.2/thumb/armv7-m\libgcc.a(_divdi3.o)
 .debug_frame   0x00007f44       0x34 c:/program files (x86)/atollic/truestudio for arm pro 3.2.0/armtools/bin/../lib/gcc/arm-atollic-eabi/4.6.2/thumb/armv7-m\libgcc.a(_udivdi3.o)
 .debug_frame   0x00007f78       0x28 c:/program files (x86)/atollic/truestudio for arm pro 3.2.0/armtools/bin/../lib/gcc/arm-atollic-eabi/4.6.2/../../../../arm-atollic-eabi/lib/thumb/armv7-m\libc.a(lib_a-abort.o)
 .debug_frame   0x00007fa0       0xc0 c:/program files (x86)/atollic/truestudio for arm pro 3.2.0/armtools/bin/../lib/gcc/arm-atollic-eabi/4.6.2/../../../../arm-atollic-eabi/lib/thumb/armv7-m\libc.a(lib_a-signal.o)
 .debug_frame   0x00008060       0x3c c:/program files (x86)/atollic/truestudio for arm pro 3.2.0/armtools/bin/../lib/gcc/arm-atollic-eabi/4.6.2/../../../../arm-atollic-eabi/lib/thumb/armv7-m\libc.a(lib_a-signalr.o)

Cross Reference Table

Symbol                                            File
ADC_AnalogWatchdogCmd                             BSP\STM32F2xx\src\stm32f2xx_adc.o
ADC_AnalogWatchdogSingleChannelConfig             BSP\STM32F2xx\src\stm32f2xx_adc.o
ADC_AnalogWatchdogThresholdsConfig                BSP\STM32F2xx\src\stm32f2xx_adc.o
ADC_AutoInjectedConvCmd                           BSP\STM32F2xx\src\stm32f2xx_adc.o
ADC_ClearFlag                                     BSP\STM32F2xx\src\stm32f2xx_adc.o
ADC_ClearITPendingBit                             BSP\STM32F2xx\src\stm32f2xx_adc.o
ADC_Cmd                                           BSP\STM32F2xx\src\stm32f2xx_adc.o
ADC_CommonInit                                    BSP\STM32F2xx\src\stm32f2xx_adc.o
ADC_CommonStructInit                              BSP\STM32F2xx\src\stm32f2xx_adc.o
ADC_ContinuousModeCmd                             BSP\STM32F2xx\src\stm32f2xx_adc.o
ADC_DMACmd                                        BSP\STM32F2xx\src\stm32f2xx_adc.o
ADC_DMARequestAfterLastTransferCmd                BSP\STM32F2xx\src\stm32f2xx_adc.o
ADC_DeInit                                        BSP\STM32F2xx\src\stm32f2xx_adc.o
ADC_DiscModeChannelCountConfig                    BSP\STM32F2xx\src\stm32f2xx_adc.o
ADC_DiscModeCmd                                   BSP\STM32F2xx\src\stm32f2xx_adc.o
ADC_EOCOnEachRegularChannelCmd                    BSP\STM32F2xx\src\stm32f2xx_adc.o
ADC_ExternalTrigInjectedConvConfig                BSP\STM32F2xx\src\stm32f2xx_adc.o
ADC_ExternalTrigInjectedConvEdgeConfig            BSP\STM32F2xx\src\stm32f2xx_adc.o
ADC_GetConversionValue                            BSP\STM32F2xx\src\stm32f2xx_adc.o
ADC_GetFlagStatus                                 BSP\STM32F2xx\src\stm32f2xx_adc.o
ADC_GetITStatus                                   BSP\STM32F2xx\src\stm32f2xx_adc.o
ADC_GetInjectedConversionValue                    BSP\STM32F2xx\src\stm32f2xx_adc.o
ADC_GetMultiModeConversionValue                   BSP\STM32F2xx\src\stm32f2xx_adc.o
ADC_GetSoftwareStartConvStatus                    BSP\STM32F2xx\src\stm32f2xx_adc.o
ADC_GetSoftwareStartInjectedConvCmdStatus         BSP\STM32F2xx\src\stm32f2xx_adc.o
ADC_ITConfig                                      BSP\STM32F2xx\src\stm32f2xx_adc.o
ADC_Init                                          BSP\STM32F2xx\src\stm32f2xx_adc.o
ADC_InjectedChannelConfig                         BSP\STM32F2xx\src\stm32f2xx_adc.o
ADC_InjectedDiscModeCmd                           BSP\STM32F2xx\src\stm32f2xx_adc.o
ADC_InjectedSequencerLengthConfig                 BSP\STM32F2xx\src\stm32f2xx_adc.o
ADC_MultiModeDMARequestAfterLastTransferCmd       BSP\STM32F2xx\src\stm32f2xx_adc.o
ADC_RegularChannelConfig                          BSP\STM32F2xx\src\stm32f2xx_adc.o
ADC_SetInjectedOffset                             BSP\STM32F2xx\src\stm32f2xx_adc.o
ADC_SoftwareStartConv                             BSP\STM32F2xx\src\stm32f2xx_adc.o
ADC_SoftwareStartInjectedConv                     BSP\STM32F2xx\src\stm32f2xx_adc.o
ADC_StructInit                                    BSP\STM32F2xx\src\stm32f2xx_adc.o
ADC_TempSensorVrefintCmd                          BSP\STM32F2xx\src\stm32f2xx_adc.o
ADC_VBATCmd                                       BSP\STM32F2xx\src\stm32f2xx_adc.o
AHBPrescTable                                     BSP\CMSIS\Device Support\system_stm32f2xx.o
ASCII_Cmp                                         uC-LIB\lib_ascii.o
ASCII_IsAlpha                                     uC-LIB\lib_ascii.o
ASCII_IsAlphaNum                                  uC-LIB\lib_ascii.o
                                                  uC-LIB\lib_str.o
ASCII_IsBlank                                     uC-LIB\lib_ascii.o
ASCII_IsCtrl                                      uC-LIB\lib_ascii.o
ASCII_IsDig                                       uC-LIB\lib_ascii.o
                                                  uC-LIB\lib_str.o
ASCII_IsDigHex                                    uC-LIB\lib_ascii.o
                                                  uC-LIB\lib_str.o
ASCII_IsDigOct                                    uC-LIB\lib_ascii.o
ASCII_IsGraph                                     uC-LIB\lib_ascii.o
ASCII_IsLower                                     uC-LIB\lib_ascii.o
                                                  uC-LIB\lib_str.o
ASCII_IsPrint                                     uC-LIB\lib_ascii.o
                                                  BSP\bsp_ser.o
                                                  uC-LIB\lib_str.o
ASCII_IsPunct                                     uC-LIB\lib_ascii.o
ASCII_IsSpace                                     uC-LIB\lib_ascii.o
                                                  uC-LIB\lib_str.o
ASCII_IsUpper                                     uC-LIB\lib_ascii.o
ASCII_ToLower                                     uC-LIB\lib_ascii.o
                                                  uC-LIB\lib_str.o
ASCII_ToUpper                                     uC-LIB\lib_ascii.o
App_OS_ClrAllHooks                                APP\os_app_hooks.o
App_OS_IdleTaskHook                               APP\os_app_hooks.o
App_OS_InitHook                                   APP\os_app_hooks.o
App_OS_SetAllHooks                                APP\os_app_hooks.o
App_OS_StatTaskHook                               APP\os_app_hooks.o
App_OS_TaskCreateHook                             APP\os_app_hooks.o
App_OS_TaskDelHook                                APP\os_app_hooks.o
App_OS_TaskReturnHook                             APP\os_app_hooks.o
App_OS_TaskSwHook                                 APP\os_app_hooks.o
App_OS_TimeTickHook                               APP\os_app_hooks.o
BSP_CPU_ClkFreq                                   BSP\bsp.o
BSP_CPU_TickInit                                  BSP\bsp.o
                                                  APP\app.o
BSP_IOE_Init                                      BSP\bsp_ioe.o
BSP_IOE_TS_GetState                               BSP\bsp_ioe.o
BSP_Init                                          BSP\bsp.o
                                                  APP\app.o
BSP_IntClr                                        BSP\bsp_int.o
BSP_IntDis                                        BSP\bsp_int.o
BSP_IntDisAll                                     BSP\bsp_int.o
                                                  APP\app.o
BSP_IntEn                                         BSP\bsp_int.o
                                                  BSP\bsp_ser.o
BSP_IntHandlerADC1_2                              BSP\bsp_int.o
                                                  BSP\cstartup.o
BSP_IntHandlerCAN1_RX0                            BSP\bsp_int.o
                                                  BSP\cstartup.o
BSP_IntHandlerCAN1_RX1                            BSP\bsp_int.o
                                                  BSP\cstartup.o
BSP_IntHandlerCAN1_SCE                            BSP\bsp_int.o
                                                  BSP\cstartup.o
BSP_IntHandlerCAN1_TX                             BSP\bsp_int.o
                                                  BSP\cstartup.o
BSP_IntHandlerCAN2_RX0                            BSP\bsp_int.o
                                                  BSP\cstartup.o
BSP_IntHandlerCAN2_RX1                            BSP\bsp_int.o
                                                  BSP\cstartup.o
BSP_IntHandlerCAN2_SCE                            BSP\bsp_int.o
                                                  BSP\cstartup.o
BSP_IntHandlerCAN2_TX                             BSP\bsp_int.o
                                                  BSP\cstartup.o
BSP_IntHandlerCRYP                                BSP\bsp_int.o
                                                  BSP\cstartup.o
BSP_IntHandlerDCMI                                BSP\bsp_int.o
                                                  BSP\cstartup.o
BSP_IntHandlerDMA1_CH1                            BSP\bsp_int.o
                                                  BSP\cstartup.o
BSP_IntHandlerDMA1_CH2                            BSP\bsp_int.o
                                                  BSP\cstartup.o
BSP_IntHandlerDMA1_CH3                            BSP\bsp_int.o
                                                  BSP\cstartup.o
BSP_IntHandlerDMA1_CH4                            BSP\bsp_int.o
                                                  BSP\cstartup.o
BSP_IntHandlerDMA1_CH5                            BSP\bsp_int.o
                                                  BSP\cstartup.o
BSP_IntHandlerDMA1_CH6                            BSP\bsp_int.o
                                                  BSP\cstartup.o
BSP_IntHandlerDMA1_CH7                            BSP\bsp_int.o
                                                  BSP\cstartup.o
BSP_IntHandlerDMA1_STREAM7                        BSP\bsp_int.o
                                                  BSP\cstartup.o
BSP_IntHandlerDMA2_CH1                            BSP\bsp_int.o
                                                  BSP\cstartup.o
BSP_IntHandlerDMA2_CH2                            BSP\bsp_int.o
                                                  BSP\cstartup.o
BSP_IntHandlerDMA2_CH3                            BSP\bsp_int.o
                                                  BSP\cstartup.o
BSP_IntHandlerDMA2_CH4                            BSP\bsp_int.o
                                                  BSP\cstartup.o
BSP_IntHandlerDMA2_CH5                            BSP\bsp_int.o
                                                  BSP\cstartup.o
BSP_IntHandlerDMA2_CH6                            BSP\bsp_int.o
                                                  BSP\cstartup.o
BSP_IntHandlerDMA2_CH7                            BSP\bsp_int.o
                                                  BSP\cstartup.o
BSP_IntHandlerDMA2_CH8                            BSP\bsp_int.o
                                                  BSP\cstartup.o
BSP_IntHandlerETH                                 BSP\bsp_int.o
                                                  BSP\cstartup.o
BSP_IntHandlerETHWakeup                           BSP\bsp_int.o
                                                  BSP\cstartup.o
BSP_IntHandlerEXTI0                               BSP\bsp_int.o
                                                  BSP\cstartup.o
BSP_IntHandlerEXTI1                               BSP\bsp_int.o
                                                  BSP\cstartup.o
BSP_IntHandlerEXTI15_10                           BSP\bsp_int.o
                                                  BSP\cstartup.o
BSP_IntHandlerEXTI2                               BSP\bsp_int.o
                                                  BSP\cstartup.o
BSP_IntHandlerEXTI3                               BSP\bsp_int.o
                                                  BSP\cstartup.o
BSP_IntHandlerEXTI4                               BSP\bsp_int.o
                                                  BSP\cstartup.o
BSP_IntHandlerEXTI9_5                             BSP\bsp_int.o
                                                  BSP\cstartup.o
BSP_IntHandlerFLASH                               BSP\bsp_int.o
                                                  BSP\cstartup.o
BSP_IntHandlerFSMC                                BSP\bsp_int.o
                                                  BSP\cstartup.o
BSP_IntHandlerHASH_RNG                            BSP\bsp_int.o
                                                  BSP\cstartup.o
BSP_IntHandlerI2C1_ER                             BSP\bsp_int.o
                                                  BSP\cstartup.o
BSP_IntHandlerI2C1_EV                             BSP\bsp_int.o
                                                  BSP\cstartup.o
BSP_IntHandlerI2C2_ER                             BSP\bsp_int.o
                                                  BSP\cstartup.o
BSP_IntHandlerI2C2_EV                             BSP\bsp_int.o
                                                  BSP\cstartup.o
BSP_IntHandlerI2C3_ER                             BSP\bsp_int.o
                                                  BSP\cstartup.o
BSP_IntHandlerI2C3_EV                             BSP\bsp_int.o
                                                  BSP\cstartup.o
BSP_IntHandlerOTG                                 BSP\bsp_int.o
                                                  BSP\cstartup.o
BSP_IntHandlerOTG_HS                              BSP\bsp_int.o
                                                  BSP\cstartup.o
BSP_IntHandlerOTG_HS_EP1_IN                       BSP\bsp_int.o
                                                  BSP\cstartup.o
BSP_IntHandlerOTG_HS_EP1_OUT                      BSP\bsp_int.o
                                                  BSP\cstartup.o
BSP_IntHandlerOTG_HS_WKUP                         BSP\bsp_int.o
                                                  BSP\cstartup.o
BSP_IntHandlerPVD                                 BSP\bsp_int.o
                                                  BSP\cstartup.o
BSP_IntHandlerRCC                                 BSP\bsp_int.o
                                                  BSP\cstartup.o
BSP_IntHandlerRTC                                 BSP\bsp_int.o
                                                  BSP\cstartup.o
BSP_IntHandlerRTCAlarm                            BSP\bsp_int.o
                                                  BSP\cstartup.o
BSP_IntHandlerSDIO                                BSP\bsp_int.o
                                                  BSP\cstartup.o
BSP_IntHandlerSPI1                                BSP\bsp_int.o
                                                  BSP\cstartup.o
BSP_IntHandlerSPI2                                BSP\bsp_int.o
                                                  BSP\cstartup.o
BSP_IntHandlerSPI3                                BSP\bsp_int.o
                                                  BSP\cstartup.o
BSP_IntHandlerTAMPER                              BSP\bsp_int.o
                                                  BSP\cstartup.o
BSP_IntHandlerTIM1_BRK                            BSP\bsp_int.o
                                                  BSP\cstartup.o
BSP_IntHandlerTIM1_CC                             BSP\bsp_int.o
                                                  BSP\cstartup.o
BSP_IntHandlerTIM1_TRG_COM                        BSP\bsp_int.o
                                                  BSP\cstartup.o
BSP_IntHandlerTIM1_UP                             BSP\bsp_int.o
                                                  BSP\cstartup.o
BSP_IntHandlerTIM2                                BSP\bsp_int.o
                                                  BSP\cstartup.o
BSP_IntHandlerTIM3                                BSP\bsp_int.o
                                                  BSP\cstartup.o
BSP_IntHandlerTIM4                                BSP\bsp_int.o
                                                  BSP\cstartup.o
BSP_IntHandlerTIM5                                BSP\bsp_int.o
                                                  BSP\cstartup.o
BSP_IntHandlerTIM6                                BSP\bsp_int.o
                                                  BSP\cstartup.o
BSP_IntHandlerTIM7                                BSP\bsp_int.o
                                                  BSP\cstartup.o
BSP_IntHandlerTIM8_BRK_TIM12                      BSP\bsp_int.o
                                                  BSP\cstartup.o
BSP_IntHandlerTIM8_CC                             BSP\bsp_int.o
                                                  BSP\cstartup.o
BSP_IntHandlerTIM8_TRG_COM_TIM14                  BSP\bsp_int.o
                                                  BSP\cstartup.o
BSP_IntHandlerTIM8_UP_TIM13                       BSP\bsp_int.o
                                                  BSP\cstartup.o
BSP_IntHandlerUSART1                              BSP\bsp_int.o
                                                  BSP\cstartup.o
BSP_IntHandlerUSART2                              BSP\bsp_int.o
                                                  BSP\cstartup.o
BSP_IntHandlerUSART3                              BSP\bsp_int.o
                                                  BSP\cstartup.o
BSP_IntHandlerUSART4                              BSP\bsp_int.o
                                                  BSP\cstartup.o
BSP_IntHandlerUSART5                              BSP\bsp_int.o
                                                  BSP\cstartup.o
BSP_IntHandlerUSART6                              BSP\bsp_int.o
                                                  BSP\cstartup.o
BSP_IntHandlerUSBWakeUp                           BSP\bsp_int.o
                                                  BSP\cstartup.o
BSP_IntHandlerWWDG                                BSP\bsp_int.o
                                                  BSP\cstartup.o
BSP_IntInit                                       BSP\bsp_int.o
BSP_IntPrioSet                                    BSP\bsp_int.o
BSP_IntVectSet                                    BSP\bsp_int.o
                                                  BSP\bsp_ser.o
BSP_LCD_Init                                      BSP\bsp_lcd.o
BSP_LED_Off                                       BSP\bsp.o
BSP_LED_On                                        BSP\bsp.o
BSP_LED_Toggle                                    BSP\bsp.o
                                                  APP\app.o
BSP_OS_SemCreate                                  BSP\OS\bsp_os.o
                                                  BSP\bsp_ser.o
BSP_OS_SemPost                                    BSP\OS\bsp_os.o
                                                  BSP\bsp_ser.o
BSP_OS_SemWait                                    BSP\OS\bsp_os.o
                                                  BSP\bsp_ser.o
BSP_OS_TimeDlyMs                                  BSP\OS\bsp_os.o
                                                  BSP\bsp_ioe.o
                                                  BSP\bsp_lcd.o
BSP_PSRAM_Init                                    BSP\bsp.o
BSP_RNG_Read                                      BSP\bsp.o
BSP_SRAM_Init                                     BSP\bsp.o
BSP_Ser_Init                                      BSP\bsp_ser.o
                                                  APP\app.o
BSP_Ser_Printf                                    BSP\bsp_ser.o
                                                  APP\app.o
BSP_Ser_RdByte                                    BSP\bsp_ser.o
BSP_Ser_RdStr                                     BSP\bsp_ser.o
BSP_Ser_WrByte                                    BSP\bsp_ser.o
BSP_Ser_WrStr                                     BSP\bsp_ser.o
CAN_CancelTransmit                                BSP\STM32F2xx\src\stm32f2xx_can.o
CAN_ClearFlag                                     BSP\STM32F2xx\src\stm32f2xx_can.o
CAN_ClearITPendingBit                             BSP\STM32F2xx\src\stm32f2xx_can.o
CAN_DBGFreeze                                     BSP\STM32F2xx\src\stm32f2xx_can.o
CAN_DeInit                                        BSP\STM32F2xx\src\stm32f2xx_can.o
CAN_FIFORelease                                   BSP\STM32F2xx\src\stm32f2xx_can.o
CAN_FilterInit                                    BSP\STM32F2xx\src\stm32f2xx_can.o
CAN_GetFlagStatus                                 BSP\STM32F2xx\src\stm32f2xx_can.o
CAN_GetITStatus                                   BSP\STM32F2xx\src\stm32f2xx_can.o
CAN_GetLSBTransmitErrorCounter                    BSP\STM32F2xx\src\stm32f2xx_can.o
CAN_GetLastErrorCode                              BSP\STM32F2xx\src\stm32f2xx_can.o
CAN_GetReceiveErrorCounter                        BSP\STM32F2xx\src\stm32f2xx_can.o
CAN_ITConfig                                      BSP\STM32F2xx\src\stm32f2xx_can.o
CAN_Init                                          BSP\STM32F2xx\src\stm32f2xx_can.o
CAN_MessagePending                                BSP\STM32F2xx\src\stm32f2xx_can.o
CAN_OperatingModeRequest                          BSP\STM32F2xx\src\stm32f2xx_can.o
CAN_Receive                                       BSP\STM32F2xx\src\stm32f2xx_can.o
CAN_SlaveStartBank                                BSP\STM32F2xx\src\stm32f2xx_can.o
CAN_Sleep                                         BSP\STM32F2xx\src\stm32f2xx_can.o
CAN_StructInit                                    BSP\STM32F2xx\src\stm32f2xx_can.o
CAN_TTComModeCmd                                  BSP\STM32F2xx\src\stm32f2xx_can.o
CAN_Transmit                                      BSP\STM32F2xx\src\stm32f2xx_can.o
CAN_TransmitStatus                                BSP\STM32F2xx\src\stm32f2xx_can.o
CAN_WakeUp                                        BSP\STM32F2xx\src\stm32f2xx_can.o
CPU_BitBandClr                                    uC-CPU\ARM-Cortex-M3\GNU\cpu_c.o
CPU_BitBandSet                                    uC-CPU\ARM-Cortex-M3\GNU\cpu_c.o
CPU_CntLeadZeros                                  uC-CPU\ARM-Cortex-M3\GNU\cpu_a.o
                                                  uC-CPU\cpu_core.o
                                                  uCOS-III\Source\os_prio.o
CPU_CntLeadZeros08                                uC-CPU\cpu_core.o
CPU_CntLeadZeros16                                uC-CPU\cpu_core.o
CPU_CntLeadZeros32                                uC-CPU\cpu_core.o
CPU_CntLeadZeros64                                uC-CPU\cpu_core.o
CPU_CntTrailZeros                                 uC-CPU\ARM-Cortex-M3\GNU\cpu_a.o
                                                  uC-CPU\cpu_core.o
CPU_CntTrailZeros08                               uC-CPU\cpu_core.o
CPU_CntTrailZeros16                               uC-CPU\cpu_core.o
CPU_CntTrailZeros32                               uC-CPU\cpu_core.o
CPU_CntTrailZeros64                               uC-CPU\cpu_core.o
CPU_Init                                          uC-CPU\cpu_core.o
                                                  APP\app.o
CPU_IntDis                                        uC-CPU\ARM-Cortex-M3\GNU\cpu_a.o
                                                  BSP\bsp_int.o
CPU_IntEn                                         uC-CPU\ARM-Cortex-M3\GNU\cpu_a.o
CPU_IntSrcDis                                     uC-CPU\ARM-Cortex-M3\GNU\cpu_c.o
                                                  BSP\bsp_int.o
CPU_IntSrcEn                                      uC-CPU\ARM-Cortex-M3\GNU\cpu_c.o
                                                  BSP\bsp_int.o
CPU_IntSrcPendClr                                 uC-CPU\ARM-Cortex-M3\GNU\cpu_c.o
CPU_IntSrcPrioGet                                 uC-CPU\ARM-Cortex-M3\GNU\cpu_c.o
CPU_IntSrcPrioSet                                 uC-CPU\ARM-Cortex-M3\GNU\cpu_c.o
                                                  BSP\bsp_int.o
CPU_Name                                          uC-CPU\cpu_core.o
CPU_NameClr                                       uC-CPU\cpu_core.o
CPU_NameGet                                       uC-CPU\cpu_core.o
CPU_NameSet                                       uC-CPU\cpu_core.o
CPU_RevBits                                       uC-CPU\ARM-Cortex-M3\GNU\cpu_a.o
                                                  uC-CPU\ARM-Cortex-M3\GNU\cpu_c.o
CPU_SR_Restore                                    uC-CPU\ARM-Cortex-M3\GNU\cpu_a.o
                                                  APP\os_app_hooks.o
                                                  BSP\bsp_int.o
                                                  uC-CPU\ARM-Cortex-M3\GNU\cpu_c.o
                                                  uC-CPU\cpu_core.o
                                                  uC-LIB\lib_math.o
                                                  uC-LIB\lib_mem.o
                                                  uCOS-III\Ports\ARM-Cortex-M3\Generic\GNU\os_cpu_c.o
                                                  uCOS-III\Source\os_core.o
                                                  uCOS-III\Source\os_flag.o
                                                  uCOS-III\Source\os_mem.o
                                                  uCOS-III\Source\os_mutex.o
                                                  uCOS-III\Source\os_pend_multi.o
                                                  uCOS-III\Source\os_q.o
                                                  uCOS-III\Source\os_sem.o
                                                  uCOS-III\Source\os_stat.o
                                                  uCOS-III\Source\os_task.o
                                                  uCOS-III\Source\os_tick.o
                                                  uCOS-III\Source\os_time.o
                                                  uCOS-III\Source\os_tmr.o
CPU_SR_Save                                       uC-CPU\ARM-Cortex-M3\GNU\cpu_a.o
                                                  APP\os_app_hooks.o
                                                  BSP\bsp_int.o
                                                  uC-CPU\ARM-Cortex-M3\GNU\cpu_c.o
                                                  uC-CPU\cpu_core.o
                                                  uC-LIB\lib_math.o
                                                  uC-LIB\lib_mem.o
                                                  uCOS-III\Ports\ARM-Cortex-M3\Generic\GNU\os_cpu_c.o
                                                  uCOS-III\Source\os_core.o
                                                  uCOS-III\Source\os_flag.o
                                                  uCOS-III\Source\os_mem.o
                                                  uCOS-III\Source\os_mutex.o
                                                  uCOS-III\Source\os_pend_multi.o
                                                  uCOS-III\Source\os_q.o
                                                  uCOS-III\Source\os_sem.o
                                                  uCOS-III\Source\os_stat.o
                                                  uCOS-III\Source\os_task.o
                                                  uCOS-III\Source\os_tick.o
                                                  uCOS-III\Source\os_time.o
                                                  uCOS-III\Source\os_tmr.o
CPU_SW_Exception                                  uC-CPU\cpu_core.o
                                                  uC-LIB\lib_mem.o
CPU_TS_Get32                                      uC-CPU\cpu_core.o
CPU_TS_TmrFreqGet                                 uC-CPU\cpu_core.o
CPU_TS_TmrFreqSet                                 uC-CPU\cpu_core.o
                                                  BSP\bsp.o
CPU_TS_TmrFreq_Hz                                 uC-CPU\cpu_core.o
CPU_TS_TmrInit                                    BSP\bsp.o
                                                  uC-CPU\cpu_core.o
CPU_TS_TmrRd                                      BSP\bsp.o
                                                  uC-CPU\cpu_core.o
                                                  uCOS-III\Ports\ARM-Cortex-M3\Generic\GNU\os_cpu_c.o
                                                  uCOS-III\Source\os_core.o
                                                  uCOS-III\Source\os_flag.o
                                                  uCOS-III\Source\os_mutex.o
                                                  uCOS-III\Source\os_q.o
                                                  uCOS-III\Source\os_sem.o
                                                  uCOS-III\Source\os_stat.o
                                                  uCOS-III\Source\os_task.o
                                                  uCOS-III\Source\os_tick.o
                                                  uCOS-III\Source\os_tmr.o
CPU_TS_Update                                     uC-CPU\cpu_core.o
CPU_WaitForExcept                                 uC-CPU\ARM-Cortex-M3\GNU\cpu_a.o
CPU_WaitForInt                                    uC-CPU\ARM-Cortex-M3\GNU\cpu_a.o
CRC_CalcBlockCRC                                  BSP\STM32F2xx\src\stm32f2xx_crc.o
CRC_CalcCRC                                       BSP\STM32F2xx\src\stm32f2xx_crc.o
CRC_GetCRC                                        BSP\STM32F2xx\src\stm32f2xx_crc.o
CRC_GetIDRegister                                 BSP\STM32F2xx\src\stm32f2xx_crc.o
CRC_ResetDR                                       BSP\STM32F2xx\src\stm32f2xx_crc.o
CRC_SetIDRegister                                 BSP\STM32F2xx\src\stm32f2xx_crc.o
CRYP_AES_CBC                                      BSP\STM32F2xx\src\stm32f2xx_cryp_aes.o
CRYP_AES_CTR                                      BSP\STM32F2xx\src\stm32f2xx_cryp_aes.o
CRYP_AES_ECB                                      BSP\STM32F2xx\src\stm32f2xx_cryp_aes.o
CRYP_Cmd                                          BSP\STM32F2xx\src\stm32f2xx_cryp.o
                                                  BSP\STM32F2xx\src\stm32f2xx_cryp_aes.o
                                                  BSP\STM32F2xx\src\stm32f2xx_cryp_des.o
                                                  BSP\STM32F2xx\src\stm32f2xx_cryp_tdes.o
CRYP_DES_CBC                                      BSP\STM32F2xx\src\stm32f2xx_cryp_des.o
CRYP_DES_ECB                                      BSP\STM32F2xx\src\stm32f2xx_cryp_des.o
CRYP_DMACmd                                       BSP\STM32F2xx\src\stm32f2xx_cryp.o
CRYP_DataIn                                       BSP\STM32F2xx\src\stm32f2xx_cryp.o
                                                  BSP\STM32F2xx\src\stm32f2xx_cryp_aes.o
                                                  BSP\STM32F2xx\src\stm32f2xx_cryp_des.o
                                                  BSP\STM32F2xx\src\stm32f2xx_cryp_tdes.o
CRYP_DataOut                                      BSP\STM32F2xx\src\stm32f2xx_cryp.o
                                                  BSP\STM32F2xx\src\stm32f2xx_cryp_aes.o
                                                  BSP\STM32F2xx\src\stm32f2xx_cryp_des.o
                                                  BSP\STM32F2xx\src\stm32f2xx_cryp_tdes.o
CRYP_DeInit                                       BSP\STM32F2xx\src\stm32f2xx_cryp.o
CRYP_FIFOFlush                                    BSP\STM32F2xx\src\stm32f2xx_cryp.o
                                                  BSP\STM32F2xx\src\stm32f2xx_cryp_aes.o
                                                  BSP\STM32F2xx\src\stm32f2xx_cryp_des.o
                                                  BSP\STM32F2xx\src\stm32f2xx_cryp_tdes.o
CRYP_GetFlagStatus                                BSP\STM32F2xx\src\stm32f2xx_cryp.o
                                                  BSP\STM32F2xx\src\stm32f2xx_cryp_aes.o
                                                  BSP\STM32F2xx\src\stm32f2xx_cryp_des.o
                                                  BSP\STM32F2xx\src\stm32f2xx_cryp_tdes.o
CRYP_GetITStatus                                  BSP\STM32F2xx\src\stm32f2xx_cryp.o
CRYP_ITConfig                                     BSP\STM32F2xx\src\stm32f2xx_cryp.o
CRYP_IVInit                                       BSP\STM32F2xx\src\stm32f2xx_cryp.o
                                                  BSP\STM32F2xx\src\stm32f2xx_cryp_aes.o
                                                  BSP\STM32F2xx\src\stm32f2xx_cryp_des.o
                                                  BSP\STM32F2xx\src\stm32f2xx_cryp_tdes.o
CRYP_IVStructInit                                 BSP\STM32F2xx\src\stm32f2xx_cryp.o
CRYP_Init                                         BSP\STM32F2xx\src\stm32f2xx_cryp.o
                                                  BSP\STM32F2xx\src\stm32f2xx_cryp_aes.o
                                                  BSP\STM32F2xx\src\stm32f2xx_cryp_des.o
                                                  BSP\STM32F2xx\src\stm32f2xx_cryp_tdes.o
CRYP_KeyInit                                      BSP\STM32F2xx\src\stm32f2xx_cryp.o
                                                  BSP\STM32F2xx\src\stm32f2xx_cryp_aes.o
                                                  BSP\STM32F2xx\src\stm32f2xx_cryp_des.o
                                                  BSP\STM32F2xx\src\stm32f2xx_cryp_tdes.o
CRYP_KeyStructInit                                BSP\STM32F2xx\src\stm32f2xx_cryp.o
                                                  BSP\STM32F2xx\src\stm32f2xx_cryp_aes.o
                                                  BSP\STM32F2xx\src\stm32f2xx_cryp_des.o
                                                  BSP\STM32F2xx\src\stm32f2xx_cryp_tdes.o
CRYP_RestoreContext                               BSP\STM32F2xx\src\stm32f2xx_cryp.o
CRYP_SaveContext                                  BSP\STM32F2xx\src\stm32f2xx_cryp.o
CRYP_StructInit                                   BSP\STM32F2xx\src\stm32f2xx_cryp.o
CRYP_TDES_CBC                                     BSP\STM32F2xx\src\stm32f2xx_cryp_tdes.o
CRYP_TDES_ECB                                     BSP\STM32F2xx\src\stm32f2xx_cryp_tdes.o
DAC_ClearFlag                                     BSP\STM32F2xx\src\stm32f2xx_dac.o
DAC_ClearITPendingBit                             BSP\STM32F2xx\src\stm32f2xx_dac.o
DAC_Cmd                                           BSP\STM32F2xx\src\stm32f2xx_dac.o
DAC_DMACmd                                        BSP\STM32F2xx\src\stm32f2xx_dac.o
DAC_DeInit                                        BSP\STM32F2xx\src\stm32f2xx_dac.o
DAC_DualSoftwareTriggerCmd                        BSP\STM32F2xx\src\stm32f2xx_dac.o
DAC_GetDataOutputValue                            BSP\STM32F2xx\src\stm32f2xx_dac.o
DAC_GetFlagStatus                                 BSP\STM32F2xx\src\stm32f2xx_dac.o
DAC_GetITStatus                                   BSP\STM32F2xx\src\stm32f2xx_dac.o
DAC_ITConfig                                      BSP\STM32F2xx\src\stm32f2xx_dac.o
DAC_Init                                          BSP\STM32F2xx\src\stm32f2xx_dac.o
DAC_SetChannel1Data                               BSP\STM32F2xx\src\stm32f2xx_dac.o
DAC_SetChannel2Data                               BSP\STM32F2xx\src\stm32f2xx_dac.o
DAC_SetDualChannelData                            BSP\STM32F2xx\src\stm32f2xx_dac.o
DAC_SoftwareTriggerCmd                            BSP\STM32F2xx\src\stm32f2xx_dac.o
DAC_StructInit                                    BSP\STM32F2xx\src\stm32f2xx_dac.o
DAC_WaveGenerationCmd                             BSP\STM32F2xx\src\stm32f2xx_dac.o
DBGMCU_APB1PeriphConfig                           BSP\STM32F2xx\src\stm32f2xx_dbgmcu.o
DBGMCU_APB2PeriphConfig                           BSP\STM32F2xx\src\stm32f2xx_dbgmcu.o
DBGMCU_Config                                     BSP\STM32F2xx\src\stm32f2xx_dbgmcu.o
DBGMCU_GetDEVID                                   BSP\STM32F2xx\src\stm32f2xx_dbgmcu.o
DBGMCU_GetREVID                                   BSP\STM32F2xx\src\stm32f2xx_dbgmcu.o
DCMI_CROPCmd                                      BSP\STM32F2xx\src\stm32f2xx_dcmi.o
DCMI_CROPConfig                                   BSP\STM32F2xx\src\stm32f2xx_dcmi.o
DCMI_CaptureCmd                                   BSP\STM32F2xx\src\stm32f2xx_dcmi.o
DCMI_ClearFlag                                    BSP\STM32F2xx\src\stm32f2xx_dcmi.o
DCMI_ClearITPendingBit                            BSP\STM32F2xx\src\stm32f2xx_dcmi.o
DCMI_Cmd                                          BSP\STM32F2xx\src\stm32f2xx_dcmi.o
DCMI_DeInit                                       BSP\STM32F2xx\src\stm32f2xx_dcmi.o
DCMI_GetFlagStatus                                BSP\STM32F2xx\src\stm32f2xx_dcmi.o
DCMI_GetITStatus                                  BSP\STM32F2xx\src\stm32f2xx_dcmi.o
DCMI_ITConfig                                     BSP\STM32F2xx\src\stm32f2xx_dcmi.o
DCMI_Init                                         BSP\STM32F2xx\src\stm32f2xx_dcmi.o
DCMI_JPEGCmd                                      BSP\STM32F2xx\src\stm32f2xx_dcmi.o
DCMI_ReadData                                     BSP\STM32F2xx\src\stm32f2xx_dcmi.o
DCMI_SetEmbeddedSynchroCodes                      BSP\STM32F2xx\src\stm32f2xx_dcmi.o
DCMI_StructInit                                   BSP\STM32F2xx\src\stm32f2xx_dcmi.o
DMA_ClearFlag                                     BSP\STM32F2xx\src\stm32f2xx_dma.o
                                                  BSP\bsp_ioe.o
DMA_ClearITPendingBit                             BSP\STM32F2xx\src\stm32f2xx_dma.o
DMA_Cmd                                           BSP\STM32F2xx\src\stm32f2xx_dma.o
                                                  BSP\bsp_ioe.o
DMA_DeInit                                        BSP\STM32F2xx\src\stm32f2xx_dma.o
                                                  BSP\bsp_ioe.o
DMA_DoubleBufferModeCmd                           BSP\STM32F2xx\src\stm32f2xx_dma.o
DMA_DoubleBufferModeConfig                        BSP\STM32F2xx\src\stm32f2xx_dma.o
DMA_FlowControllerConfig                          BSP\STM32F2xx\src\stm32f2xx_dma.o
DMA_GetCmdStatus                                  BSP\STM32F2xx\src\stm32f2xx_dma.o
DMA_GetCurrDataCounter                            BSP\STM32F2xx\src\stm32f2xx_dma.o
DMA_GetCurrentMemoryTarget                        BSP\STM32F2xx\src\stm32f2xx_dma.o
DMA_GetFIFOStatus                                 BSP\STM32F2xx\src\stm32f2xx_dma.o
DMA_GetFlagStatus                                 BSP\STM32F2xx\src\stm32f2xx_dma.o
                                                  BSP\bsp_ioe.o
DMA_GetITStatus                                   BSP\STM32F2xx\src\stm32f2xx_dma.o
DMA_ITConfig                                      BSP\STM32F2xx\src\stm32f2xx_dma.o
DMA_Init                                          BSP\STM32F2xx\src\stm32f2xx_dma.o
                                                  BSP\bsp_ioe.o
DMA_MemoryTargetConfig                            BSP\STM32F2xx\src\stm32f2xx_dma.o
DMA_PeriphIncOffsetSizeConfig                     BSP\STM32F2xx\src\stm32f2xx_dma.o
DMA_SetCurrDataCounter                            BSP\STM32F2xx\src\stm32f2xx_dma.o
DMA_StructInit                                    BSP\STM32F2xx\src\stm32f2xx_dma.o
Default_Handler                                   BSP\cstartup.o
EXTI_ClearFlag                                    BSP\STM32F2xx\src\stm32f2xx_exti.o
EXTI_ClearITPendingBit                            BSP\STM32F2xx\src\stm32f2xx_exti.o
EXTI_DeInit                                       BSP\STM32F2xx\src\stm32f2xx_exti.o
EXTI_GenerateSWInterrupt                          BSP\STM32F2xx\src\stm32f2xx_exti.o
EXTI_GetFlagStatus                                BSP\STM32F2xx\src\stm32f2xx_exti.o
EXTI_GetITStatus                                  BSP\STM32F2xx\src\stm32f2xx_exti.o
EXTI_Init                                         BSP\STM32F2xx\src\stm32f2xx_exti.o
EXTI_StructInit                                   BSP\STM32F2xx\src\stm32f2xx_exti.o
FLASH_ClearFlag                                   BSP\STM32F2xx\src\stm32f2xx_flash.o
FLASH_DataCacheCmd                                BSP\STM32F2xx\src\stm32f2xx_flash.o
FLASH_DataCacheReset                              BSP\STM32F2xx\src\stm32f2xx_flash.o
FLASH_EraseAllSectors                             BSP\STM32F2xx\src\stm32f2xx_flash.o
FLASH_EraseSector                                 BSP\STM32F2xx\src\stm32f2xx_flash.o
FLASH_GetFlagStatus                               BSP\STM32F2xx\src\stm32f2xx_flash.o
FLASH_GetStatus                                   BSP\STM32F2xx\src\stm32f2xx_flash.o
FLASH_ITConfig                                    BSP\STM32F2xx\src\stm32f2xx_flash.o
FLASH_InstructionCacheCmd                         BSP\STM32F2xx\src\stm32f2xx_flash.o
FLASH_InstructionCacheReset                       BSP\STM32F2xx\src\stm32f2xx_flash.o
FLASH_Lock                                        BSP\STM32F2xx\src\stm32f2xx_flash.o
FLASH_OB_BORConfig                                BSP\STM32F2xx\src\stm32f2xx_flash.o
FLASH_OB_GetBOR                                   BSP\STM32F2xx\src\stm32f2xx_flash.o
FLASH_OB_GetRDP                                   BSP\STM32F2xx\src\stm32f2xx_flash.o
FLASH_OB_GetUser                                  BSP\STM32F2xx\src\stm32f2xx_flash.o
FLASH_OB_GetWRP                                   BSP\STM32F2xx\src\stm32f2xx_flash.o
FLASH_OB_Launch                                   BSP\STM32F2xx\src\stm32f2xx_flash.o
FLASH_OB_Lock                                     BSP\STM32F2xx\src\stm32f2xx_flash.o
FLASH_OB_RDPConfig                                BSP\STM32F2xx\src\stm32f2xx_flash.o
FLASH_OB_Unlock                                   BSP\STM32F2xx\src\stm32f2xx_flash.o
FLASH_OB_UserConfig                               BSP\STM32F2xx\src\stm32f2xx_flash.o
FLASH_OB_WRPConfig                                BSP\STM32F2xx\src\stm32f2xx_flash.o
FLASH_PrefetchBufferCmd                           BSP\STM32F2xx\src\stm32f2xx_flash.o
FLASH_ProgramByte                                 BSP\STM32F2xx\src\stm32f2xx_flash.o
FLASH_ProgramDoubleWord                           BSP\STM32F2xx\src\stm32f2xx_flash.o
FLASH_ProgramHalfWord                             BSP\STM32F2xx\src\stm32f2xx_flash.o
FLASH_ProgramWord                                 BSP\STM32F2xx\src\stm32f2xx_flash.o
FLASH_SetLatency                                  BSP\STM32F2xx\src\stm32f2xx_flash.o
FLASH_Unlock                                      BSP\STM32F2xx\src\stm32f2xx_flash.o
FLASH_WaitForLastOperation                        BSP\STM32F2xx\src\stm32f2xx_flash.o
FSMC_ClearFlag                                    BSP\STM32F2xx\src\stm32f2xx_fsmc.o
FSMC_ClearITPendingBit                            BSP\STM32F2xx\src\stm32f2xx_fsmc.o
FSMC_GetECC                                       BSP\STM32F2xx\src\stm32f2xx_fsmc.o
FSMC_GetFlagStatus                                BSP\STM32F2xx\src\stm32f2xx_fsmc.o
FSMC_GetITStatus                                  BSP\STM32F2xx\src\stm32f2xx_fsmc.o
FSMC_ITConfig                                     BSP\STM32F2xx\src\stm32f2xx_fsmc.o
FSMC_NANDCmd                                      BSP\STM32F2xx\src\stm32f2xx_fsmc.o
FSMC_NANDDeInit                                   BSP\STM32F2xx\src\stm32f2xx_fsmc.o
FSMC_NANDECCCmd                                   BSP\STM32F2xx\src\stm32f2xx_fsmc.o
FSMC_NANDInit                                     BSP\STM32F2xx\src\stm32f2xx_fsmc.o
FSMC_NANDStructInit                               BSP\STM32F2xx\src\stm32f2xx_fsmc.o
FSMC_NORSRAMCmd                                   BSP\STM32F2xx\src\stm32f2xx_fsmc.o
                                                  BSP\bsp.o
                                                  BSP\bsp_lcd.o
FSMC_NORSRAMDeInit                                BSP\STM32F2xx\src\stm32f2xx_fsmc.o
FSMC_NORSRAMInit                                  BSP\STM32F2xx\src\stm32f2xx_fsmc.o
                                                  BSP\bsp.o
                                                  BSP\bsp_lcd.o
FSMC_NORSRAMStructInit                            BSP\STM32F2xx\src\stm32f2xx_fsmc.o
FSMC_PCCARDCmd                                    BSP\STM32F2xx\src\stm32f2xx_fsmc.o
FSMC_PCCARDDeInit                                 BSP\STM32F2xx\src\stm32f2xx_fsmc.o
FSMC_PCCARDInit                                   BSP\STM32F2xx\src\stm32f2xx_fsmc.o
FSMC_PCCARDStructInit                             BSP\STM32F2xx\src\stm32f2xx_fsmc.o
GPIO_CLK                                          BSP\bsp.o
GPIO_DeInit                                       BSP\STM32F2xx\src\stm32f2xx_gpio.o
GPIO_Init                                         BSP\STM32F2xx\src\stm32f2xx_gpio.o
                                                  BSP\bsp.o
                                                  BSP\bsp_ioe.o
                                                  BSP\bsp_lcd.o
                                                  BSP\bsp_ser.o
GPIO_PIN                                          BSP\bsp.o
GPIO_PORT                                         BSP\bsp.o
GPIO_PinAFConfig                                  BSP\STM32F2xx\src\stm32f2xx_gpio.o
                                                  BSP\bsp.o
                                                  BSP\bsp_ioe.o
                                                  BSP\bsp_lcd.o
                                                  BSP\bsp_ser.o
GPIO_PinLockConfig                                BSP\STM32F2xx\src\stm32f2xx_gpio.o
GPIO_ReadInputData                                BSP\STM32F2xx\src\stm32f2xx_gpio.o
GPIO_ReadInputDataBit                             BSP\STM32F2xx\src\stm32f2xx_gpio.o
GPIO_ReadOutputData                               BSP\STM32F2xx\src\stm32f2xx_gpio.o
                                                  BSP\bsp.o
GPIO_ReadOutputDataBit                            BSP\STM32F2xx\src\stm32f2xx_gpio.o
GPIO_ResetBits                                    BSP\STM32F2xx\src\stm32f2xx_gpio.o
                                                  BSP\bsp.o
GPIO_SetBits                                      BSP\STM32F2xx\src\stm32f2xx_gpio.o
                                                  BSP\bsp.o
GPIO_StructInit                                   BSP\STM32F2xx\src\stm32f2xx_gpio.o
GPIO_ToggleBits                                   BSP\STM32F2xx\src\stm32f2xx_gpio.o
GPIO_Write                                        BSP\STM32F2xx\src\stm32f2xx_gpio.o
GPIO_WriteBit                                     BSP\STM32F2xx\src\stm32f2xx_gpio.o
HASH_ClearFlag                                    BSP\STM32F2xx\src\stm32f2xx_hash.o
HASH_ClearITPendingBit                            BSP\STM32F2xx\src\stm32f2xx_hash.o
HASH_DMACmd                                       BSP\STM32F2xx\src\stm32f2xx_hash.o
HASH_DataIn                                       BSP\STM32F2xx\src\stm32f2xx_hash.o
                                                  BSP\STM32F2xx\src\stm32f2xx_hash_md5.o
                                                  BSP\STM32F2xx\src\stm32f2xx_hash_sha1.o
HASH_DeInit                                       BSP\STM32F2xx\src\stm32f2xx_hash.o
                                                  BSP\STM32F2xx\src\stm32f2xx_hash_md5.o
                                                  BSP\STM32F2xx\src\stm32f2xx_hash_sha1.o
HASH_GetDigest                                    BSP\STM32F2xx\src\stm32f2xx_hash.o
                                                  BSP\STM32F2xx\src\stm32f2xx_hash_md5.o
                                                  BSP\STM32F2xx\src\stm32f2xx_hash_sha1.o
HASH_GetFlagStatus                                BSP\STM32F2xx\src\stm32f2xx_hash.o
                                                  BSP\STM32F2xx\src\stm32f2xx_hash_md5.o
                                                  BSP\STM32F2xx\src\stm32f2xx_hash_sha1.o
HASH_GetITStatus                                  BSP\STM32F2xx\src\stm32f2xx_hash.o
HASH_GetInFIFOWordsNbr                            BSP\STM32F2xx\src\stm32f2xx_hash.o
HASH_ITConfig                                     BSP\STM32F2xx\src\stm32f2xx_hash.o
HASH_Init                                         BSP\STM32F2xx\src\stm32f2xx_hash.o
                                                  BSP\STM32F2xx\src\stm32f2xx_hash_md5.o
                                                  BSP\STM32F2xx\src\stm32f2xx_hash_sha1.o
HASH_MD5                                          BSP\STM32F2xx\src\stm32f2xx_hash_md5.o
HASH_Reset                                        BSP\STM32F2xx\src\stm32f2xx_hash.o
HASH_RestoreContext                               BSP\STM32F2xx\src\stm32f2xx_hash.o
HASH_SHA1                                         BSP\STM32F2xx\src\stm32f2xx_hash_sha1.o
HASH_SaveContext                                  BSP\STM32F2xx\src\stm32f2xx_hash.o
HASH_SetLastWordValidBitsNbr                      BSP\STM32F2xx\src\stm32f2xx_hash.o
                                                  BSP\STM32F2xx\src\stm32f2xx_hash_md5.o
                                                  BSP\STM32F2xx\src\stm32f2xx_hash_sha1.o
HASH_StartDigest                                  BSP\STM32F2xx\src\stm32f2xx_hash.o
                                                  BSP\STM32F2xx\src\stm32f2xx_hash_md5.o
                                                  BSP\STM32F2xx\src\stm32f2xx_hash_sha1.o
HASH_StructInit                                   BSP\STM32F2xx\src\stm32f2xx_hash.o
HMAC_MD5                                          BSP\STM32F2xx\src\stm32f2xx_hash_md5.o
HMAC_SHA1                                         BSP\STM32F2xx\src\stm32f2xx_hash_sha1.o
I2C_ARPCmd                                        BSP\STM32F2xx\src\stm32f2xx_i2c.o
I2C_AcknowledgeConfig                             BSP\STM32F2xx\src\stm32f2xx_i2c.o
I2C_CalculatePEC                                  BSP\STM32F2xx\src\stm32f2xx_i2c.o
I2C_CheckEvent                                    BSP\STM32F2xx\src\stm32f2xx_i2c.o
                                                  BSP\bsp_ioe.o
I2C_ClearFlag                                     BSP\STM32F2xx\src\stm32f2xx_i2c.o
I2C_ClearITPendingBit                             BSP\STM32F2xx\src\stm32f2xx_i2c.o
I2C_Cmd                                           BSP\STM32F2xx\src\stm32f2xx_i2c.o
I2C_DMACmd                                        BSP\STM32F2xx\src\stm32f2xx_i2c.o
                                                  BSP\bsp_ioe.o
I2C_DMALastTransferCmd                            BSP\STM32F2xx\src\stm32f2xx_i2c.o
                                                  BSP\bsp_ioe.o
I2C_DeInit                                        BSP\STM32F2xx\src\stm32f2xx_i2c.o
I2C_DualAddressCmd                                BSP\STM32F2xx\src\stm32f2xx_i2c.o
I2C_FastModeDutyCycleConfig                       BSP\STM32F2xx\src\stm32f2xx_i2c.o
I2C_GeneralCallCmd                                BSP\STM32F2xx\src\stm32f2xx_i2c.o
I2C_GenerateSTART                                 BSP\STM32F2xx\src\stm32f2xx_i2c.o
                                                  BSP\bsp_ioe.o
I2C_GenerateSTOP                                  BSP\STM32F2xx\src\stm32f2xx_i2c.o
                                                  BSP\bsp_ioe.o
I2C_GetFlagStatus                                 BSP\STM32F2xx\src\stm32f2xx_i2c.o
                                                  BSP\bsp_ioe.o
I2C_GetITStatus                                   BSP\STM32F2xx\src\stm32f2xx_i2c.o
I2C_GetLastEvent                                  BSP\STM32F2xx\src\stm32f2xx_i2c.o
I2C_GetPEC                                        BSP\STM32F2xx\src\stm32f2xx_i2c.o
I2C_ITConfig                                      BSP\STM32F2xx\src\stm32f2xx_i2c.o
I2C_Init                                          BSP\STM32F2xx\src\stm32f2xx_i2c.o
                                                  BSP\bsp_ioe.o
I2C_NACKPositionConfig                            BSP\STM32F2xx\src\stm32f2xx_i2c.o
I2C_OwnAddress2Config                             BSP\STM32F2xx\src\stm32f2xx_i2c.o
I2C_PECPositionConfig                             BSP\STM32F2xx\src\stm32f2xx_i2c.o
I2C_ReadRegister                                  BSP\STM32F2xx\src\stm32f2xx_i2c.o
I2C_ReceiveData                                   BSP\STM32F2xx\src\stm32f2xx_i2c.o
I2C_SMBusAlertConfig                              BSP\STM32F2xx\src\stm32f2xx_i2c.o
I2C_Send7bitAddress                               BSP\STM32F2xx\src\stm32f2xx_i2c.o
                                                  BSP\bsp_ioe.o
I2C_SendData                                      BSP\STM32F2xx\src\stm32f2xx_i2c.o
                                                  BSP\bsp_ioe.o
I2C_SoftwareResetCmd                              BSP\STM32F2xx\src\stm32f2xx_i2c.o
I2C_StretchClockCmd                               BSP\STM32F2xx\src\stm32f2xx_i2c.o
I2C_StructInit                                    BSP\STM32F2xx\src\stm32f2xx_i2c.o
I2C_TransmitPEC                                   BSP\STM32F2xx\src\stm32f2xx_i2c.o
I2S_Cmd                                           BSP\STM32F2xx\src\stm32f2xx_spi.o
I2S_Init                                          BSP\STM32F2xx\src\stm32f2xx_spi.o
I2S_StructInit                                    BSP\STM32F2xx\src\stm32f2xx_spi.o
IOE_TimeOut                                       BSP\bsp_ioe.o
IWDG_Enable                                       BSP\STM32F2xx\src\stm32f2xx_iwdg.o
IWDG_GetFlagStatus                                BSP\STM32F2xx\src\stm32f2xx_iwdg.o
IWDG_ReloadCounter                                BSP\STM32F2xx\src\stm32f2xx_iwdg.o
IWDG_SetPrescaler                                 BSP\STM32F2xx\src\stm32f2xx_iwdg.o
IWDG_SetReload                                    BSP\STM32F2xx\src\stm32f2xx_iwdg.o
IWDG_WriteAccessCmd                               BSP\STM32F2xx\src\stm32f2xx_iwdg.o
Math_Init                                         uC-LIB\lib_math.o
Math_Rand                                         uC-LIB\lib_math.o
Math_RandSeed                                     uC-LIB\lib_math.o
Math_RandSeedCur                                  uC-LIB\lib_math.o
Math_RandSetSeed                                  uC-LIB\lib_math.o
Mem_Clr                                           uC-LIB\lib_mem.o
                                                  uC-CPU\cpu_core.o
Mem_Cmp                                           uC-LIB\lib_mem.o
Mem_Copy                                          uC-LIB\lib_mem.o
Mem_Heap                                          uC-LIB\lib_mem.o
Mem_HeapAlloc                                     uC-LIB\lib_mem.o
Mem_HeapGetSizeRem                                uC-LIB\lib_mem.o
Mem_Init                                          uC-LIB\lib_mem.o
                                                  APP\app.o
Mem_Move                                          uC-LIB\lib_mem.o
Mem_PoolBlkFree                                   uC-LIB\lib_mem.o
Mem_PoolBlkGet                                    uC-LIB\lib_mem.o
Mem_PoolBlkGetNbrAvail                            uC-LIB\lib_mem.o
Mem_PoolBlkGetUsedAtIx                            uC-LIB\lib_mem.o
Mem_PoolBlkIxGet                                  uC-LIB\lib_mem.o
Mem_PoolClr                                       uC-LIB\lib_mem.o
Mem_PoolCreate                                    uC-LIB\lib_mem.o
Mem_PoolHeap                                      uC-LIB\lib_mem.o
Mem_PoolTbl                                       uC-LIB\lib_mem.o
Mem_SegGetSizeRem                                 uC-LIB\lib_mem.o
Mem_Set                                           uC-LIB\lib_mem.o
NVIC_Init                                         BSP\STM32F2xx\src\misc.o
NVIC_PriorityGroupConfig                          BSP\STM32F2xx\src\misc.o
NVIC_SetVectorTable                               BSP\STM32F2xx\src\misc.o
NVIC_SystemLPConfig                               BSP\STM32F2xx\src\misc.o
OSCfg_DataSizeRAM                                 uCOS-III\Source\os_cfg_app.o
OSCfg_ISRStk                                      uCOS-III\Source\os_cfg_app.o
OSCfg_ISRStkBasePtr                               uCOS-III\Source\os_cfg_app.o
                                                  uCOS-III\Ports\ARM-Cortex-M3\Generic\GNU\os_cpu_c.o
                                                  uCOS-III\Source\os_core.o
OSCfg_ISRStkSize                                  uCOS-III\Source\os_cfg_app.o
                                                  uCOS-III\Ports\ARM-Cortex-M3\Generic\GNU\os_cpu_c.o
                                                  uCOS-III\Source\os_core.o
OSCfg_ISRStkSizeRAM                               uCOS-III\Source\os_cfg_app.o
OSCfg_IdleTaskStk                                 uCOS-III\Source\os_cfg_app.o
OSCfg_IdleTaskStkBasePtr                          uCOS-III\Source\os_cfg_app.o
                                                  uCOS-III\Source\os_core.o
OSCfg_IdleTaskStkLimit                            uCOS-III\Source\os_cfg_app.o
                                                  uCOS-III\Source\os_core.o
OSCfg_IdleTaskStkSize                             uCOS-III\Source\os_cfg_app.o
                                                  uCOS-III\Source\os_core.o
OSCfg_IdleTaskStkSizeRAM                          uCOS-III\Source\os_cfg_app.o
OSCfg_Init                                        uCOS-III\Source\os_cfg_app.o
                                                  uCOS-III\Source\os_core.o
OSCfg_IntQBasePtr                                 uCOS-III\Source\os_cfg_app.o
OSCfg_IntQSize                                    uCOS-III\Source\os_cfg_app.o
OSCfg_IntQSizeRAM                                 uCOS-III\Source\os_cfg_app.o
OSCfg_IntQTaskStkBasePtr                          uCOS-III\Source\os_cfg_app.o
OSCfg_IntQTaskStkLimit                            uCOS-III\Source\os_cfg_app.o
OSCfg_IntQTaskStkSize                             uCOS-III\Source\os_cfg_app.o
OSCfg_IntQTaskStkSizeRAM                          uCOS-III\Source\os_cfg_app.o
OSCfg_MsgPool                                     uCOS-III\Source\os_cfg_app.o
OSCfg_MsgPoolBasePtr                              uCOS-III\Source\os_cfg_app.o
                                                  uCOS-III\Source\os_msg.o
OSCfg_MsgPoolSize                                 uCOS-III\Source\os_cfg_app.o
                                                  uCOS-III\Source\os_msg.o
OSCfg_MsgPoolSizeRAM                              uCOS-III\Source\os_cfg_app.o
OSCfg_StatTaskPrio                                uCOS-III\Source\os_cfg_app.o
                                                  uCOS-III\Source\os_stat.o
OSCfg_StatTaskRate_Hz                             uCOS-III\Source\os_cfg_app.o
                                                  uCOS-III\Source\os_stat.o
OSCfg_StatTaskStk                                 uCOS-III\Source\os_cfg_app.o
OSCfg_StatTaskStkBasePtr                          uCOS-III\Source\os_cfg_app.o
                                                  uCOS-III\Source\os_stat.o
OSCfg_StatTaskStkLimit                            uCOS-III\Source\os_cfg_app.o
                                                  uCOS-III\Source\os_stat.o
OSCfg_StatTaskStkSize                             uCOS-III\Source\os_cfg_app.o
                                                  uCOS-III\Source\os_stat.o
OSCfg_StatTaskStkSizeRAM                          uCOS-III\Source\os_cfg_app.o
OSCfg_StkSizeMin                                  uCOS-III\Source\os_cfg_app.o
                                                  uCOS-III\Source\os_stat.o
                                                  uCOS-III\Source\os_task.o
                                                  uCOS-III\Source\os_tick.o
                                                  uCOS-III\Source\os_tmr.o
OSCfg_TickRate_Hz                                 uCOS-III\Source\os_cfg_app.o
                                                  BSP\OS\bsp_os.o
                                                  BSP\bsp.o
                                                  uCOS-III\Source\os_core.o
                                                  uCOS-III\Source\os_stat.o
                                                  uCOS-III\Source\os_task.o
                                                  uCOS-III\Source\os_time.o
                                                  uCOS-III\Source\os_tmr.o
OSCfg_TickTaskPrio                                uCOS-III\Source\os_cfg_app.o
                                                  uCOS-III\Source\os_tick.o
OSCfg_TickTaskStk                                 uCOS-III\Source\os_cfg_app.o
OSCfg_TickTaskStkBasePtr                          uCOS-III\Source\os_cfg_app.o
                                                  uCOS-III\Source\os_tick.o
OSCfg_TickTaskStkLimit                            uCOS-III\Source\os_cfg_app.o
                                                  uCOS-III\Source\os_tick.o
OSCfg_TickTaskStkSize                             uCOS-III\Source\os_cfg_app.o
                                                  uCOS-III\Source\os_tick.o
OSCfg_TickTaskStkSizeRAM                          uCOS-III\Source\os_cfg_app.o
OSCfg_TickWheel                                   uCOS-III\Source\os_cfg_app.o
                                                  uCOS-III\Source\os_tick.o
OSCfg_TickWheelSize                               uCOS-III\Source\os_cfg_app.o
                                                  uCOS-III\Source\os_tick.o
OSCfg_TickWheelSizeRAM                            uCOS-III\Source\os_cfg_app.o
OSCfg_TmrTaskPrio                                 uCOS-III\Source\os_cfg_app.o
                                                  uCOS-III\Source\os_tmr.o
OSCfg_TmrTaskRate_Hz                              uCOS-III\Source\os_cfg_app.o
                                                  uCOS-III\Source\os_tmr.o
OSCfg_TmrTaskStk                                  uCOS-III\Source\os_cfg_app.o
OSCfg_TmrTaskStkBasePtr                           uCOS-III\Source\os_cfg_app.o
                                                  uCOS-III\Source\os_tmr.o
OSCfg_TmrTaskStkLimit                             uCOS-III\Source\os_cfg_app.o
                                                  uCOS-III\Source\os_tmr.o
OSCfg_TmrTaskStkSize                              uCOS-III\Source\os_cfg_app.o
                                                  uCOS-III\Source\os_tmr.o
OSCfg_TmrTaskStkSizeRAM                           uCOS-III\Source\os_cfg_app.o
OSCfg_TmrWheel                                    uCOS-III\Source\os_cfg_app.o
                                                  uCOS-III\Source\os_tmr.o
OSCfg_TmrWheelSize                                uCOS-III\Source\os_cfg_app.o
                                                  uCOS-III\Source\os_tmr.o
OSCfg_TmrWheelSizeRAM                             uCOS-III\Source\os_cfg_app.o
OSDbg_AppHooksEn                                  uCOS-III\Source\os_dbg.o
OSDbg_ArgChkEn                                    uCOS-III\Source\os_dbg.o
OSDbg_CalledFromISRChkEn                          uCOS-III\Source\os_dbg.o
OSDbg_DataSize                                    uCOS-III\Source\os_dbg.o
OSDbg_DbgEn                                       uCOS-III\Source\os_dbg.o
OSDbg_EndiannessTest                              uCOS-III\Source\os_dbg.o
OSDbg_FlagDelEn                                   uCOS-III\Source\os_dbg.o
OSDbg_FlagEn                                      uCOS-III\Source\os_dbg.o
OSDbg_FlagGrp                                     uCOS-III\Source\os_dbg.o
OSDbg_FlagGrpSize                                 uCOS-III\Source\os_dbg.o
OSDbg_FlagModeClrEn                               uCOS-III\Source\os_dbg.o
OSDbg_FlagPendAbortEn                             uCOS-III\Source\os_dbg.o
OSDbg_FlagWidth                                   uCOS-III\Source\os_dbg.o
OSDbg_ISRPostDeferredEn                           uCOS-III\Source\os_dbg.o
OSDbg_IntQ                                        uCOS-III\Source\os_dbg.o
OSDbg_Mem                                         uCOS-III\Source\os_dbg.o
OSDbg_MemEn                                       uCOS-III\Source\os_dbg.o
OSDbg_MemSize                                     uCOS-III\Source\os_dbg.o
OSDbg_MsgEn                                       uCOS-III\Source\os_dbg.o
OSDbg_MsgPoolSize                                 uCOS-III\Source\os_dbg.o
OSDbg_MsgQSize                                    uCOS-III\Source\os_dbg.o
OSDbg_MsgSize                                     uCOS-III\Source\os_dbg.o
OSDbg_Mutex                                       uCOS-III\Source\os_dbg.o
OSDbg_MutexDelEn                                  uCOS-III\Source\os_dbg.o
OSDbg_MutexEn                                     uCOS-III\Source\os_dbg.o
OSDbg_MutexPendAbortEn                            uCOS-III\Source\os_dbg.o
OSDbg_MutexSize                                   uCOS-III\Source\os_dbg.o
OSDbg_ObjTypeChkEn                                uCOS-III\Source\os_dbg.o
OSDbg_PendDataSize                                uCOS-III\Source\os_dbg.o
OSDbg_PendListSize                                uCOS-III\Source\os_dbg.o
OSDbg_PendMultiEn                                 uCOS-III\Source\os_dbg.o
OSDbg_PendObjSize                                 uCOS-III\Source\os_dbg.o
OSDbg_PrioMax                                     uCOS-III\Source\os_dbg.o
OSDbg_PrioTblSize                                 uCOS-III\Source\os_dbg.o
OSDbg_PtrSize                                     uCOS-III\Source\os_dbg.o
OSDbg_Q                                           uCOS-III\Source\os_dbg.o
OSDbg_QDelEn                                      uCOS-III\Source\os_dbg.o
OSDbg_QEn                                         uCOS-III\Source\os_dbg.o
OSDbg_QFlushEn                                    uCOS-III\Source\os_dbg.o
OSDbg_QPendAbortEn                                uCOS-III\Source\os_dbg.o
OSDbg_QSize                                       uCOS-III\Source\os_dbg.o
OSDbg_RdyList                                     uCOS-III\Source\os_dbg.o
OSDbg_RdyListSize                                 uCOS-III\Source\os_dbg.o
OSDbg_SchedRoundRobinEn                           uCOS-III\Source\os_dbg.o
OSDbg_Sem                                         uCOS-III\Source\os_dbg.o
OSDbg_SemDelEn                                    uCOS-III\Source\os_dbg.o
OSDbg_SemEn                                       uCOS-III\Source\os_dbg.o
OSDbg_SemPendAbortEn                              uCOS-III\Source\os_dbg.o
OSDbg_SemSetEn                                    uCOS-III\Source\os_dbg.o
OSDbg_SemSize                                     uCOS-III\Source\os_dbg.o
OSDbg_StatTaskEn                                  uCOS-III\Source\os_dbg.o
OSDbg_StatTaskStkChkEn                            uCOS-III\Source\os_dbg.o
OSDbg_StkWidth                                    uCOS-III\Source\os_dbg.o
OSDbg_TCBSize                                     uCOS-III\Source\os_dbg.o
OSDbg_TLS_TblSize                                 uCOS-III\Source\os_dbg.o
OSDbg_TaskChangePrioEn                            uCOS-III\Source\os_dbg.o
OSDbg_TaskDelEn                                   uCOS-III\Source\os_dbg.o
OSDbg_TaskProfileEn                               uCOS-III\Source\os_dbg.o
OSDbg_TaskQEn                                     uCOS-III\Source\os_dbg.o
OSDbg_TaskQPendAbortEn                            uCOS-III\Source\os_dbg.o
OSDbg_TaskRegTblSize                              uCOS-III\Source\os_dbg.o
OSDbg_TaskSemPendAbortEn                          uCOS-III\Source\os_dbg.o
OSDbg_TaskSuspendEn                               uCOS-III\Source\os_dbg.o
OSDbg_TickSpokeSize                               uCOS-III\Source\os_dbg.o
OSDbg_TimeDlyHMSMEn                               uCOS-III\Source\os_dbg.o
OSDbg_TimeDlyResumeEn                             uCOS-III\Source\os_dbg.o
OSDbg_Tmr                                         uCOS-III\Source\os_dbg.o
OSDbg_TmrDelEn                                    uCOS-III\Source\os_dbg.o
OSDbg_TmrEn                                       uCOS-III\Source\os_dbg.o
OSDbg_TmrSize                                     uCOS-III\Source\os_dbg.o
OSDbg_TmrSpokeSize                                uCOS-III\Source\os_dbg.o
OSDbg_VersionNbr                                  uCOS-III\Source\os_dbg.o
OSFlagCreate                                      uCOS-III\Source\os_flag.o
OSFlagDbgListPtr                                  uCOS-III\Source\os_flag.o
                                                  uCOS-III\Source\os_var.o
OSFlagPend                                        uCOS-III\Source\os_flag.o
OSFlagPendGetFlagsRdy                             uCOS-III\Source\os_flag.o
OSFlagPost                                        uCOS-III\Source\os_flag.o
OSFlagQty                                         uCOS-III\Source\os_flag.o
                                                  uCOS-III\Source\os_var.o
OSIdleTaskCtr                                     uCOS-III\Source\os_core.o
                                                  uCOS-III\Source\os_var.o
OSIdleTaskHook                                    uCOS-III\Ports\ARM-Cortex-M3\Generic\GNU\os_cpu_c.o
                                                  uCOS-III\Source\os_core.o
OSIdleTaskTCB                                     uCOS-III\Source\os_core.o
                                                  uCOS-III\Source\os_task.o
                                                  uCOS-III\Source\os_var.o
OSInit                                            uCOS-III\Source\os_core.o
                                                  APP\app.o
OSInitHook                                        uCOS-III\Ports\ARM-Cortex-M3\Generic\GNU\os_cpu_c.o
                                                  uCOS-III\Source\os_core.o
OSIntEnter                                        uCOS-III\Source\os_core.o
                                                  BSP\bsp_int.o
OSIntExit                                         uCOS-III\Source\os_core.o
                                                  BSP\bsp_int.o
                                                  uCOS-III\Ports\ARM-Cortex-M3\Generic\GNU\os_cpu_c.o
OSIntNestingCtr                                   uCOS-III\Ports\ARM-Cortex-M3\Generic\GNU\os_cpu_c.o
                                                  uCOS-III\Source\os_core.o
                                                  uCOS-III\Source\os_flag.o
                                                  uCOS-III\Source\os_mem.o
                                                  uCOS-III\Source\os_mutex.o
                                                  uCOS-III\Source\os_pend_multi.o
                                                  uCOS-III\Source\os_q.o
                                                  uCOS-III\Source\os_sem.o
                                                  uCOS-III\Source\os_task.o
                                                  uCOS-III\Source\os_time.o
                                                  uCOS-III\Source\os_tmr.o
                                                  uCOS-III\Source\os_var.o
OSMemCreate                                       uCOS-III\Source\os_mem.o
OSMemDbgListPtr                                   uCOS-III\Source\os_mem.o
                                                  uCOS-III\Source\os_var.o
OSMemGet                                          uCOS-III\Source\os_mem.o
OSMemPut                                          uCOS-III\Source\os_mem.o
OSMemQty                                          uCOS-III\Source\os_mem.o
                                                  uCOS-III\Source\os_var.o
OSMsgPool                                         uCOS-III\Source\os_msg.o
                                                  uCOS-III\Source\os_stat.o
                                                  uCOS-III\Source\os_var.o
OSMutexCreate                                     uCOS-III\Source\os_mutex.o
OSMutexDbgListPtr                                 uCOS-III\Source\os_mutex.o
                                                  uCOS-III\Source\os_var.o
OSMutexPend                                       uCOS-III\Source\os_mutex.o
OSMutexPost                                       uCOS-III\Source\os_mutex.o
OSMutexQty                                        uCOS-III\Source\os_mutex.o
                                                  uCOS-III\Source\os_var.o
OSPendMulti                                       uCOS-III\Source\os_pend_multi.o
OSPrioCur                                         uCOS-III\Ports\ARM-Cortex-M3\Generic\GNU\os_cpu_a.o
                                                  uCOS-III\Source\os_core.o
                                                  uCOS-III\Source\os_mutex.o
                                                  uCOS-III\Source\os_time.o
                                                  uCOS-III\Source\os_var.o
OSPrioHighRdy                                     uCOS-III\Ports\ARM-Cortex-M3\Generic\GNU\os_cpu_a.o
                                                  uCOS-III\Source\os_core.o
                                                  uCOS-III\Source\os_var.o
OSPrioSaved                                       uCOS-III\Source\os_core.o
                                                  uCOS-III\Source\os_var.o
OSPrioTbl                                         uCOS-III\Source\os_prio.o
OSQCreate                                         uCOS-III\Source\os_q.o
OSQDbgListPtr                                     uCOS-III\Source\os_q.o
                                                  uCOS-III\Source\os_stat.o
                                                  uCOS-III\Source\os_var.o
OSQPend                                           uCOS-III\Source\os_q.o
OSQPendAbort                                      uCOS-III\Source\os_q.o
OSQPost                                           uCOS-III\Source\os_q.o
OSQQty                                            uCOS-III\Source\os_q.o
                                                  uCOS-III\Source\os_var.o
OSRdyList                                         uCOS-III\Source\os_core.o
                                                  uCOS-III\Source\os_time.o
                                                  uCOS-III\Source\os_var.o
OSRunning                                         uCOS-III\Source\os_core.o
                                                  uCOS-III\Source\os_task.o
                                                  uCOS-III\Source\os_tick.o
                                                  uCOS-III\Source\os_var.o
OSSched                                           uCOS-III\Source\os_core.o
                                                  uCOS-III\Source\os_flag.o
                                                  uCOS-III\Source\os_mutex.o
                                                  uCOS-III\Source\os_pend_multi.o
                                                  uCOS-III\Source\os_q.o
                                                  uCOS-III\Source\os_sem.o
                                                  uCOS-III\Source\os_task.o
                                                  uCOS-III\Source\os_time.o
OSSchedLock                                       uCOS-III\Source\os_core.o
                                                  uCOS-III\Source\os_tmr.o
OSSchedLockNestingCtr                             uCOS-III\Source\os_core.o
                                                  uCOS-III\Source\os_flag.o
                                                  uCOS-III\Source\os_mutex.o
                                                  uCOS-III\Source\os_pend_multi.o
                                                  uCOS-III\Source\os_q.o
                                                  uCOS-III\Source\os_sem.o
                                                  uCOS-III\Source\os_task.o
                                                  uCOS-III\Source\os_time.o
                                                  uCOS-III\Source\os_var.o
OSSchedLockTimeBegin                              uCOS-III\Source\os_core.o
                                                  uCOS-III\Source\os_var.o
OSSchedLockTimeMax                                uCOS-III\Source\os_core.o
                                                  uCOS-III\Source\os_stat.o
                                                  uCOS-III\Source\os_var.o
OSSchedLockTimeMaxCur                             uCOS-III\Ports\ARM-Cortex-M3\Generic\GNU\os_cpu_c.o
                                                  uCOS-III\Source\os_core.o
                                                  uCOS-III\Source\os_var.o
OSSchedRoundRobinCfg                              uCOS-III\Source\os_core.o
OSSchedRoundRobinDfltTimeQuanta                   uCOS-III\Source\os_core.o
                                                  uCOS-III\Source\os_task.o
                                                  uCOS-III\Source\os_var.o
OSSchedRoundRobinEn                               uCOS-III\Source\os_core.o
                                                  uCOS-III\Source\os_var.o
OSSchedRoundRobinYield                            uCOS-III\Source\os_core.o
OSSchedUnlock                                     uCOS-III\Source\os_core.o
                                                  uCOS-III\Source\os_tmr.o
OSSemCreate                                       uCOS-III\Source\os_sem.o
                                                  BSP\OS\bsp_os.o
OSSemDbgListPtr                                   uCOS-III\Source\os_sem.o
                                                  uCOS-III\Source\os_var.o
OSSemPend                                         uCOS-III\Source\os_sem.o
                                                  BSP\OS\bsp_os.o
OSSemPendAbort                                    uCOS-III\Source\os_sem.o
OSSemPost                                         uCOS-III\Source\os_sem.o
                                                  BSP\OS\bsp_os.o
OSSemQty                                          uCOS-III\Source\os_sem.o
                                                  uCOS-III\Source\os_var.o
OSSemSet                                          uCOS-III\Source\os_sem.o
OSStart                                           uCOS-III\Source\os_core.o
                                                  APP\app.o
OSStartHighRdy                                    uCOS-III\Ports\ARM-Cortex-M3\Generic\GNU\os_cpu_a.o
                                                  uCOS-III\Source\os_core.o
OSStatReset                                       uCOS-III\Source\os_stat.o
OSStatResetFlag                                   uCOS-III\Source\os_stat.o
                                                  uCOS-III\Source\os_var.o
OSStatTaskCPUUsage                                uCOS-III\Source\os_stat.o
                                                  uCOS-III\Source\os_var.o
OSStatTaskCPUUsageInit                            uCOS-III\Source\os_stat.o
OSStatTaskCPUUsageMax                             uCOS-III\Source\os_stat.o
                                                  uCOS-III\Source\os_var.o
OSStatTaskCtr                                     uCOS-III\Source\os_core.o
                                                  uCOS-III\Source\os_stat.o
                                                  uCOS-III\Source\os_var.o
OSStatTaskCtrMax                                  uCOS-III\Source\os_stat.o
                                                  uCOS-III\Source\os_var.o
OSStatTaskCtrRun                                  uCOS-III\Source\os_stat.o
                                                  uCOS-III\Source\os_var.o
OSStatTaskHook                                    uCOS-III\Ports\ARM-Cortex-M3\Generic\GNU\os_cpu_c.o
                                                  uCOS-III\Source\os_stat.o
OSStatTaskRdy                                     uCOS-III\Source\os_stat.o
                                                  uCOS-III\Source\os_var.o
OSStatTaskTCB                                     uCOS-III\Source\os_stat.o
                                                  uCOS-III\Source\os_var.o
OSStatTaskTimeMax                                 uCOS-III\Source\os_stat.o
                                                  uCOS-III\Source\os_var.o
OSTCBCurPtr                                       uCOS-III\Ports\ARM-Cortex-M3\Generic\GNU\os_cpu_a.o
                                                  uCOS-III\Ports\ARM-Cortex-M3\Generic\GNU\os_cpu_c.o
                                                  uCOS-III\Source\os_core.o
                                                  uCOS-III\Source\os_flag.o
                                                  uCOS-III\Source\os_mutex.o
                                                  uCOS-III\Source\os_pend_multi.o
                                                  uCOS-III\Source\os_q.o
                                                  uCOS-III\Source\os_sem.o
                                                  uCOS-III\Source\os_task.o
                                                  uCOS-III\Source\os_time.o
                                                  uCOS-III\Source\os_var.o
OSTCBHighRdyPtr                                   uCOS-III\Ports\ARM-Cortex-M3\Generic\GNU\os_cpu_a.o
                                                  uCOS-III\Ports\ARM-Cortex-M3\Generic\GNU\os_cpu_c.o
                                                  uCOS-III\Source\os_core.o
                                                  uCOS-III\Source\os_var.o
OSTaskChangePrio                                  uCOS-III\Source\os_task.o
OSTaskCreate                                      uCOS-III\Source\os_task.o
                                                  APP\app.o
                                                  uCOS-III\Source\os_core.o
                                                  uCOS-III\Source\os_stat.o
                                                  uCOS-III\Source\os_tick.o
                                                  uCOS-III\Source\os_tmr.o
OSTaskCreateHook                                  uCOS-III\Ports\ARM-Cortex-M3\Generic\GNU\os_cpu_c.o
                                                  uCOS-III\Source\os_task.o
OSTaskCtxSwCtr                                    uCOS-III\Source\os_core.o
                                                  uCOS-III\Source\os_task.o
                                                  uCOS-III\Source\os_var.o
OSTaskDbgListPtr                                  uCOS-III\Source\os_stat.o
                                                  uCOS-III\Source\os_task.o
                                                  uCOS-III\Source\os_var.o
OSTaskDelHook                                     uCOS-III\Ports\ARM-Cortex-M3\Generic\GNU\os_cpu_c.o
OSTaskQFlush                                      uCOS-III\Source\os_task.o
OSTaskQPend                                       uCOS-III\Source\os_task.o
OSTaskQPost                                       uCOS-III\Source\os_task.o
OSTaskQty                                         uCOS-III\Source\os_task.o
                                                  uCOS-III\Source\os_var.o
OSTaskRegGet                                      uCOS-III\Source\os_task.o
OSTaskRegGetID                                    uCOS-III\Source\os_task.o
OSTaskRegNextAvailID                              uCOS-III\Source\os_core.o
                                                  uCOS-III\Source\os_task.o
                                                  uCOS-III\Source\os_var.o
OSTaskRegSet                                      uCOS-III\Source\os_task.o
OSTaskResume                                      uCOS-III\Source\os_task.o
                                                  uCOS-III\Source\os_stat.o
OSTaskReturnHook                                  uCOS-III\Ports\ARM-Cortex-M3\Generic\GNU\os_cpu_c.o
                                                  uCOS-III\Source\os_task.o
OSTaskSemPend                                     uCOS-III\Source\os_task.o
                                                  uCOS-III\Source\os_tick.o
                                                  uCOS-III\Source\os_tmr.o
OSTaskSemPendAbort                                uCOS-III\Source\os_task.o
OSTaskSemPost                                     uCOS-III\Source\os_task.o
                                                  uCOS-III\Source\os_time.o
OSTaskSemSet                                      uCOS-III\Source\os_task.o
OSTaskStkChk                                      uCOS-III\Source\os_task.o
                                                  uCOS-III\Source\os_stat.o
OSTaskStkInit                                     uCOS-III\Ports\ARM-Cortex-M3\Generic\GNU\os_cpu_c.o
                                                  uCOS-III\Source\os_task.o
OSTaskSuspend                                     uCOS-III\Source\os_task.o
                                                  uCOS-III\Source\os_stat.o
OSTaskSwHook                                      uCOS-III\Ports\ARM-Cortex-M3\Generic\GNU\os_cpu_c.o
                                                  uCOS-III\Ports\ARM-Cortex-M3\Generic\GNU\os_cpu_a.o
OSTaskTimeQuantaSet                               uCOS-III\Source\os_task.o
OSTickCtr                                         uCOS-III\Source\os_tick.o
                                                  uCOS-III\Source\os_time.o
                                                  uCOS-III\Source\os_var.o
OSTickTaskTCB                                     uCOS-III\Source\os_tick.o
                                                  uCOS-III\Source\os_time.o
                                                  uCOS-III\Source\os_var.o
OSTickTaskTimeMax                                 uCOS-III\Source\os_stat.o
                                                  uCOS-III\Source\os_tick.o
                                                  uCOS-III\Source\os_var.o
OSTimeDly                                         uCOS-III\Source\os_time.o
                                                  uCOS-III\Source\os_stat.o
                                                  uCOS-III\Source\os_task.o
OSTimeDlyHMSM                                     uCOS-III\Source\os_time.o
                                                  APP\app.o
                                                  BSP\OS\bsp_os.o
OSTimeGet                                         uCOS-III\Source\os_time.o
OSTimeSet                                         uCOS-III\Source\os_time.o
OSTimeTick                                        uCOS-III\Source\os_time.o
                                                  uCOS-III\Ports\ARM-Cortex-M3\Generic\GNU\os_cpu_c.o
OSTimeTickHook                                    uCOS-III\Ports\ARM-Cortex-M3\Generic\GNU\os_cpu_c.o
                                                  uCOS-III\Source\os_time.o
OSTmrCreate                                       uCOS-III\Source\os_tmr.o
OSTmrDbgListPtr                                   uCOS-III\Source\os_tmr.o
                                                  uCOS-III\Source\os_var.o
OSTmrQty                                          uCOS-III\Source\os_tmr.o
                                                  uCOS-III\Source\os_var.o
OSTmrRemainGet                                    uCOS-III\Source\os_tmr.o
OSTmrStart                                        uCOS-III\Source\os_tmr.o
OSTmrStateGet                                     uCOS-III\Source\os_tmr.o
OSTmrStop                                         uCOS-III\Source\os_tmr.o
OSTmrTaskTCB                                      uCOS-III\Source\os_stat.o
                                                  uCOS-III\Source\os_time.o
                                                  uCOS-III\Source\os_tmr.o
                                                  uCOS-III\Source\os_var.o
OSTmrTaskTimeMax                                  uCOS-III\Source\os_stat.o
                                                  uCOS-III\Source\os_tmr.o
                                                  uCOS-III\Source\os_var.o
OSTmrTickCtr                                      uCOS-III\Source\os_tmr.o
                                                  uCOS-III\Source\os_var.o
OSTmrUpdateCnt                                    uCOS-III\Source\os_time.o
                                                  uCOS-III\Source\os_tmr.o
                                                  uCOS-III\Source\os_var.o
OSTmrUpdateCtr                                    uCOS-III\Source\os_time.o
                                                  uCOS-III\Source\os_tmr.o
                                                  uCOS-III\Source\os_var.o
OSVersion                                         uCOS-III\Source\os_core.o
OS_AppIdleTaskHookPtr                             APP\os_app_hooks.o
                                                  uCOS-III\Ports\ARM-Cortex-M3\Generic\GNU\os_cpu_c.o
                                                  uCOS-III\Source\os_core.o
                                                  uCOS-III\Source\os_var.o
OS_AppStatTaskHookPtr                             APP\os_app_hooks.o
                                                  uCOS-III\Ports\ARM-Cortex-M3\Generic\GNU\os_cpu_c.o
                                                  uCOS-III\Source\os_core.o
                                                  uCOS-III\Source\os_var.o
OS_AppTaskCreateHookPtr                           APP\os_app_hooks.o
                                                  uCOS-III\Ports\ARM-Cortex-M3\Generic\GNU\os_cpu_c.o
                                                  uCOS-III\Source\os_core.o
                                                  uCOS-III\Source\os_var.o
OS_AppTaskDelHookPtr                              APP\os_app_hooks.o
                                                  uCOS-III\Ports\ARM-Cortex-M3\Generic\GNU\os_cpu_c.o
                                                  uCOS-III\Source\os_core.o
                                                  uCOS-III\Source\os_var.o
OS_AppTaskReturnHookPtr                           APP\os_app_hooks.o
                                                  uCOS-III\Ports\ARM-Cortex-M3\Generic\GNU\os_cpu_c.o
                                                  uCOS-III\Source\os_core.o
                                                  uCOS-III\Source\os_var.o
OS_AppTaskSwHookPtr                               APP\os_app_hooks.o
                                                  uCOS-III\Ports\ARM-Cortex-M3\Generic\GNU\os_cpu_c.o
                                                  uCOS-III\Source\os_core.o
                                                  uCOS-III\Source\os_var.o
OS_AppTimeTickHookPtr                             APP\os_app_hooks.o
                                                  uCOS-III\Ports\ARM-Cortex-M3\Generic\GNU\os_cpu_c.o
                                                  uCOS-III\Source\os_core.o
                                                  uCOS-III\Source\os_var.o
OS_CPU_ExceptStkBase                              uCOS-III\Ports\ARM-Cortex-M3\Generic\GNU\os_cpu_a.o
                                                  uCOS-III\Ports\ARM-Cortex-M3\Generic\GNU\os_cpu_c.o
OS_CPU_PendSVHandler                              uCOS-III\Ports\ARM-Cortex-M3\Generic\GNU\os_cpu_a.o
                                                  BSP\cstartup.o
OS_CPU_SysTickHandler                             uCOS-III\Ports\ARM-Cortex-M3\Generic\GNU\os_cpu_c.o
                                                  BSP\cstartup.o
OS_CPU_SysTickInit                                uCOS-III\Ports\ARM-Cortex-M3\Generic\GNU\os_cpu_c.o
                                                  BSP\bsp.o
OS_Dbg_Init                                       uCOS-III\Source\os_dbg.o
                                                  uCOS-III\Source\os_core.o
OS_FlagBlock                                      uCOS-III\Source\os_flag.o
OS_FlagClr                                        uCOS-III\Source\os_flag.o
OS_FlagDbgListAdd                                 uCOS-III\Source\os_flag.o
OS_FlagDbgListRemove                              uCOS-III\Source\os_flag.o
OS_FlagInit                                       uCOS-III\Source\os_flag.o
                                                  uCOS-III\Source\os_core.o
OS_FlagPost                                       uCOS-III\Source\os_flag.o
OS_FlagTaskRdy                                    uCOS-III\Source\os_flag.o
OS_IdleTask                                       uCOS-III\Source\os_core.o
OS_IdleTaskInit                                   uCOS-III\Source\os_core.o
OS_MemDbgListAdd                                  uCOS-III\Source\os_mem.o
OS_MemInit                                        uCOS-III\Source\os_mem.o
                                                  uCOS-III\Source\os_core.o
OS_MsgPoolInit                                    uCOS-III\Source\os_msg.o
                                                  uCOS-III\Source\os_core.o
OS_MsgQFreeAll                                    uCOS-III\Source\os_msg.o
                                                  uCOS-III\Source\os_q.o
                                                  uCOS-III\Source\os_task.o
OS_MsgQGet                                        uCOS-III\Source\os_msg.o
                                                  uCOS-III\Source\os_pend_multi.o
                                                  uCOS-III\Source\os_q.o
                                                  uCOS-III\Source\os_task.o
OS_MsgQInit                                       uCOS-III\Source\os_msg.o
                                                  uCOS-III\Source\os_q.o
                                                  uCOS-III\Source\os_task.o
OS_MsgQPut                                        uCOS-III\Source\os_msg.o
                                                  uCOS-III\Source\os_q.o
                                                  uCOS-III\Source\os_task.o
OS_MutexClr                                       uCOS-III\Source\os_mutex.o
OS_MutexDbgListAdd                                uCOS-III\Source\os_mutex.o
OS_MutexDbgListRemove                             uCOS-III\Source\os_mutex.o
OS_MutexInit                                      uCOS-III\Source\os_mutex.o
                                                  uCOS-III\Source\os_core.o
OS_Pend                                           uCOS-III\Source\os_core.o
                                                  uCOS-III\Source\os_flag.o
                                                  uCOS-III\Source\os_mutex.o
                                                  uCOS-III\Source\os_q.o
                                                  uCOS-III\Source\os_sem.o
                                                  uCOS-III\Source\os_task.o
OS_PendAbort                                      uCOS-III\Source\os_core.o
                                                  uCOS-III\Source\os_q.o
                                                  uCOS-III\Source\os_sem.o
                                                  uCOS-III\Source\os_task.o
OS_PendAbort1                                     uCOS-III\Source\os_core.o
OS_PendDataInit                                   uCOS-III\Source\os_core.o
OS_PendDbgNameAdd                                 uCOS-III\Source\os_core.o
OS_PendDbgNameRemove                              uCOS-III\Source\os_core.o
OS_PendListChangePrio                             uCOS-III\Source\os_core.o
                                                  uCOS-III\Source\os_mutex.o
                                                  uCOS-III\Source\os_task.o
OS_PendListInit                                   uCOS-III\Source\os_core.o
                                                  uCOS-III\Source\os_flag.o
                                                  uCOS-III\Source\os_mutex.o
                                                  uCOS-III\Source\os_q.o
                                                  uCOS-III\Source\os_sem.o
OS_PendListInsertHead                             uCOS-III\Source\os_core.o
OS_PendListInsertPrio                             uCOS-III\Source\os_core.o
                                                  uCOS-III\Source\os_pend_multi.o
OS_PendListRemove                                 uCOS-III\Source\os_core.o
                                                  uCOS-III\Source\os_flag.o
                                                  uCOS-III\Source\os_tick.o
OS_PendListRemove1                                uCOS-III\Source\os_core.o
OS_PendMultiGetRdy                                uCOS-III\Source\os_pend_multi.o
OS_PendMultiValidate                              uCOS-III\Source\os_pend_multi.o
OS_PendMultiWait                                  uCOS-III\Source\os_pend_multi.o
OS_PendObjDel                                     uCOS-III\Source\os_core.o
OS_PendObjDel1                                    uCOS-III\Source\os_core.o
OS_Post                                           uCOS-III\Source\os_core.o
                                                  uCOS-III\Source\os_mutex.o
                                                  uCOS-III\Source\os_q.o
                                                  uCOS-III\Source\os_sem.o
                                                  uCOS-III\Source\os_task.o
OS_Post1                                          uCOS-III\Source\os_core.o
OS_PrioGetHighest                                 uCOS-III\Source\os_prio.o
                                                  uCOS-III\Source\os_core.o
OS_PrioInit                                       uCOS-III\Source\os_prio.o
                                                  uCOS-III\Source\os_core.o
OS_PrioInsert                                     uCOS-III\Source\os_prio.o
                                                  uCOS-III\Source\os_core.o
                                                  uCOS-III\Source\os_mutex.o
                                                  uCOS-III\Source\os_task.o
OS_PrioRemove                                     uCOS-III\Source\os_prio.o
                                                  uCOS-III\Source\os_core.o
OS_QClr                                           uCOS-III\Source\os_q.o
OS_QDbgListAdd                                    uCOS-III\Source\os_q.o
OS_QDbgListRemove                                 uCOS-III\Source\os_q.o
OS_QInit                                          uCOS-III\Source\os_q.o
                                                  uCOS-III\Source\os_core.o
OS_QPost                                          uCOS-III\Source\os_q.o
OS_RdyListInit                                    uCOS-III\Source\os_core.o
OS_RdyListInsert                                  uCOS-III\Source\os_core.o
OS_RdyListInsertHead                              uCOS-III\Source\os_core.o
                                                  uCOS-III\Source\os_mutex.o
                                                  uCOS-III\Source\os_task.o
OS_RdyListInsertTail                              uCOS-III\Source\os_core.o
                                                  uCOS-III\Source\os_mutex.o
                                                  uCOS-III\Source\os_task.o
OS_RdyListMoveHeadToTail                          uCOS-III\Source\os_core.o
OS_RdyListRemove                                  uCOS-III\Source\os_core.o
                                                  uCOS-III\Source\os_mutex.o
                                                  uCOS-III\Source\os_task.o
                                                  uCOS-III\Source\os_time.o
OS_SchedLockTimeMeasStart                         uCOS-III\Source\os_core.o
OS_SchedLockTimeMeasStop                          uCOS-III\Source\os_core.o
OS_SchedRoundRobin                                uCOS-III\Source\os_core.o
                                                  uCOS-III\Source\os_time.o
OS_SemClr                                         uCOS-III\Source\os_sem.o
OS_SemDbgListAdd                                  uCOS-III\Source\os_sem.o
OS_SemDbgListRemove                               uCOS-III\Source\os_sem.o
OS_SemInit                                        uCOS-III\Source\os_sem.o
                                                  uCOS-III\Source\os_core.o
OS_SemPost                                        uCOS-III\Source\os_sem.o
OS_StatTask                                       uCOS-III\Source\os_stat.o
OS_StatTaskInit                                   uCOS-III\Source\os_stat.o
                                                  uCOS-III\Source\os_core.o
OS_TaskBlock                                      uCOS-III\Source\os_core.o
                                                  uCOS-III\Source\os_pend_multi.o
OS_TaskDbgListAdd                                 uCOS-III\Source\os_task.o
OS_TaskDbgListRemove                              uCOS-III\Source\os_task.o
OS_TaskInit                                       uCOS-III\Source\os_task.o
                                                  uCOS-III\Source\os_core.o
OS_TaskInitTCB                                    uCOS-III\Source\os_task.o
OS_TaskQPost                                      uCOS-III\Source\os_task.o
OS_TaskRdy                                        uCOS-III\Source\os_core.o
                                                  uCOS-III\Source\os_flag.o
                                                  uCOS-III\Source\os_task.o
                                                  uCOS-III\Source\os_tick.o
OS_TaskResume                                     uCOS-III\Source\os_task.o
OS_TaskReturn                                     uCOS-III\Source\os_task.o
                                                  uCOS-III\Ports\ARM-Cortex-M3\Generic\GNU\os_cpu_c.o
OS_TaskSemPost                                    uCOS-III\Source\os_task.o
OS_TaskSuspend                                    uCOS-III\Source\os_task.o
OS_TickListInit                                   uCOS-III\Source\os_tick.o
OS_TickListInsert                                 uCOS-III\Source\os_tick.o
                                                  uCOS-III\Source\os_core.o
                                                  uCOS-III\Source\os_time.o
OS_TickListRemove                                 uCOS-III\Source\os_tick.o
                                                  uCOS-III\Source\os_core.o
OS_TickListResetPeak                              uCOS-III\Source\os_tick.o
                                                  uCOS-III\Source\os_stat.o
OS_TickListUpdate                                 uCOS-III\Source\os_tick.o
OS_TickTask                                       uCOS-III\Source\os_tick.o
OS_TickTaskInit                                   uCOS-III\Source\os_tick.o
                                                  uCOS-III\Source\os_core.o
OS_TmrClr                                         uCOS-III\Source\os_tmr.o
OS_TmrDbgListAdd                                  uCOS-III\Source\os_tmr.o
OS_TmrDbgListRemove                               uCOS-III\Source\os_tmr.o
OS_TmrInit                                        uCOS-III\Source\os_tmr.o
                                                  uCOS-III\Source\os_core.o
OS_TmrLink                                        uCOS-III\Source\os_tmr.o
OS_TmrResetPeak                                   uCOS-III\Source\os_tmr.o
                                                  uCOS-III\Source\os_stat.o
OS_TmrTask                                        uCOS-III\Source\os_tmr.o
OS_TmrUnlink                                      uCOS-III\Source\os_tmr.o
PWR_BackupAccessCmd                               BSP\STM32F2xx\src\stm32f2xx_pwr.o
PWR_BackupRegulatorCmd                            BSP\STM32F2xx\src\stm32f2xx_pwr.o
PWR_ClearFlag                                     BSP\STM32F2xx\src\stm32f2xx_pwr.o
PWR_DeInit                                        BSP\STM32F2xx\src\stm32f2xx_pwr.o
PWR_EnterSTANDBYMode                              BSP\STM32F2xx\src\stm32f2xx_pwr.o
PWR_EnterSTOPMode                                 BSP\STM32F2xx\src\stm32f2xx_pwr.o
PWR_FlashPowerDownCmd                             BSP\STM32F2xx\src\stm32f2xx_pwr.o
PWR_GetFlagStatus                                 BSP\STM32F2xx\src\stm32f2xx_pwr.o
PWR_PVDCmd                                        BSP\STM32F2xx\src\stm32f2xx_pwr.o
PWR_PVDLevelConfig                                BSP\STM32F2xx\src\stm32f2xx_pwr.o
PWR_WakeUpPinCmd                                  BSP\STM32F2xx\src\stm32f2xx_pwr.o
RCC_AHB1PeriphClockCmd                            BSP\STM32F2xx\src\stm32f2xx_rcc.o
                                                  BSP\bsp.o
                                                  BSP\bsp_ioe.o
                                                  BSP\bsp_lcd.o
                                                  BSP\bsp_ser.o
RCC_AHB1PeriphClockLPModeCmd                      BSP\STM32F2xx\src\stm32f2xx_rcc.o
RCC_AHB1PeriphResetCmd                            BSP\STM32F2xx\src\stm32f2xx_rcc.o
                                                  BSP\STM32F2xx\src\stm32f2xx_gpio.o
RCC_AHB2PeriphClockCmd                            BSP\STM32F2xx\src\stm32f2xx_rcc.o
                                                  BSP\bsp.o
RCC_AHB2PeriphClockLPModeCmd                      BSP\STM32F2xx\src\stm32f2xx_rcc.o
RCC_AHB2PeriphResetCmd                            BSP\STM32F2xx\src\stm32f2xx_rcc.o
                                                  BSP\STM32F2xx\src\stm32f2xx_cryp.o
                                                  BSP\STM32F2xx\src\stm32f2xx_hash.o
                                                  BSP\STM32F2xx\src\stm32f2xx_rng.o
RCC_AHB3PeriphClockCmd                            BSP\STM32F2xx\src\stm32f2xx_rcc.o
                                                  BSP\bsp.o
                                                  BSP\bsp_lcd.o
RCC_AHB3PeriphClockLPModeCmd                      BSP\STM32F2xx\src\stm32f2xx_rcc.o
RCC_AHB3PeriphResetCmd                            BSP\STM32F2xx\src\stm32f2xx_rcc.o
RCC_APB1PeriphClockCmd                            BSP\STM32F2xx\src\stm32f2xx_rcc.o
                                                  BSP\bsp_ioe.o
                                                  BSP\bsp_ser.o
RCC_APB1PeriphClockLPModeCmd                      BSP\STM32F2xx\src\stm32f2xx_rcc.o
RCC_APB1PeriphResetCmd                            BSP\STM32F2xx\src\stm32f2xx_rcc.o
                                                  BSP\STM32F2xx\src\stm32f2xx_can.o
                                                  BSP\STM32F2xx\src\stm32f2xx_dac.o
                                                  BSP\STM32F2xx\src\stm32f2xx_i2c.o
                                                  BSP\STM32F2xx\src\stm32f2xx_pwr.o
                                                  BSP\STM32F2xx\src\stm32f2xx_spi.o
                                                  BSP\STM32F2xx\src\stm32f2xx_tim.o
                                                  BSP\STM32F2xx\src\stm32f2xx_usart.o
                                                  BSP\STM32F2xx\src\stm32f2xx_wwdg.o
                                                  BSP\bsp_ioe.o
RCC_APB2PeriphClockCmd                            BSP\STM32F2xx\src\stm32f2xx_rcc.o
                                                  BSP\bsp_ioe.o
RCC_APB2PeriphClockLPModeCmd                      BSP\STM32F2xx\src\stm32f2xx_rcc.o
RCC_APB2PeriphResetCmd                            BSP\STM32F2xx\src\stm32f2xx_rcc.o
                                                  BSP\STM32F2xx\src\stm32f2xx_adc.o
                                                  BSP\STM32F2xx\src\stm32f2xx_sdio.o
                                                  BSP\STM32F2xx\src\stm32f2xx_spi.o
                                                  BSP\STM32F2xx\src\stm32f2xx_syscfg.o
                                                  BSP\STM32F2xx\src\stm32f2xx_tim.o
                                                  BSP\STM32F2xx\src\stm32f2xx_usart.o
RCC_AdjustHSICalibrationValue                     BSP\STM32F2xx\src\stm32f2xx_rcc.o
RCC_BackupResetCmd                                BSP\STM32F2xx\src\stm32f2xx_rcc.o
RCC_ClearFlag                                     BSP\STM32F2xx\src\stm32f2xx_rcc.o
RCC_ClearITPendingBit                             BSP\STM32F2xx\src\stm32f2xx_rcc.o
RCC_ClockSecuritySystemCmd                        BSP\STM32F2xx\src\stm32f2xx_rcc.o
RCC_DeInit                                        BSP\STM32F2xx\src\stm32f2xx_rcc.o
RCC_GetClocksFreq                                 BSP\STM32F2xx\src\stm32f2xx_rcc.o
                                                  BSP\STM32F2xx\src\stm32f2xx_i2c.o
                                                  BSP\STM32F2xx\src\stm32f2xx_usart.o
                                                  BSP\bsp.o
RCC_GetFlagStatus                                 BSP\STM32F2xx\src\stm32f2xx_rcc.o
RCC_GetITStatus                                   BSP\STM32F2xx\src\stm32f2xx_rcc.o
RCC_GetSYSCLKSource                               BSP\STM32F2xx\src\stm32f2xx_rcc.o
RCC_HCLKConfig                                    BSP\STM32F2xx\src\stm32f2xx_rcc.o
RCC_HSEConfig                                     BSP\STM32F2xx\src\stm32f2xx_rcc.o
RCC_HSICmd                                        BSP\STM32F2xx\src\stm32f2xx_rcc.o
RCC_I2SCLKConfig                                  BSP\STM32F2xx\src\stm32f2xx_rcc.o
RCC_ITConfig                                      BSP\STM32F2xx\src\stm32f2xx_rcc.o
RCC_LSEConfig                                     BSP\STM32F2xx\src\stm32f2xx_rcc.o
RCC_LSICmd                                        BSP\STM32F2xx\src\stm32f2xx_rcc.o
RCC_MCO1Config                                    BSP\STM32F2xx\src\stm32f2xx_rcc.o
RCC_MCO2Config                                    BSP\STM32F2xx\src\stm32f2xx_rcc.o
RCC_PCLK1Config                                   BSP\STM32F2xx\src\stm32f2xx_rcc.o
RCC_PCLK2Config                                   BSP\STM32F2xx\src\stm32f2xx_rcc.o
RCC_PLLCmd                                        BSP\STM32F2xx\src\stm32f2xx_rcc.o
RCC_PLLConfig                                     BSP\STM32F2xx\src\stm32f2xx_rcc.o
RCC_PLLI2SCmd                                     BSP\STM32F2xx\src\stm32f2xx_rcc.o
RCC_PLLI2SConfig                                  BSP\STM32F2xx\src\stm32f2xx_rcc.o
RCC_RTCCLKCmd                                     BSP\STM32F2xx\src\stm32f2xx_rcc.o
RCC_RTCCLKConfig                                  BSP\STM32F2xx\src\stm32f2xx_rcc.o
RCC_SYSCLKConfig                                  BSP\STM32F2xx\src\stm32f2xx_rcc.o
RCC_WaitForHSEStartUp                             BSP\STM32F2xx\src\stm32f2xx_rcc.o
RNG_ClearFlag                                     BSP\STM32F2xx\src\stm32f2xx_rng.o
RNG_ClearITPendingBit                             BSP\STM32F2xx\src\stm32f2xx_rng.o
RNG_Cmd                                           BSP\STM32F2xx\src\stm32f2xx_rng.o
RNG_DeInit                                        BSP\STM32F2xx\src\stm32f2xx_rng.o
RNG_GetFlagStatus                                 BSP\STM32F2xx\src\stm32f2xx_rng.o
RNG_GetITStatus                                   BSP\STM32F2xx\src\stm32f2xx_rng.o
RNG_GetRandomNumber                               BSP\STM32F2xx\src\stm32f2xx_rng.o
RNG_ITConfig                                      BSP\STM32F2xx\src\stm32f2xx_rng.o
RTC_AlarmCmd                                      BSP\STM32F2xx\src\stm32f2xx_rtc.o
RTC_AlarmStructInit                               BSP\STM32F2xx\src\stm32f2xx_rtc.o
RTC_CalibOutputCmd                                BSP\STM32F2xx\src\stm32f2xx_rtc.o
RTC_ClearFlag                                     BSP\STM32F2xx\src\stm32f2xx_rtc.o
RTC_ClearITPendingBit                             BSP\STM32F2xx\src\stm32f2xx_rtc.o
RTC_CoarseCalibCmd                                BSP\STM32F2xx\src\stm32f2xx_rtc.o
RTC_CoarseCalibConfig                             BSP\STM32F2xx\src\stm32f2xx_rtc.o
RTC_DateStructInit                                BSP\STM32F2xx\src\stm32f2xx_rtc.o
RTC_DayLightSavingConfig                          BSP\STM32F2xx\src\stm32f2xx_rtc.o
RTC_DeInit                                        BSP\STM32F2xx\src\stm32f2xx_rtc.o
RTC_EnterInitMode                                 BSP\STM32F2xx\src\stm32f2xx_rtc.o
RTC_ExitInitMode                                  BSP\STM32F2xx\src\stm32f2xx_rtc.o
RTC_GetAlarm                                      BSP\STM32F2xx\src\stm32f2xx_rtc.o
RTC_GetDate                                       BSP\STM32F2xx\src\stm32f2xx_rtc.o
RTC_GetFlagStatus                                 BSP\STM32F2xx\src\stm32f2xx_rtc.o
RTC_GetITStatus                                   BSP\STM32F2xx\src\stm32f2xx_rtc.o
RTC_GetStoreOperation                             BSP\STM32F2xx\src\stm32f2xx_rtc.o
RTC_GetTime                                       BSP\STM32F2xx\src\stm32f2xx_rtc.o
RTC_GetTimeStamp                                  BSP\STM32F2xx\src\stm32f2xx_rtc.o
RTC_GetWakeUpCounter                              BSP\STM32F2xx\src\stm32f2xx_rtc.o
RTC_ITConfig                                      BSP\STM32F2xx\src\stm32f2xx_rtc.o
RTC_Init                                          BSP\STM32F2xx\src\stm32f2xx_rtc.o
RTC_OutputConfig                                  BSP\STM32F2xx\src\stm32f2xx_rtc.o
RTC_OutputTypeConfig                              BSP\STM32F2xx\src\stm32f2xx_rtc.o
RTC_ReadBackupRegister                            BSP\STM32F2xx\src\stm32f2xx_rtc.o
RTC_RefClockCmd                                   BSP\STM32F2xx\src\stm32f2xx_rtc.o
RTC_SetAlarm                                      BSP\STM32F2xx\src\stm32f2xx_rtc.o
RTC_SetDate                                       BSP\STM32F2xx\src\stm32f2xx_rtc.o
RTC_SetTime                                       BSP\STM32F2xx\src\stm32f2xx_rtc.o
RTC_SetWakeUpCounter                              BSP\STM32F2xx\src\stm32f2xx_rtc.o
RTC_StructInit                                    BSP\STM32F2xx\src\stm32f2xx_rtc.o
RTC_TamperCmd                                     BSP\STM32F2xx\src\stm32f2xx_rtc.o
RTC_TamperPinSelection                            BSP\STM32F2xx\src\stm32f2xx_rtc.o
RTC_TamperTriggerConfig                           BSP\STM32F2xx\src\stm32f2xx_rtc.o
RTC_TimeStampCmd                                  BSP\STM32F2xx\src\stm32f2xx_rtc.o
RTC_TimeStampPinSelection                         BSP\STM32F2xx\src\stm32f2xx_rtc.o
RTC_TimeStructInit                                BSP\STM32F2xx\src\stm32f2xx_rtc.o
RTC_WaitForSynchro                                BSP\STM32F2xx\src\stm32f2xx_rtc.o
RTC_WakeUpClockConfig                             BSP\STM32F2xx\src\stm32f2xx_rtc.o
RTC_WakeUpCmd                                     BSP\STM32F2xx\src\stm32f2xx_rtc.o
RTC_WriteBackupRegister                           BSP\STM32F2xx\src\stm32f2xx_rtc.o
RTC_WriteProtectionCmd                            BSP\STM32F2xx\src\stm32f2xx_rtc.o
Reset_Handler                                     BSP\cstartup.o
SDIO_CEATAITCmd                                   BSP\STM32F2xx\src\stm32f2xx_sdio.o
SDIO_ClearFlag                                    BSP\STM32F2xx\src\stm32f2xx_sdio.o
SDIO_ClearITPendingBit                            BSP\STM32F2xx\src\stm32f2xx_sdio.o
SDIO_ClockCmd                                     BSP\STM32F2xx\src\stm32f2xx_sdio.o
SDIO_CmdStructInit                                BSP\STM32F2xx\src\stm32f2xx_sdio.o
SDIO_CommandCompletionCmd                         BSP\STM32F2xx\src\stm32f2xx_sdio.o
SDIO_DMACmd                                       BSP\STM32F2xx\src\stm32f2xx_sdio.o
SDIO_DataConfig                                   BSP\STM32F2xx\src\stm32f2xx_sdio.o
SDIO_DataStructInit                               BSP\STM32F2xx\src\stm32f2xx_sdio.o
SDIO_DeInit                                       BSP\STM32F2xx\src\stm32f2xx_sdio.o
SDIO_GetCommandResponse                           BSP\STM32F2xx\src\stm32f2xx_sdio.o
SDIO_GetDataCounter                               BSP\STM32F2xx\src\stm32f2xx_sdio.o
SDIO_GetFIFOCount                                 BSP\STM32F2xx\src\stm32f2xx_sdio.o
SDIO_GetFlagStatus                                BSP\STM32F2xx\src\stm32f2xx_sdio.o
SDIO_GetITStatus                                  BSP\STM32F2xx\src\stm32f2xx_sdio.o
SDIO_GetPowerState                                BSP\STM32F2xx\src\stm32f2xx_sdio.o
SDIO_GetResponse                                  BSP\STM32F2xx\src\stm32f2xx_sdio.o
SDIO_ITConfig                                     BSP\STM32F2xx\src\stm32f2xx_sdio.o
SDIO_Init                                         BSP\STM32F2xx\src\stm32f2xx_sdio.o
SDIO_ReadData                                     BSP\STM32F2xx\src\stm32f2xx_sdio.o
SDIO_SendCEATACmd                                 BSP\STM32F2xx\src\stm32f2xx_sdio.o
SDIO_SendCommand                                  BSP\STM32F2xx\src\stm32f2xx_sdio.o
SDIO_SendSDIOSuspendCmd                           BSP\STM32F2xx\src\stm32f2xx_sdio.o
SDIO_SetPowerState                                BSP\STM32F2xx\src\stm32f2xx_sdio.o
SDIO_SetSDIOOperation                             BSP\STM32F2xx\src\stm32f2xx_sdio.o
SDIO_SetSDIOReadWaitMode                          BSP\STM32F2xx\src\stm32f2xx_sdio.o
SDIO_StartSDIOReadWait                            BSP\STM32F2xx\src\stm32f2xx_sdio.o
SDIO_StopSDIOReadWait                             BSP\STM32F2xx\src\stm32f2xx_sdio.o
SDIO_StructInit                                   BSP\STM32F2xx\src\stm32f2xx_sdio.o
SDIO_WriteData                                    BSP\STM32F2xx\src\stm32f2xx_sdio.o
SPI_BiDirectionalLineConfig                       BSP\STM32F2xx\src\stm32f2xx_spi.o
SPI_CalculateCRC                                  BSP\STM32F2xx\src\stm32f2xx_spi.o
SPI_Cmd                                           BSP\STM32F2xx\src\stm32f2xx_spi.o
SPI_DataSizeConfig                                BSP\STM32F2xx\src\stm32f2xx_spi.o
SPI_GetCRC                                        BSP\STM32F2xx\src\stm32f2xx_spi.o
SPI_GetCRCPolynomial                              BSP\STM32F2xx\src\stm32f2xx_spi.o
SPI_I2S_ClearFlag                                 BSP\STM32F2xx\src\stm32f2xx_spi.o
SPI_I2S_ClearITPendingBit                         BSP\STM32F2xx\src\stm32f2xx_spi.o
SPI_I2S_DMACmd                                    BSP\STM32F2xx\src\stm32f2xx_spi.o
SPI_I2S_DeInit                                    BSP\STM32F2xx\src\stm32f2xx_spi.o
SPI_I2S_GetFlagStatus                             BSP\STM32F2xx\src\stm32f2xx_spi.o
SPI_I2S_GetITStatus                               BSP\STM32F2xx\src\stm32f2xx_spi.o
SPI_I2S_ITConfig                                  BSP\STM32F2xx\src\stm32f2xx_spi.o
SPI_I2S_ReceiveData                               BSP\STM32F2xx\src\stm32f2xx_spi.o
SPI_I2S_SendData                                  BSP\STM32F2xx\src\stm32f2xx_spi.o
SPI_Init                                          BSP\STM32F2xx\src\stm32f2xx_spi.o
SPI_NSSInternalSoftwareConfig                     BSP\STM32F2xx\src\stm32f2xx_spi.o
SPI_SSOutputCmd                                   BSP\STM32F2xx\src\stm32f2xx_spi.o
SPI_StructInit                                    BSP\STM32F2xx\src\stm32f2xx_spi.o
SPI_TIModeCmd                                     BSP\STM32F2xx\src\stm32f2xx_spi.o
SPI_TransmitCRC                                   BSP\STM32F2xx\src\stm32f2xx_spi.o
SYSCFG_CompensationCellCmd                        BSP\STM32F2xx\src\stm32f2xx_syscfg.o
SYSCFG_DeInit                                     BSP\STM32F2xx\src\stm32f2xx_syscfg.o
SYSCFG_ETH_MediaInterfaceConfig                   BSP\STM32F2xx\src\stm32f2xx_syscfg.o
SYSCFG_EXTILineConfig                             BSP\STM32F2xx\src\stm32f2xx_syscfg.o
                                                  BSP\bsp_ioe.o
SYSCFG_GetCompensationCellStatus                  BSP\STM32F2xx\src\stm32f2xx_syscfg.o
SYSCFG_MemoryRemapConfig                          BSP\STM32F2xx\src\stm32f2xx_syscfg.o
Str_Cat                                           uC-LIB\lib_str.o
Str_Cat_N                                         uC-LIB\lib_str.o
Str_Char                                          uC-LIB\lib_str.o
Str_Char_Last                                     uC-LIB\lib_str.o
Str_Char_Last_N                                   uC-LIB\lib_str.o
Str_Char_N                                        uC-LIB\lib_str.o
Str_Char_Replace                                  uC-LIB\lib_str.o
Str_Char_Replace_N                                uC-LIB\lib_str.o
Str_Cmp                                           uC-LIB\lib_str.o
Str_CmpIgnoreCase                                 uC-LIB\lib_str.o
Str_CmpIgnoreCase_N                               uC-LIB\lib_str.o
Str_Cmp_N                                         uC-LIB\lib_str.o
Str_Copy                                          uC-LIB\lib_str.o
Str_Copy_N                                        uC-LIB\lib_str.o
                                                  uC-CPU\cpu_core.o
Str_FmtNbr_Int32S                                 uC-LIB\lib_str.o
Str_FmtNbr_Int32U                                 uC-LIB\lib_str.o
Str_Len                                           uC-LIB\lib_str.o
Str_Len_N                                         uC-LIB\lib_str.o
                                                  uC-CPU\cpu_core.o
Str_ParseNbr_Int32S                               uC-LIB\lib_str.o
Str_ParseNbr_Int32U                               uC-LIB\lib_str.o
Str_Str                                           uC-LIB\lib_str.o
Str_Str_N                                         uC-LIB\lib_str.o
SysTick_CLKSourceConfig                           BSP\STM32F2xx\src\misc.o
SystemCoreClock                                   BSP\CMSIS\Device Support\system_stm32f2xx.o
SystemCoreClockUpdate                             BSP\CMSIS\Device Support\system_stm32f2xx.o
SystemInit                                        BSP\CMSIS\Device Support\system_stm32f2xx.o
                                                  BSP\cstartup.o
TIM_ARRPreloadConfig                              BSP\STM32F2xx\src\stm32f2xx_tim.o
TIM_BDTRConfig                                    BSP\STM32F2xx\src\stm32f2xx_tim.o
TIM_BDTRStructInit                                BSP\STM32F2xx\src\stm32f2xx_tim.o
TIM_CCPreloadControl                              BSP\STM32F2xx\src\stm32f2xx_tim.o
TIM_CCxCmd                                        BSP\STM32F2xx\src\stm32f2xx_tim.o
TIM_CCxNCmd                                       BSP\STM32F2xx\src\stm32f2xx_tim.o
TIM_ClearFlag                                     BSP\STM32F2xx\src\stm32f2xx_tim.o
TIM_ClearITPendingBit                             BSP\STM32F2xx\src\stm32f2xx_tim.o
TIM_ClearOC1Ref                                   BSP\STM32F2xx\src\stm32f2xx_tim.o
TIM_ClearOC2Ref                                   BSP\STM32F2xx\src\stm32f2xx_tim.o
TIM_ClearOC3Ref                                   BSP\STM32F2xx\src\stm32f2xx_tim.o
TIM_ClearOC4Ref                                   BSP\STM32F2xx\src\stm32f2xx_tim.o
TIM_Cmd                                           BSP\STM32F2xx\src\stm32f2xx_tim.o
TIM_CounterModeConfig                             BSP\STM32F2xx\src\stm32f2xx_tim.o
TIM_CtrlPWMOutputs                                BSP\STM32F2xx\src\stm32f2xx_tim.o
TIM_DMACmd                                        BSP\STM32F2xx\src\stm32f2xx_tim.o
TIM_DMAConfig                                     BSP\STM32F2xx\src\stm32f2xx_tim.o
TIM_DeInit                                        BSP\STM32F2xx\src\stm32f2xx_tim.o
TIM_ETRClockMode1Config                           BSP\STM32F2xx\src\stm32f2xx_tim.o
TIM_ETRClockMode2Config                           BSP\STM32F2xx\src\stm32f2xx_tim.o
TIM_ETRConfig                                     BSP\STM32F2xx\src\stm32f2xx_tim.o
TIM_EncoderInterfaceConfig                        BSP\STM32F2xx\src\stm32f2xx_tim.o
TIM_ForcedOC1Config                               BSP\STM32F2xx\src\stm32f2xx_tim.o
TIM_ForcedOC2Config                               BSP\STM32F2xx\src\stm32f2xx_tim.o
TIM_ForcedOC3Config                               BSP\STM32F2xx\src\stm32f2xx_tim.o
TIM_ForcedOC4Config                               BSP\STM32F2xx\src\stm32f2xx_tim.o
TIM_GenerateEvent                                 BSP\STM32F2xx\src\stm32f2xx_tim.o
TIM_GetCapture1                                   BSP\STM32F2xx\src\stm32f2xx_tim.o
TIM_GetCapture2                                   BSP\STM32F2xx\src\stm32f2xx_tim.o
TIM_GetCapture3                                   BSP\STM32F2xx\src\stm32f2xx_tim.o
TIM_GetCapture4                                   BSP\STM32F2xx\src\stm32f2xx_tim.o
TIM_GetCounter                                    BSP\STM32F2xx\src\stm32f2xx_tim.o
TIM_GetFlagStatus                                 BSP\STM32F2xx\src\stm32f2xx_tim.o
TIM_GetITStatus                                   BSP\STM32F2xx\src\stm32f2xx_tim.o
TIM_GetPrescaler                                  BSP\STM32F2xx\src\stm32f2xx_tim.o
TIM_ICInit                                        BSP\STM32F2xx\src\stm32f2xx_tim.o
TIM_ICStructInit                                  BSP\STM32F2xx\src\stm32f2xx_tim.o
TIM_ITConfig                                      BSP\STM32F2xx\src\stm32f2xx_tim.o
TIM_ITRxExternalClockConfig                       BSP\STM32F2xx\src\stm32f2xx_tim.o
TIM_InternalClockConfig                           BSP\STM32F2xx\src\stm32f2xx_tim.o
TIM_OC1FastConfig                                 BSP\STM32F2xx\src\stm32f2xx_tim.o
TIM_OC1Init                                       BSP\STM32F2xx\src\stm32f2xx_tim.o
TIM_OC1NPolarityConfig                            BSP\STM32F2xx\src\stm32f2xx_tim.o
TIM_OC1PolarityConfig                             BSP\STM32F2xx\src\stm32f2xx_tim.o
TIM_OC1PreloadConfig                              BSP\STM32F2xx\src\stm32f2xx_tim.o
TIM_OC2FastConfig                                 BSP\STM32F2xx\src\stm32f2xx_tim.o
TIM_OC2Init                                       BSP\STM32F2xx\src\stm32f2xx_tim.o
TIM_OC2NPolarityConfig                            BSP\STM32F2xx\src\stm32f2xx_tim.o
TIM_OC2PolarityConfig                             BSP\STM32F2xx\src\stm32f2xx_tim.o
TIM_OC2PreloadConfig                              BSP\STM32F2xx\src\stm32f2xx_tim.o
TIM_OC3FastConfig                                 BSP\STM32F2xx\src\stm32f2xx_tim.o
TIM_OC3Init                                       BSP\STM32F2xx\src\stm32f2xx_tim.o
TIM_OC3NPolarityConfig                            BSP\STM32F2xx\src\stm32f2xx_tim.o
TIM_OC3PolarityConfig                             BSP\STM32F2xx\src\stm32f2xx_tim.o
TIM_OC3PreloadConfig                              BSP\STM32F2xx\src\stm32f2xx_tim.o
TIM_OC4FastConfig                                 BSP\STM32F2xx\src\stm32f2xx_tim.o
TIM_OC4Init                                       BSP\STM32F2xx\src\stm32f2xx_tim.o
TIM_OC4PolarityConfig                             BSP\STM32F2xx\src\stm32f2xx_tim.o
TIM_OC4PreloadConfig                              BSP\STM32F2xx\src\stm32f2xx_tim.o
TIM_OCStructInit                                  BSP\STM32F2xx\src\stm32f2xx_tim.o
TIM_PWMIConfig                                    BSP\STM32F2xx\src\stm32f2xx_tim.o
TIM_PrescalerConfig                               BSP\STM32F2xx\src\stm32f2xx_tim.o
TIM_RemapConfig                                   BSP\STM32F2xx\src\stm32f2xx_tim.o
TIM_SelectCCDMA                                   BSP\STM32F2xx\src\stm32f2xx_tim.o
TIM_SelectCOM                                     BSP\STM32F2xx\src\stm32f2xx_tim.o
TIM_SelectHallSensor                              BSP\STM32F2xx\src\stm32f2xx_tim.o
TIM_SelectInputTrigger                            BSP\STM32F2xx\src\stm32f2xx_tim.o
TIM_SelectMasterSlaveMode                         BSP\STM32F2xx\src\stm32f2xx_tim.o
TIM_SelectOCxM                                    BSP\STM32F2xx\src\stm32f2xx_tim.o
TIM_SelectOnePulseMode                            BSP\STM32F2xx\src\stm32f2xx_tim.o
TIM_SelectOutputTrigger                           BSP\STM32F2xx\src\stm32f2xx_tim.o
TIM_SelectSlaveMode                               BSP\STM32F2xx\src\stm32f2xx_tim.o
TIM_SetAutoreload                                 BSP\STM32F2xx\src\stm32f2xx_tim.o
TIM_SetClockDivision                              BSP\STM32F2xx\src\stm32f2xx_tim.o
TIM_SetCompare1                                   BSP\STM32F2xx\src\stm32f2xx_tim.o
TIM_SetCompare2                                   BSP\STM32F2xx\src\stm32f2xx_tim.o
TIM_SetCompare3                                   BSP\STM32F2xx\src\stm32f2xx_tim.o
TIM_SetCompare4                                   BSP\STM32F2xx\src\stm32f2xx_tim.o
TIM_SetCounter                                    BSP\STM32F2xx\src\stm32f2xx_tim.o
TIM_SetIC1Prescaler                               BSP\STM32F2xx\src\stm32f2xx_tim.o
TIM_SetIC2Prescaler                               BSP\STM32F2xx\src\stm32f2xx_tim.o
TIM_SetIC3Prescaler                               BSP\STM32F2xx\src\stm32f2xx_tim.o
TIM_SetIC4Prescaler                               BSP\STM32F2xx\src\stm32f2xx_tim.o
TIM_TIxExternalClockConfig                        BSP\STM32F2xx\src\stm32f2xx_tim.o
TIM_TimeBaseInit                                  BSP\STM32F2xx\src\stm32f2xx_tim.o
TIM_TimeBaseStructInit                            BSP\STM32F2xx\src\stm32f2xx_tim.o
TIM_UpdateDisableConfig                           BSP\STM32F2xx\src\stm32f2xx_tim.o
TIM_UpdateRequestConfig                           BSP\STM32F2xx\src\stm32f2xx_tim.o
TS_State                                          BSP\bsp_ioe.o
USART_ClearFlag                                   BSP\STM32F2xx\src\stm32f2xx_usart.o
USART_ClearITPendingBit                           BSP\STM32F2xx\src\stm32f2xx_usart.o
                                                  BSP\bsp_ser.o
USART_ClockInit                                   BSP\STM32F2xx\src\stm32f2xx_usart.o
                                                  BSP\bsp_ser.o
USART_ClockStructInit                             BSP\STM32F2xx\src\stm32f2xx_usart.o
USART_Cmd                                         BSP\STM32F2xx\src\stm32f2xx_usart.o
                                                  BSP\bsp_ser.o
USART_DMACmd                                      BSP\STM32F2xx\src\stm32f2xx_usart.o
USART_DeInit                                      BSP\STM32F2xx\src\stm32f2xx_usart.o
USART_GetFlagStatus                               BSP\STM32F2xx\src\stm32f2xx_usart.o
USART_GetITStatus                                 BSP\STM32F2xx\src\stm32f2xx_usart.o
USART_HalfDuplexCmd                               BSP\STM32F2xx\src\stm32f2xx_usart.o
USART_ITConfig                                    BSP\STM32F2xx\src\stm32f2xx_usart.o
                                                  BSP\bsp_ser.o
USART_Init                                        BSP\STM32F2xx\src\stm32f2xx_usart.o
                                                  BSP\bsp_ser.o
USART_IrDACmd                                     BSP\STM32F2xx\src\stm32f2xx_usart.o
USART_IrDAConfig                                  BSP\STM32F2xx\src\stm32f2xx_usart.o
USART_LINBreakDetectLengthConfig                  BSP\STM32F2xx\src\stm32f2xx_usart.o
USART_LINCmd                                      BSP\STM32F2xx\src\stm32f2xx_usart.o
USART_OneBitMethodCmd                             BSP\STM32F2xx\src\stm32f2xx_usart.o
USART_OverSampling8Cmd                            BSP\STM32F2xx\src\stm32f2xx_usart.o
USART_ReceiveData                                 BSP\STM32F2xx\src\stm32f2xx_usart.o
                                                  BSP\bsp_ser.o
USART_ReceiverWakeUpCmd                           BSP\STM32F2xx\src\stm32f2xx_usart.o
USART_SendBreak                                   BSP\STM32F2xx\src\stm32f2xx_usart.o
USART_SendData                                    BSP\STM32F2xx\src\stm32f2xx_usart.o
                                                  BSP\bsp_ser.o
USART_SetAddress                                  BSP\STM32F2xx\src\stm32f2xx_usart.o
USART_SetGuardTime                                BSP\STM32F2xx\src\stm32f2xx_usart.o
USART_SetPrescaler                                BSP\STM32F2xx\src\stm32f2xx_usart.o
USART_SmartCardCmd                                BSP\STM32F2xx\src\stm32f2xx_usart.o
USART_SmartCardNACKCmd                            BSP\STM32F2xx\src\stm32f2xx_usart.o
USART_StructInit                                  BSP\STM32F2xx\src\stm32f2xx_usart.o
USART_WakeUpConfig                                BSP\STM32F2xx\src\stm32f2xx_usart.o
WWDG_ClearFlag                                    BSP\STM32F2xx\src\stm32f2xx_wwdg.o
WWDG_DeInit                                       BSP\STM32F2xx\src\stm32f2xx_wwdg.o
WWDG_Enable                                       BSP\STM32F2xx\src\stm32f2xx_wwdg.o
WWDG_EnableIT                                     BSP\STM32F2xx\src\stm32f2xx_wwdg.o
WWDG_GetFlagStatus                                BSP\STM32F2xx\src\stm32f2xx_wwdg.o
WWDG_SetCounter                                   BSP\STM32F2xx\src\stm32f2xx_wwdg.o
WWDG_SetPrescaler                                 BSP\STM32F2xx\src\stm32f2xx_wwdg.o
WWDG_SetWindowValue                               BSP\STM32F2xx\src\stm32f2xx_wwdg.o
_Balloc                                           c:/program files (x86)/atollic/truestudio for arm pro 3.2.0/armtools/bin/../lib/gcc/arm-atollic-eabi/4.6.2/../../../../arm-atollic-eabi/lib/thumb/armv7-m\libc.a(lib_a-mprec.o)
                                                  c:/program files (x86)/atollic/truestudio for arm pro 3.2.0/armtools/bin/../lib/gcc/arm-atollic-eabi/4.6.2/../../../../arm-atollic-eabi/lib/thumb/armv7-m\libc.a(lib_a-dtoa.o)
_Bfree                                            c:/program files (x86)/atollic/truestudio for arm pro 3.2.0/armtools/bin/../lib/gcc/arm-atollic-eabi/4.6.2/../../../../arm-atollic-eabi/lib/thumb/armv7-m\libc.a(lib_a-mprec.o)
                                                  c:/program files (x86)/atollic/truestudio for arm pro 3.2.0/armtools/bin/../lib/gcc/arm-atollic-eabi/4.6.2/../../../../arm-atollic-eabi/lib/thumb/armv7-m\libc.a(lib_a-dtoa.o)
_Jv_RegisterClasses                               c:/program files (x86)/atollic/truestudio for arm pro 3.2.0/armtools/bin/../lib/gcc/arm-atollic-eabi/4.6.2/thumb/armv7-m/crtbegin.o
_PathLocale                                       c:/program files (x86)/atollic/truestudio for arm pro 3.2.0/armtools/bin/../lib/gcc/arm-atollic-eabi/4.6.2/../../../../arm-atollic-eabi/lib/thumb/armv7-m\libc.a(lib_a-locale.o)
_Unwind_Backtrace                                 c:/program files (x86)/atollic/truestudio for arm pro 3.2.0/armtools/bin/../lib/gcc/arm-atollic-eabi/4.6.2/thumb/armv7-m\libgcc.a(libunwind.o)
_Unwind_Complete                                  c:/program files (x86)/atollic/truestudio for arm pro 3.2.0/armtools/bin/../lib/gcc/arm-atollic-eabi/4.6.2/thumb/armv7-m\libgcc.a(unwind-arm.o)
_Unwind_DeleteException                           c:/program files (x86)/atollic/truestudio for arm pro 3.2.0/armtools/bin/../lib/gcc/arm-atollic-eabi/4.6.2/thumb/armv7-m\libgcc.a(unwind-arm.o)
_Unwind_ForcedUnwind                              c:/program files (x86)/atollic/truestudio for arm pro 3.2.0/armtools/bin/../lib/gcc/arm-atollic-eabi/4.6.2/thumb/armv7-m\libgcc.a(libunwind.o)
_Unwind_GetCFA                                    c:/program files (x86)/atollic/truestudio for arm pro 3.2.0/armtools/bin/../lib/gcc/arm-atollic-eabi/4.6.2/thumb/armv7-m\libgcc.a(unwind-arm.o)
_Unwind_GetDataRelBase                            c:/program files (x86)/atollic/truestudio for arm pro 3.2.0/armtools/bin/../lib/gcc/arm-atollic-eabi/4.6.2/thumb/armv7-m\libgcc.a(pr-support.o)
_Unwind_GetLanguageSpecificData                   c:/program files (x86)/atollic/truestudio for arm pro 3.2.0/armtools/bin/../lib/gcc/arm-atollic-eabi/4.6.2/thumb/armv7-m\libgcc.a(pr-support.o)
_Unwind_GetRegionStart                            c:/program files (x86)/atollic/truestudio for arm pro 3.2.0/armtools/bin/../lib/gcc/arm-atollic-eabi/4.6.2/thumb/armv7-m\libgcc.a(pr-support.o)
_Unwind_GetTextRelBase                            c:/program files (x86)/atollic/truestudio for arm pro 3.2.0/armtools/bin/../lib/gcc/arm-atollic-eabi/4.6.2/thumb/armv7-m\libgcc.a(pr-support.o)
_Unwind_RaiseException                            c:/program files (x86)/atollic/truestudio for arm pro 3.2.0/armtools/bin/../lib/gcc/arm-atollic-eabi/4.6.2/thumb/armv7-m\libgcc.a(libunwind.o)
_Unwind_Resume                                    c:/program files (x86)/atollic/truestudio for arm pro 3.2.0/armtools/bin/../lib/gcc/arm-atollic-eabi/4.6.2/thumb/armv7-m\libgcc.a(libunwind.o)
_Unwind_Resume_or_Rethrow                         c:/program files (x86)/atollic/truestudio for arm pro 3.2.0/armtools/bin/../lib/gcc/arm-atollic-eabi/4.6.2/thumb/armv7-m\libgcc.a(libunwind.o)
_Unwind_VRS_Get                                   c:/program files (x86)/atollic/truestudio for arm pro 3.2.0/armtools/bin/../lib/gcc/arm-atollic-eabi/4.6.2/thumb/armv7-m\libgcc.a(unwind-arm.o)
                                                  c:/program files (x86)/atollic/truestudio for arm pro 3.2.0/armtools/bin/../lib/gcc/arm-atollic-eabi/4.6.2/thumb/armv7-m\libgcc.a(pr-support.o)
_Unwind_VRS_Pop                                   c:/program files (x86)/atollic/truestudio for arm pro 3.2.0/armtools/bin/../lib/gcc/arm-atollic-eabi/4.6.2/thumb/armv7-m\libgcc.a(unwind-arm.o)
                                                  c:/program files (x86)/atollic/truestudio for arm pro 3.2.0/armtools/bin/../lib/gcc/arm-atollic-eabi/4.6.2/thumb/armv7-m\libgcc.a(pr-support.o)
_Unwind_VRS_Set                                   c:/program files (x86)/atollic/truestudio for arm pro 3.2.0/armtools/bin/../lib/gcc/arm-atollic-eabi/4.6.2/thumb/armv7-m\libgcc.a(unwind-arm.o)
                                                  c:/program files (x86)/atollic/truestudio for arm pro 3.2.0/armtools/bin/../lib/gcc/arm-atollic-eabi/4.6.2/thumb/armv7-m\libgcc.a(pr-support.o)
___Unwind_Backtrace                               c:/program files (x86)/atollic/truestudio for arm pro 3.2.0/armtools/bin/../lib/gcc/arm-atollic-eabi/4.6.2/thumb/armv7-m\libgcc.a(libunwind.o)
___Unwind_ForcedUnwind                            c:/program files (x86)/atollic/truestudio for arm pro 3.2.0/armtools/bin/../lib/gcc/arm-atollic-eabi/4.6.2/thumb/armv7-m\libgcc.a(libunwind.o)
___Unwind_RaiseException                          c:/program files (x86)/atollic/truestudio for arm pro 3.2.0/armtools/bin/../lib/gcc/arm-atollic-eabi/4.6.2/thumb/armv7-m\libgcc.a(libunwind.o)
___Unwind_Resume                                  c:/program files (x86)/atollic/truestudio for arm pro 3.2.0/armtools/bin/../lib/gcc/arm-atollic-eabi/4.6.2/thumb/armv7-m\libgcc.a(libunwind.o)
___Unwind_Resume_or_Rethrow                       c:/program files (x86)/atollic/truestudio for arm pro 3.2.0/armtools/bin/../lib/gcc/arm-atollic-eabi/4.6.2/thumb/armv7-m\libgcc.a(libunwind.o)
__adddf3                                          c:/program files (x86)/atollic/truestudio for arm pro 3.2.0/armtools/bin/../lib/gcc/arm-atollic-eabi/4.6.2/thumb/armv7-m\libgcc.a(_arm_addsubdf3.o)
__aeabi_cdcmpeq                                   c:/program files (x86)/atollic/truestudio for arm pro 3.2.0/armtools/bin/../lib/gcc/arm-atollic-eabi/4.6.2/thumb/armv7-m\libgcc.a(_arm_cmpdf2.o)
__aeabi_cdcmple                                   c:/program files (x86)/atollic/truestudio for arm pro 3.2.0/armtools/bin/../lib/gcc/arm-atollic-eabi/4.6.2/thumb/armv7-m\libgcc.a(_arm_cmpdf2.o)
__aeabi_cdrcmple                                  c:/program files (x86)/atollic/truestudio for arm pro 3.2.0/armtools/bin/../lib/gcc/arm-atollic-eabi/4.6.2/thumb/armv7-m\libgcc.a(_arm_cmpdf2.o)
__aeabi_d2iz                                      c:/program files (x86)/atollic/truestudio for arm pro 3.2.0/armtools/bin/../lib/gcc/arm-atollic-eabi/4.6.2/thumb/armv7-m\libgcc.a(_arm_fixdfsi.o)
                                                  c:/program files (x86)/atollic/truestudio for arm pro 3.2.0/armtools/bin/../lib/gcc/arm-atollic-eabi/4.6.2/../../../../arm-atollic-eabi/lib/thumb/armv7-m\libc.a(lib_a-dtoa.o)
__aeabi_dadd                                      c:/program files (x86)/atollic/truestudio for arm pro 3.2.0/armtools/bin/../lib/gcc/arm-atollic-eabi/4.6.2/thumb/armv7-m\libgcc.a(_arm_addsubdf3.o)
                                                  c:/program files (x86)/atollic/truestudio for arm pro 3.2.0/armtools/bin/../lib/gcc/arm-atollic-eabi/4.6.2/../../../../arm-atollic-eabi/lib/thumb/armv7-m\libc.a(lib_a-dtoa.o)
__aeabi_dcmpeq                                    c:/program files (x86)/atollic/truestudio for arm pro 3.2.0/armtools/bin/../lib/gcc/arm-atollic-eabi/4.6.2/thumb/armv7-m\libgcc.a(_arm_cmpdf2.o)
                                                  c:/program files (x86)/atollic/truestudio for arm pro 3.2.0/armtools/bin/../lib/gcc/arm-atollic-eabi/4.6.2/../../../../arm-atollic-eabi/lib/thumb/armv7-m\libc.a(lib_a-dtoa.o)
                                                  c:/program files (x86)/atollic/truestudio for arm pro 3.2.0/armtools/bin/../lib/gcc/arm-atollic-eabi/4.6.2/../../../../arm-atollic-eabi/lib/thumb/armv7-m\libc.a(lib_a-svfprintf.o)
__aeabi_dcmpge                                    c:/program files (x86)/atollic/truestudio for arm pro 3.2.0/armtools/bin/../lib/gcc/arm-atollic-eabi/4.6.2/thumb/armv7-m\libgcc.a(_arm_cmpdf2.o)
                                                  c:/program files (x86)/atollic/truestudio for arm pro 3.2.0/armtools/bin/../lib/gcc/arm-atollic-eabi/4.6.2/../../../../arm-atollic-eabi/lib/thumb/armv7-m\libc.a(lib_a-dtoa.o)
__aeabi_dcmpgt                                    c:/program files (x86)/atollic/truestudio for arm pro 3.2.0/armtools/bin/../lib/gcc/arm-atollic-eabi/4.6.2/thumb/armv7-m\libgcc.a(_arm_cmpdf2.o)
                                                  c:/program files (x86)/atollic/truestudio for arm pro 3.2.0/armtools/bin/../lib/gcc/arm-atollic-eabi/4.6.2/../../../../arm-atollic-eabi/lib/thumb/armv7-m\libc.a(lib_a-dtoa.o)
__aeabi_dcmple                                    c:/program files (x86)/atollic/truestudio for arm pro 3.2.0/armtools/bin/../lib/gcc/arm-atollic-eabi/4.6.2/thumb/armv7-m\libgcc.a(_arm_cmpdf2.o)
__aeabi_dcmplt                                    c:/program files (x86)/atollic/truestudio for arm pro 3.2.0/armtools/bin/../lib/gcc/arm-atollic-eabi/4.6.2/thumb/armv7-m\libgcc.a(_arm_cmpdf2.o)
                                                  c:/program files (x86)/atollic/truestudio for arm pro 3.2.0/armtools/bin/../lib/gcc/arm-atollic-eabi/4.6.2/../../../../arm-atollic-eabi/lib/thumb/armv7-m\libc.a(lib_a-dtoa.o)
                                                  c:/program files (x86)/atollic/truestudio for arm pro 3.2.0/armtools/bin/../lib/gcc/arm-atollic-eabi/4.6.2/../../../../arm-atollic-eabi/lib/thumb/armv7-m\libc.a(lib_a-svfprintf.o)
__aeabi_ddiv                                      c:/program files (x86)/atollic/truestudio for arm pro 3.2.0/armtools/bin/../lib/gcc/arm-atollic-eabi/4.6.2/thumb/armv7-m\libgcc.a(_arm_muldivdf3.o)
                                                  c:/program files (x86)/atollic/truestudio for arm pro 3.2.0/armtools/bin/../lib/gcc/arm-atollic-eabi/4.6.2/../../../../arm-atollic-eabi/lib/thumb/armv7-m\libc.a(lib_a-mprec.o)
                                                  c:/program files (x86)/atollic/truestudio for arm pro 3.2.0/armtools/bin/../lib/gcc/arm-atollic-eabi/4.6.2/../../../../arm-atollic-eabi/lib/thumb/armv7-m\libc.a(lib_a-dtoa.o)
__aeabi_dmul                                      c:/program files (x86)/atollic/truestudio for arm pro 3.2.0/armtools/bin/../lib/gcc/arm-atollic-eabi/4.6.2/thumb/armv7-m\libgcc.a(_arm_muldivdf3.o)
                                                  c:/program files (x86)/atollic/truestudio for arm pro 3.2.0/armtools/bin/../lib/gcc/arm-atollic-eabi/4.6.2/../../../../arm-atollic-eabi/lib/thumb/armv7-m\libc.a(lib_a-mprec.o)
                                                  c:/program files (x86)/atollic/truestudio for arm pro 3.2.0/armtools/bin/../lib/gcc/arm-atollic-eabi/4.6.2/../../../../arm-atollic-eabi/lib/thumb/armv7-m\libc.a(lib_a-dtoa.o)
__aeabi_drsub                                     c:/program files (x86)/atollic/truestudio for arm pro 3.2.0/armtools/bin/../lib/gcc/arm-atollic-eabi/4.6.2/thumb/armv7-m\libgcc.a(_arm_addsubdf3.o)
__aeabi_dsub                                      c:/program files (x86)/atollic/truestudio for arm pro 3.2.0/armtools/bin/../lib/gcc/arm-atollic-eabi/4.6.2/thumb/armv7-m\libgcc.a(_arm_addsubdf3.o)
                                                  c:/program files (x86)/atollic/truestudio for arm pro 3.2.0/armtools/bin/../lib/gcc/arm-atollic-eabi/4.6.2/../../../../arm-atollic-eabi/lib/thumb/armv7-m\libc.a(lib_a-dtoa.o)
__aeabi_f2d                                       c:/program files (x86)/atollic/truestudio for arm pro 3.2.0/armtools/bin/../lib/gcc/arm-atollic-eabi/4.6.2/thumb/armv7-m\libgcc.a(_arm_addsubdf3.o)
__aeabi_i2d                                       c:/program files (x86)/atollic/truestudio for arm pro 3.2.0/armtools/bin/../lib/gcc/arm-atollic-eabi/4.6.2/thumb/armv7-m\libgcc.a(_arm_addsubdf3.o)
                                                  c:/program files (x86)/atollic/truestudio for arm pro 3.2.0/armtools/bin/../lib/gcc/arm-atollic-eabi/4.6.2/../../../../arm-atollic-eabi/lib/thumb/armv7-m\libc.a(lib_a-dtoa.o)
__aeabi_idiv0                                     c:/program files (x86)/atollic/truestudio for arm pro 3.2.0/armtools/bin/../lib/gcc/arm-atollic-eabi/4.6.2/thumb/armv7-m\libgcc.a(_dvmd_tls.o)
__aeabi_l2d                                       c:/program files (x86)/atollic/truestudio for arm pro 3.2.0/armtools/bin/../lib/gcc/arm-atollic-eabi/4.6.2/thumb/armv7-m\libgcc.a(_arm_addsubdf3.o)
__aeabi_ldiv0                                     c:/program files (x86)/atollic/truestudio for arm pro 3.2.0/armtools/bin/../lib/gcc/arm-atollic-eabi/4.6.2/thumb/armv7-m\libgcc.a(_dvmd_tls.o)
                                                  c:/program files (x86)/atollic/truestudio for arm pro 3.2.0/armtools/bin/../lib/gcc/arm-atollic-eabi/4.6.2/thumb/armv7-m\libgcc.a(_aeabi_uldivmod.o)
__aeabi_ui2d                                      c:/program files (x86)/atollic/truestudio for arm pro 3.2.0/armtools/bin/../lib/gcc/arm-atollic-eabi/4.6.2/thumb/armv7-m\libgcc.a(_arm_addsubdf3.o)
                                                  c:/program files (x86)/atollic/truestudio for arm pro 3.2.0/armtools/bin/../lib/gcc/arm-atollic-eabi/4.6.2/../../../../arm-atollic-eabi/lib/thumb/armv7-m\libc.a(lib_a-dtoa.o)
__aeabi_ul2d                                      c:/program files (x86)/atollic/truestudio for arm pro 3.2.0/armtools/bin/../lib/gcc/arm-atollic-eabi/4.6.2/thumb/armv7-m\libgcc.a(_arm_addsubdf3.o)
__aeabi_uldivmod                                  c:/program files (x86)/atollic/truestudio for arm pro 3.2.0/armtools/bin/../lib/gcc/arm-atollic-eabi/4.6.2/thumb/armv7-m\libgcc.a(_aeabi_uldivmod.o)
                                                  c:/program files (x86)/atollic/truestudio for arm pro 3.2.0/armtools/bin/../lib/gcc/arm-atollic-eabi/4.6.2/../../../../arm-atollic-eabi/lib/thumb/armv7-m\libc.a(lib_a-svfiprintf.o)
                                                  c:/program files (x86)/atollic/truestudio for arm pro 3.2.0/armtools/bin/../lib/gcc/arm-atollic-eabi/4.6.2/../../../../arm-atollic-eabi/lib/thumb/armv7-m\libc.a(lib_a-svfprintf.o)
__aeabi_unwind_cpp_pr0                            c:/program files (x86)/atollic/truestudio for arm pro 3.2.0/armtools/bin/../lib/gcc/arm-atollic-eabi/4.6.2/thumb/armv7-m\libgcc.a(unwind-arm.o)
                                                  c:/program files (x86)/atollic/truestudio for arm pro 3.2.0/armtools/bin/../lib/gcc/arm-atollic-eabi/4.6.2/thumb/armv7-m\libgcc.a(_udivdi3.o)
                                                  c:/program files (x86)/atollic/truestudio for arm pro 3.2.0/armtools/bin/../lib/gcc/arm-atollic-eabi/4.6.2/thumb/armv7-m\libgcc.a(_divdi3.o)
                                                  c:/program files (x86)/atollic/truestudio for arm pro 3.2.0/armtools/bin/../lib/gcc/arm-atollic-eabi/4.6.2/thumb/armv7-m\libgcc.a(pr-support.o)
                                                  c:/program files (x86)/atollic/truestudio for arm pro 3.2.0/armtools/bin/../lib/gcc/arm-atollic-eabi/4.6.2/thumb/armv7-m\libgcc.a(bpabi.o)
__aeabi_unwind_cpp_pr1                            c:/program files (x86)/atollic/truestudio for arm pro 3.2.0/armtools/bin/../lib/gcc/arm-atollic-eabi/4.6.2/thumb/armv7-m\libgcc.a(unwind-arm.o)
                                                  c:/program files (x86)/atollic/truestudio for arm pro 3.2.0/armtools/bin/../lib/gcc/arm-atollic-eabi/4.6.2/thumb/armv7-m\libgcc.a(pr-support.o)
__aeabi_unwind_cpp_pr2                            c:/program files (x86)/atollic/truestudio for arm pro 3.2.0/armtools/bin/../lib/gcc/arm-atollic-eabi/4.6.2/thumb/armv7-m\libgcc.a(unwind-arm.o)
__any_on                                          c:/program files (x86)/atollic/truestudio for arm pro 3.2.0/armtools/bin/../lib/gcc/arm-atollic-eabi/4.6.2/../../../../arm-atollic-eabi/lib/thumb/armv7-m\libc.a(lib_a-mprec.o)
__b2d                                             c:/program files (x86)/atollic/truestudio for arm pro 3.2.0/armtools/bin/../lib/gcc/arm-atollic-eabi/4.6.2/../../../../arm-atollic-eabi/lib/thumb/armv7-m\libc.a(lib_a-mprec.o)
__cmpdf2                                          c:/program files (x86)/atollic/truestudio for arm pro 3.2.0/armtools/bin/../lib/gcc/arm-atollic-eabi/4.6.2/thumb/armv7-m\libgcc.a(_arm_cmpdf2.o)
__copybits                                        c:/program files (x86)/atollic/truestudio for arm pro 3.2.0/armtools/bin/../lib/gcc/arm-atollic-eabi/4.6.2/../../../../arm-atollic-eabi/lib/thumb/armv7-m\libc.a(lib_a-mprec.o)
__cxa_begin_cleanup                               c:/program files (x86)/atollic/truestudio for arm pro 3.2.0/armtools/bin/../lib/gcc/arm-atollic-eabi/4.6.2/thumb/armv7-m\libgcc.a(unwind-arm.o)
__cxa_call_unexpected                             c:/program files (x86)/atollic/truestudio for arm pro 3.2.0/armtools/bin/../lib/gcc/arm-atollic-eabi/4.6.2/thumb/armv7-m\libgcc.a(unwind-arm.o)
__cxa_type_match                                  c:/program files (x86)/atollic/truestudio for arm pro 3.2.0/armtools/bin/../lib/gcc/arm-atollic-eabi/4.6.2/thumb/armv7-m\libgcc.a(unwind-arm.o)
__d2b                                             c:/program files (x86)/atollic/truestudio for arm pro 3.2.0/armtools/bin/../lib/gcc/arm-atollic-eabi/4.6.2/../../../../arm-atollic-eabi/lib/thumb/armv7-m\libc.a(lib_a-mprec.o)
                                                  c:/program files (x86)/atollic/truestudio for arm pro 3.2.0/armtools/bin/../lib/gcc/arm-atollic-eabi/4.6.2/../../../../arm-atollic-eabi/lib/thumb/armv7-m\libc.a(lib_a-dtoa.o)
__deregister_frame_info                           c:/program files (x86)/atollic/truestudio for arm pro 3.2.0/armtools/bin/../lib/gcc/arm-atollic-eabi/4.6.2/thumb/armv7-m/crtbegin.o
__divdf3                                          c:/program files (x86)/atollic/truestudio for arm pro 3.2.0/armtools/bin/../lib/gcc/arm-atollic-eabi/4.6.2/thumb/armv7-m\libgcc.a(_arm_muldivdf3.o)
__divdi3                                          c:/program files (x86)/atollic/truestudio for arm pro 3.2.0/armtools/bin/../lib/gcc/arm-atollic-eabi/4.6.2/thumb/armv7-m\libgcc.a(_divdi3.o)
                                                  c:/program files (x86)/atollic/truestudio for arm pro 3.2.0/armtools/bin/../lib/gcc/arm-atollic-eabi/4.6.2/thumb/armv7-m\libgcc.a(bpabi.o)
__dso_handle                                      c:/program files (x86)/atollic/truestudio for arm pro 3.2.0/armtools/bin/../lib/gcc/arm-atollic-eabi/4.6.2/thumb/armv7-m/crtbegin.o
__env                                             c:/program files (x86)/atollic/truestudio for arm pro 3.2.0/armtools/bin/../lib/gcc/arm-atollic-eabi/4.6.2/../../../../arm-atollic-eabi/lib/thumb/armv7-m\libc.a(lib_a-syscalls.o)
__eqdf2                                           c:/program files (x86)/atollic/truestudio for arm pro 3.2.0/armtools/bin/../lib/gcc/arm-atollic-eabi/4.6.2/thumb/armv7-m\libgcc.a(_arm_cmpdf2.o)
__exidx_end                                       c:/program files (x86)/atollic/truestudio for arm pro 3.2.0/armtools/bin/../lib/gcc/arm-atollic-eabi/4.6.2/thumb/armv7-m\libgcc.a(unwind-arm.o)
__exidx_start                                     c:/program files (x86)/atollic/truestudio for arm pro 3.2.0/armtools/bin/../lib/gcc/arm-atollic-eabi/4.6.2/thumb/armv7-m\libgcc.a(unwind-arm.o)
__extendsfdf2                                     c:/program files (x86)/atollic/truestudio for arm pro 3.2.0/armtools/bin/../lib/gcc/arm-atollic-eabi/4.6.2/thumb/armv7-m\libgcc.a(_arm_addsubdf3.o)
__fixdfsi                                         c:/program files (x86)/atollic/truestudio for arm pro 3.2.0/armtools/bin/../lib/gcc/arm-atollic-eabi/4.6.2/thumb/armv7-m\libgcc.a(_arm_fixdfsi.o)
__floatdidf                                       c:/program files (x86)/atollic/truestudio for arm pro 3.2.0/armtools/bin/../lib/gcc/arm-atollic-eabi/4.6.2/thumb/armv7-m\libgcc.a(_arm_addsubdf3.o)
__floatsidf                                       c:/program files (x86)/atollic/truestudio for arm pro 3.2.0/armtools/bin/../lib/gcc/arm-atollic-eabi/4.6.2/thumb/armv7-m\libgcc.a(_arm_addsubdf3.o)
__floatundidf                                     c:/program files (x86)/atollic/truestudio for arm pro 3.2.0/armtools/bin/../lib/gcc/arm-atollic-eabi/4.6.2/thumb/armv7-m\libgcc.a(_arm_addsubdf3.o)
__floatunsidf                                     c:/program files (x86)/atollic/truestudio for arm pro 3.2.0/armtools/bin/../lib/gcc/arm-atollic-eabi/4.6.2/thumb/armv7-m\libgcc.a(_arm_addsubdf3.o)
__fpclassifyd                                     c:/program files (x86)/atollic/truestudio for arm pro 3.2.0/armtools/bin/../lib/gcc/arm-atollic-eabi/4.6.2/../../../../arm-atollic-eabi/lib/thumb/armv7-m\libc.a(lib_a-s_fpclassify.o)
                                                  c:/program files (x86)/atollic/truestudio for arm pro 3.2.0/armtools/bin/../lib/gcc/arm-atollic-eabi/4.6.2/../../../../arm-atollic-eabi/lib/thumb/armv7-m\libc.a(lib_a-svfprintf.o)
__gedf2                                           c:/program files (x86)/atollic/truestudio for arm pro 3.2.0/armtools/bin/../lib/gcc/arm-atollic-eabi/4.6.2/thumb/armv7-m\libgcc.a(_arm_cmpdf2.o)
__gnu_Unwind_Backtrace                            c:/program files (x86)/atollic/truestudio for arm pro 3.2.0/armtools/bin/../lib/gcc/arm-atollic-eabi/4.6.2/thumb/armv7-m\libgcc.a(unwind-arm.o)
                                                  c:/program files (x86)/atollic/truestudio for arm pro 3.2.0/armtools/bin/../lib/gcc/arm-atollic-eabi/4.6.2/thumb/armv7-m\libgcc.a(libunwind.o)
__gnu_Unwind_Find_exidx                           c:/program files (x86)/atollic/truestudio for arm pro 3.2.0/armtools/bin/../lib/gcc/arm-atollic-eabi/4.6.2/thumb/armv7-m\libgcc.a(unwind-arm.o)
__gnu_Unwind_ForcedUnwind                         c:/program files (x86)/atollic/truestudio for arm pro 3.2.0/armtools/bin/../lib/gcc/arm-atollic-eabi/4.6.2/thumb/armv7-m\libgcc.a(unwind-arm.o)
                                                  c:/program files (x86)/atollic/truestudio for arm pro 3.2.0/armtools/bin/../lib/gcc/arm-atollic-eabi/4.6.2/thumb/armv7-m\libgcc.a(libunwind.o)
__gnu_Unwind_RaiseException                       c:/program files (x86)/atollic/truestudio for arm pro 3.2.0/armtools/bin/../lib/gcc/arm-atollic-eabi/4.6.2/thumb/armv7-m\libgcc.a(unwind-arm.o)
                                                  c:/program files (x86)/atollic/truestudio for arm pro 3.2.0/armtools/bin/../lib/gcc/arm-atollic-eabi/4.6.2/thumb/armv7-m\libgcc.a(libunwind.o)
__gnu_Unwind_Restore_VFP                          c:/program files (x86)/atollic/truestudio for arm pro 3.2.0/armtools/bin/../lib/gcc/arm-atollic-eabi/4.6.2/thumb/armv7-m\libgcc.a(libunwind.o)
                                                  c:/program files (x86)/atollic/truestudio for arm pro 3.2.0/armtools/bin/../lib/gcc/arm-atollic-eabi/4.6.2/thumb/armv7-m\libgcc.a(unwind-arm.o)
__gnu_Unwind_Restore_VFP_D                        c:/program files (x86)/atollic/truestudio for arm pro 3.2.0/armtools/bin/../lib/gcc/arm-atollic-eabi/4.6.2/thumb/armv7-m\libgcc.a(libunwind.o)
                                                  c:/program files (x86)/atollic/truestudio for arm pro 3.2.0/armtools/bin/../lib/gcc/arm-atollic-eabi/4.6.2/thumb/armv7-m\libgcc.a(unwind-arm.o)
__gnu_Unwind_Restore_VFP_D_16_to_31               c:/program files (x86)/atollic/truestudio for arm pro 3.2.0/armtools/bin/../lib/gcc/arm-atollic-eabi/4.6.2/thumb/armv7-m\libgcc.a(libunwind.o)
                                                  c:/program files (x86)/atollic/truestudio for arm pro 3.2.0/armtools/bin/../lib/gcc/arm-atollic-eabi/4.6.2/thumb/armv7-m\libgcc.a(unwind-arm.o)
__gnu_Unwind_Restore_WMMXC                        c:/program files (x86)/atollic/truestudio for arm pro 3.2.0/armtools/bin/../lib/gcc/arm-atollic-eabi/4.6.2/thumb/armv7-m\libgcc.a(libunwind.o)
                                                  c:/program files (x86)/atollic/truestudio for arm pro 3.2.0/armtools/bin/../lib/gcc/arm-atollic-eabi/4.6.2/thumb/armv7-m\libgcc.a(unwind-arm.o)
__gnu_Unwind_Restore_WMMXD                        c:/program files (x86)/atollic/truestudio for arm pro 3.2.0/armtools/bin/../lib/gcc/arm-atollic-eabi/4.6.2/thumb/armv7-m\libgcc.a(libunwind.o)
                                                  c:/program files (x86)/atollic/truestudio for arm pro 3.2.0/armtools/bin/../lib/gcc/arm-atollic-eabi/4.6.2/thumb/armv7-m\libgcc.a(unwind-arm.o)
__gnu_Unwind_Resume                               c:/program files (x86)/atollic/truestudio for arm pro 3.2.0/armtools/bin/../lib/gcc/arm-atollic-eabi/4.6.2/thumb/armv7-m\libgcc.a(unwind-arm.o)
                                                  c:/program files (x86)/atollic/truestudio for arm pro 3.2.0/armtools/bin/../lib/gcc/arm-atollic-eabi/4.6.2/thumb/armv7-m\libgcc.a(libunwind.o)
__gnu_Unwind_Resume_or_Rethrow                    c:/program files (x86)/atollic/truestudio for arm pro 3.2.0/armtools/bin/../lib/gcc/arm-atollic-eabi/4.6.2/thumb/armv7-m\libgcc.a(unwind-arm.o)
                                                  c:/program files (x86)/atollic/truestudio for arm pro 3.2.0/armtools/bin/../lib/gcc/arm-atollic-eabi/4.6.2/thumb/armv7-m\libgcc.a(libunwind.o)
__gnu_Unwind_Save_VFP                             c:/program files (x86)/atollic/truestudio for arm pro 3.2.0/armtools/bin/../lib/gcc/arm-atollic-eabi/4.6.2/thumb/armv7-m\libgcc.a(libunwind.o)
                                                  c:/program files (x86)/atollic/truestudio for arm pro 3.2.0/armtools/bin/../lib/gcc/arm-atollic-eabi/4.6.2/thumb/armv7-m\libgcc.a(unwind-arm.o)
__gnu_Unwind_Save_VFP_D                           c:/program files (x86)/atollic/truestudio for arm pro 3.2.0/armtools/bin/../lib/gcc/arm-atollic-eabi/4.6.2/thumb/armv7-m\libgcc.a(libunwind.o)
                                                  c:/program files (x86)/atollic/truestudio for arm pro 3.2.0/armtools/bin/../lib/gcc/arm-atollic-eabi/4.6.2/thumb/armv7-m\libgcc.a(unwind-arm.o)
__gnu_Unwind_Save_VFP_D_16_to_31                  c:/program files (x86)/atollic/truestudio for arm pro 3.2.0/armtools/bin/../lib/gcc/arm-atollic-eabi/4.6.2/thumb/armv7-m\libgcc.a(libunwind.o)
                                                  c:/program files (x86)/atollic/truestudio for arm pro 3.2.0/armtools/bin/../lib/gcc/arm-atollic-eabi/4.6.2/thumb/armv7-m\libgcc.a(unwind-arm.o)
__gnu_Unwind_Save_WMMXC                           c:/program files (x86)/atollic/truestudio for arm pro 3.2.0/armtools/bin/../lib/gcc/arm-atollic-eabi/4.6.2/thumb/armv7-m\libgcc.a(libunwind.o)
                                                  c:/program files (x86)/atollic/truestudio for arm pro 3.2.0/armtools/bin/../lib/gcc/arm-atollic-eabi/4.6.2/thumb/armv7-m\libgcc.a(unwind-arm.o)
__gnu_Unwind_Save_WMMXD                           c:/program files (x86)/atollic/truestudio for arm pro 3.2.0/armtools/bin/../lib/gcc/arm-atollic-eabi/4.6.2/thumb/armv7-m\libgcc.a(libunwind.o)
                                                  c:/program files (x86)/atollic/truestudio for arm pro 3.2.0/armtools/bin/../lib/gcc/arm-atollic-eabi/4.6.2/thumb/armv7-m\libgcc.a(unwind-arm.o)
__gnu_ldivmod_helper                              c:/program files (x86)/atollic/truestudio for arm pro 3.2.0/armtools/bin/../lib/gcc/arm-atollic-eabi/4.6.2/thumb/armv7-m\libgcc.a(bpabi.o)
__gnu_uldivmod_helper                             c:/program files (x86)/atollic/truestudio for arm pro 3.2.0/armtools/bin/../lib/gcc/arm-atollic-eabi/4.6.2/thumb/armv7-m\libgcc.a(bpabi.o)
                                                  c:/program files (x86)/atollic/truestudio for arm pro 3.2.0/armtools/bin/../lib/gcc/arm-atollic-eabi/4.6.2/thumb/armv7-m\libgcc.a(_aeabi_uldivmod.o)
__gnu_unwind_execute                              c:/program files (x86)/atollic/truestudio for arm pro 3.2.0/armtools/bin/../lib/gcc/arm-atollic-eabi/4.6.2/thumb/armv7-m\libgcc.a(pr-support.o)
                                                  c:/program files (x86)/atollic/truestudio for arm pro 3.2.0/armtools/bin/../lib/gcc/arm-atollic-eabi/4.6.2/thumb/armv7-m\libgcc.a(unwind-arm.o)
__gnu_unwind_frame                                c:/program files (x86)/atollic/truestudio for arm pro 3.2.0/armtools/bin/../lib/gcc/arm-atollic-eabi/4.6.2/thumb/armv7-m\libgcc.a(pr-support.o)
__gtdf2                                           c:/program files (x86)/atollic/truestudio for arm pro 3.2.0/armtools/bin/../lib/gcc/arm-atollic-eabi/4.6.2/thumb/armv7-m\libgcc.a(_arm_cmpdf2.o)
__hi0bits                                         c:/program files (x86)/atollic/truestudio for arm pro 3.2.0/armtools/bin/../lib/gcc/arm-atollic-eabi/4.6.2/../../../../arm-atollic-eabi/lib/thumb/armv7-m\libc.a(lib_a-mprec.o)
                                                  c:/program files (x86)/atollic/truestudio for arm pro 3.2.0/armtools/bin/../lib/gcc/arm-atollic-eabi/4.6.2/../../../../arm-atollic-eabi/lib/thumb/armv7-m\libc.a(lib_a-dtoa.o)
__i2b                                             c:/program files (x86)/atollic/truestudio for arm pro 3.2.0/armtools/bin/../lib/gcc/arm-atollic-eabi/4.6.2/../../../../arm-atollic-eabi/lib/thumb/armv7-m\libc.a(lib_a-mprec.o)
                                                  c:/program files (x86)/atollic/truestudio for arm pro 3.2.0/armtools/bin/../lib/gcc/arm-atollic-eabi/4.6.2/../../../../arm-atollic-eabi/lib/thumb/armv7-m\libc.a(lib_a-dtoa.o)
__init_array_end                                  c:/program files (x86)/atollic/truestudio for arm pro 3.2.0/armtools/bin/../lib/gcc/arm-atollic-eabi/4.6.2/../../../../arm-atollic-eabi/lib/thumb/armv7-m\libc.a(lib_a-init.o)
__init_array_start                                c:/program files (x86)/atollic/truestudio for arm pro 3.2.0/armtools/bin/../lib/gcc/arm-atollic-eabi/4.6.2/../../../../arm-atollic-eabi/lib/thumb/armv7-m\libc.a(lib_a-init.o)
__ledf2                                           c:/program files (x86)/atollic/truestudio for arm pro 3.2.0/armtools/bin/../lib/gcc/arm-atollic-eabi/4.6.2/thumb/armv7-m\libgcc.a(_arm_cmpdf2.o)
__libc_init_array                                 c:/program files (x86)/atollic/truestudio for arm pro 3.2.0/armtools/bin/../lib/gcc/arm-atollic-eabi/4.6.2/../../../../arm-atollic-eabi/lib/thumb/armv7-m\libc.a(lib_a-init.o)
                                                  BSP\cstartup.o
__lo0bits                                         c:/program files (x86)/atollic/truestudio for arm pro 3.2.0/armtools/bin/../lib/gcc/arm-atollic-eabi/4.6.2/../../../../arm-atollic-eabi/lib/thumb/armv7-m\libc.a(lib_a-mprec.o)
__locale_charset                                  c:/program files (x86)/atollic/truestudio for arm pro 3.2.0/armtools/bin/../lib/gcc/arm-atollic-eabi/4.6.2/../../../../arm-atollic-eabi/lib/thumb/armv7-m\libc.a(lib_a-locale.o)
__locale_cjk_lang                                 c:/program files (x86)/atollic/truestudio for arm pro 3.2.0/armtools/bin/../lib/gcc/arm-atollic-eabi/4.6.2/../../../../arm-atollic-eabi/lib/thumb/armv7-m\libc.a(lib_a-locale.o)
__locale_mb_cur_max                               c:/program files (x86)/atollic/truestudio for arm pro 3.2.0/armtools/bin/../lib/gcc/arm-atollic-eabi/4.6.2/../../../../arm-atollic-eabi/lib/thumb/armv7-m\libc.a(lib_a-locale.o)
__locale_msgcharset                               c:/program files (x86)/atollic/truestudio for arm pro 3.2.0/armtools/bin/../lib/gcc/arm-atollic-eabi/4.6.2/../../../../arm-atollic-eabi/lib/thumb/armv7-m\libc.a(lib_a-locale.o)
__lshift                                          c:/program files (x86)/atollic/truestudio for arm pro 3.2.0/armtools/bin/../lib/gcc/arm-atollic-eabi/4.6.2/../../../../arm-atollic-eabi/lib/thumb/armv7-m\libc.a(lib_a-mprec.o)
                                                  c:/program files (x86)/atollic/truestudio for arm pro 3.2.0/armtools/bin/../lib/gcc/arm-atollic-eabi/4.6.2/../../../../arm-atollic-eabi/lib/thumb/armv7-m\libc.a(lib_a-dtoa.o)
__ltdf2                                           c:/program files (x86)/atollic/truestudio for arm pro 3.2.0/armtools/bin/../lib/gcc/arm-atollic-eabi/4.6.2/thumb/armv7-m\libgcc.a(_arm_cmpdf2.o)
__malloc_av_                                      c:/program files (x86)/atollic/truestudio for arm pro 3.2.0/armtools/bin/../lib/gcc/arm-atollic-eabi/4.6.2/../../../../arm-atollic-eabi/lib/thumb/armv7-m\libc.a(lib_a-mallocr.o)
                                                  c:/program files (x86)/atollic/truestudio for arm pro 3.2.0/armtools/bin/../lib/gcc/arm-atollic-eabi/4.6.2/../../../../arm-atollic-eabi/lib/thumb/armv7-m\libc.a(lib_a-reallocr.o)
                                                  c:/program files (x86)/atollic/truestudio for arm pro 3.2.0/armtools/bin/../lib/gcc/arm-atollic-eabi/4.6.2/../../../../arm-atollic-eabi/lib/thumb/armv7-m\libc.a(lib_a-freer.o)
__malloc_current_mallinfo                         c:/program files (x86)/atollic/truestudio for arm pro 3.2.0/armtools/bin/../lib/gcc/arm-atollic-eabi/4.6.2/../../../../arm-atollic-eabi/lib/thumb/armv7-m\libc.a(lib_a-mallocr.o)
                                                  c:/program files (x86)/atollic/truestudio for arm pro 3.2.0/armtools/bin/../lib/gcc/arm-atollic-eabi/4.6.2/../../../../arm-atollic-eabi/lib/thumb/armv7-m\libc.a(lib_a-freer.o)
__malloc_lock                                     c:/program files (x86)/atollic/truestudio for arm pro 3.2.0/armtools/bin/../lib/gcc/arm-atollic-eabi/4.6.2/../../../../arm-atollic-eabi/lib/thumb/armv7-m\libc.a(lib_a-mlock.o)
                                                  c:/program files (x86)/atollic/truestudio for arm pro 3.2.0/armtools/bin/../lib/gcc/arm-atollic-eabi/4.6.2/../../../../arm-atollic-eabi/lib/thumb/armv7-m\libc.a(lib_a-reallocr.o)
                                                  c:/program files (x86)/atollic/truestudio for arm pro 3.2.0/armtools/bin/../lib/gcc/arm-atollic-eabi/4.6.2/../../../../arm-atollic-eabi/lib/thumb/armv7-m\libc.a(lib_a-freer.o)
                                                  c:/program files (x86)/atollic/truestudio for arm pro 3.2.0/armtools/bin/../lib/gcc/arm-atollic-eabi/4.6.2/../../../../arm-atollic-eabi/lib/thumb/armv7-m\libc.a(lib_a-mallocr.o)
__malloc_max_sbrked_mem                           c:/program files (x86)/atollic/truestudio for arm pro 3.2.0/armtools/bin/../lib/gcc/arm-atollic-eabi/4.6.2/../../../../arm-atollic-eabi/lib/thumb/armv7-m\libc.a(lib_a-mallocr.o)
__malloc_max_total_mem                            c:/program files (x86)/atollic/truestudio for arm pro 3.2.0/armtools/bin/../lib/gcc/arm-atollic-eabi/4.6.2/../../../../arm-atollic-eabi/lib/thumb/armv7-m\libc.a(lib_a-mallocr.o)
__malloc_sbrk_base                                c:/program files (x86)/atollic/truestudio for arm pro 3.2.0/armtools/bin/../lib/gcc/arm-atollic-eabi/4.6.2/../../../../arm-atollic-eabi/lib/thumb/armv7-m\libc.a(lib_a-mallocr.o)
                                                  c:/program files (x86)/atollic/truestudio for arm pro 3.2.0/armtools/bin/../lib/gcc/arm-atollic-eabi/4.6.2/../../../../arm-atollic-eabi/lib/thumb/armv7-m\libc.a(lib_a-freer.o)
__malloc_top_pad                                  c:/program files (x86)/atollic/truestudio for arm pro 3.2.0/armtools/bin/../lib/gcc/arm-atollic-eabi/4.6.2/../../../../arm-atollic-eabi/lib/thumb/armv7-m\libc.a(lib_a-mallocr.o)
                                                  c:/program files (x86)/atollic/truestudio for arm pro 3.2.0/armtools/bin/../lib/gcc/arm-atollic-eabi/4.6.2/../../../../arm-atollic-eabi/lib/thumb/armv7-m\libc.a(lib_a-freer.o)
__malloc_trim_threshold                           c:/program files (x86)/atollic/truestudio for arm pro 3.2.0/armtools/bin/../lib/gcc/arm-atollic-eabi/4.6.2/../../../../arm-atollic-eabi/lib/thumb/armv7-m\libc.a(lib_a-mallocr.o)
                                                  c:/program files (x86)/atollic/truestudio for arm pro 3.2.0/armtools/bin/../lib/gcc/arm-atollic-eabi/4.6.2/../../../../arm-atollic-eabi/lib/thumb/armv7-m\libc.a(lib_a-freer.o)
__malloc_unlock                                   c:/program files (x86)/atollic/truestudio for arm pro 3.2.0/armtools/bin/../lib/gcc/arm-atollic-eabi/4.6.2/../../../../arm-atollic-eabi/lib/thumb/armv7-m\libc.a(lib_a-mlock.o)
                                                  c:/program files (x86)/atollic/truestudio for arm pro 3.2.0/armtools/bin/../lib/gcc/arm-atollic-eabi/4.6.2/../../../../arm-atollic-eabi/lib/thumb/armv7-m\libc.a(lib_a-reallocr.o)
                                                  c:/program files (x86)/atollic/truestudio for arm pro 3.2.0/armtools/bin/../lib/gcc/arm-atollic-eabi/4.6.2/../../../../arm-atollic-eabi/lib/thumb/armv7-m\libc.a(lib_a-freer.o)
                                                  c:/program files (x86)/atollic/truestudio for arm pro 3.2.0/armtools/bin/../lib/gcc/arm-atollic-eabi/4.6.2/../../../../arm-atollic-eabi/lib/thumb/armv7-m\libc.a(lib_a-mallocr.o)
__mb_cur_max                                      c:/program files (x86)/atollic/truestudio for arm pro 3.2.0/armtools/bin/../lib/gcc/arm-atollic-eabi/4.6.2/../../../../arm-atollic-eabi/lib/thumb/armv7-m\libc.a(lib_a-locale.o)
__mcmp                                            c:/program files (x86)/atollic/truestudio for arm pro 3.2.0/armtools/bin/../lib/gcc/arm-atollic-eabi/4.6.2/../../../../arm-atollic-eabi/lib/thumb/armv7-m\libc.a(lib_a-mprec.o)
                                                  c:/program files (x86)/atollic/truestudio for arm pro 3.2.0/armtools/bin/../lib/gcc/arm-atollic-eabi/4.6.2/../../../../arm-atollic-eabi/lib/thumb/armv7-m\libc.a(lib_a-dtoa.o)
__mdiff                                           c:/program files (x86)/atollic/truestudio for arm pro 3.2.0/armtools/bin/../lib/gcc/arm-atollic-eabi/4.6.2/../../../../arm-atollic-eabi/lib/thumb/armv7-m\libc.a(lib_a-mprec.o)
                                                  c:/program files (x86)/atollic/truestudio for arm pro 3.2.0/armtools/bin/../lib/gcc/arm-atollic-eabi/4.6.2/../../../../arm-atollic-eabi/lib/thumb/armv7-m\libc.a(lib_a-dtoa.o)
__mlocale_changed                                 c:/program files (x86)/atollic/truestudio for arm pro 3.2.0/armtools/bin/../lib/gcc/arm-atollic-eabi/4.6.2/../../../../arm-atollic-eabi/lib/thumb/armv7-m\libc.a(lib_a-locale.o)
__mprec_bigtens                                   c:/program files (x86)/atollic/truestudio for arm pro 3.2.0/armtools/bin/../lib/gcc/arm-atollic-eabi/4.6.2/../../../../arm-atollic-eabi/lib/thumb/armv7-m\libc.a(lib_a-mprec.o)
                                                  c:/program files (x86)/atollic/truestudio for arm pro 3.2.0/armtools/bin/../lib/gcc/arm-atollic-eabi/4.6.2/../../../../arm-atollic-eabi/lib/thumb/armv7-m\libc.a(lib_a-dtoa.o)
__mprec_tens                                      c:/program files (x86)/atollic/truestudio for arm pro 3.2.0/armtools/bin/../lib/gcc/arm-atollic-eabi/4.6.2/../../../../arm-atollic-eabi/lib/thumb/armv7-m\libc.a(lib_a-mprec.o)
                                                  c:/program files (x86)/atollic/truestudio for arm pro 3.2.0/armtools/bin/../lib/gcc/arm-atollic-eabi/4.6.2/../../../../arm-atollic-eabi/lib/thumb/armv7-m\libc.a(lib_a-dtoa.o)
__mprec_tinytens                                  c:/program files (x86)/atollic/truestudio for arm pro 3.2.0/armtools/bin/../lib/gcc/arm-atollic-eabi/4.6.2/../../../../arm-atollic-eabi/lib/thumb/armv7-m\libc.a(lib_a-mprec.o)
__muldf3                                          c:/program files (x86)/atollic/truestudio for arm pro 3.2.0/armtools/bin/../lib/gcc/arm-atollic-eabi/4.6.2/thumb/armv7-m\libgcc.a(_arm_muldivdf3.o)
__multadd                                         c:/program files (x86)/atollic/truestudio for arm pro 3.2.0/armtools/bin/../lib/gcc/arm-atollic-eabi/4.6.2/../../../../arm-atollic-eabi/lib/thumb/armv7-m\libc.a(lib_a-mprec.o)
                                                  c:/program files (x86)/atollic/truestudio for arm pro 3.2.0/armtools/bin/../lib/gcc/arm-atollic-eabi/4.6.2/../../../../arm-atollic-eabi/lib/thumb/armv7-m\libc.a(lib_a-dtoa.o)
__multiply                                        c:/program files (x86)/atollic/truestudio for arm pro 3.2.0/armtools/bin/../lib/gcc/arm-atollic-eabi/4.6.2/../../../../arm-atollic-eabi/lib/thumb/armv7-m\libc.a(lib_a-mprec.o)
                                                  c:/program files (x86)/atollic/truestudio for arm pro 3.2.0/armtools/bin/../lib/gcc/arm-atollic-eabi/4.6.2/../../../../arm-atollic-eabi/lib/thumb/armv7-m\libc.a(lib_a-dtoa.o)
__nedf2                                           c:/program files (x86)/atollic/truestudio for arm pro 3.2.0/armtools/bin/../lib/gcc/arm-atollic-eabi/4.6.2/thumb/armv7-m\libgcc.a(_arm_cmpdf2.o)
__nlocale_changed                                 c:/program files (x86)/atollic/truestudio for arm pro 3.2.0/armtools/bin/../lib/gcc/arm-atollic-eabi/4.6.2/../../../../arm-atollic-eabi/lib/thumb/armv7-m\libc.a(lib_a-locale.o)
__pow5mult                                        c:/program files (x86)/atollic/truestudio for arm pro 3.2.0/armtools/bin/../lib/gcc/arm-atollic-eabi/4.6.2/../../../../arm-atollic-eabi/lib/thumb/armv7-m\libc.a(lib_a-mprec.o)
                                                  c:/program files (x86)/atollic/truestudio for arm pro 3.2.0/armtools/bin/../lib/gcc/arm-atollic-eabi/4.6.2/../../../../arm-atollic-eabi/lib/thumb/armv7-m\libc.a(lib_a-dtoa.o)
__preinit_array_end                               c:/program files (x86)/atollic/truestudio for arm pro 3.2.0/armtools/bin/../lib/gcc/arm-atollic-eabi/4.6.2/../../../../arm-atollic-eabi/lib/thumb/armv7-m\libc.a(lib_a-init.o)
__preinit_array_start                             c:/program files (x86)/atollic/truestudio for arm pro 3.2.0/armtools/bin/../lib/gcc/arm-atollic-eabi/4.6.2/../../../../arm-atollic-eabi/lib/thumb/armv7-m\libc.a(lib_a-init.o)
__ratio                                           c:/program files (x86)/atollic/truestudio for arm pro 3.2.0/armtools/bin/../lib/gcc/arm-atollic-eabi/4.6.2/../../../../arm-atollic-eabi/lib/thumb/armv7-m\libc.a(lib_a-mprec.o)
__register_frame_info                             c:/program files (x86)/atollic/truestudio for arm pro 3.2.0/armtools/bin/../lib/gcc/arm-atollic-eabi/4.6.2/thumb/armv7-m/crtbegin.o
__restore_core_regs                               c:/program files (x86)/atollic/truestudio for arm pro 3.2.0/armtools/bin/../lib/gcc/arm-atollic-eabi/4.6.2/thumb/armv7-m\libgcc.a(libunwind.o)
__s2b                                             c:/program files (x86)/atollic/truestudio for arm pro 3.2.0/armtools/bin/../lib/gcc/arm-atollic-eabi/4.6.2/../../../../arm-atollic-eabi/lib/thumb/armv7-m\libc.a(lib_a-mprec.o)
__sf_fake_stderr                                  c:/program files (x86)/atollic/truestudio for arm pro 3.2.0/armtools/bin/../lib/gcc/arm-atollic-eabi/4.6.2/../../../../arm-atollic-eabi/lib/thumb/armv7-m\libc.a(lib_a-impure.o)
__sf_fake_stdin                                   c:/program files (x86)/atollic/truestudio for arm pro 3.2.0/armtools/bin/../lib/gcc/arm-atollic-eabi/4.6.2/../../../../arm-atollic-eabi/lib/thumb/armv7-m\libc.a(lib_a-impure.o)
__sf_fake_stdout                                  c:/program files (x86)/atollic/truestudio for arm pro 3.2.0/armtools/bin/../lib/gcc/arm-atollic-eabi/4.6.2/../../../../arm-atollic-eabi/lib/thumb/armv7-m\libc.a(lib_a-impure.o)
__sigtramp                                        c:/program files (x86)/atollic/truestudio for arm pro 3.2.0/armtools/bin/../lib/gcc/arm-atollic-eabi/4.6.2/../../../../arm-atollic-eabi/lib/thumb/armv7-m\libc.a(lib_a-signal.o)
__sigtramp_r                                      c:/program files (x86)/atollic/truestudio for arm pro 3.2.0/armtools/bin/../lib/gcc/arm-atollic-eabi/4.6.2/../../../../arm-atollic-eabi/lib/thumb/armv7-m\libc.a(lib_a-signal.o)
__ssprint_r                                       c:/program files (x86)/atollic/truestudio for arm pro 3.2.0/armtools/bin/../lib/gcc/arm-atollic-eabi/4.6.2/../../../../arm-atollic-eabi/lib/thumb/armv7-m\libc.a(lib_a-svfiprintf.o)
                                                  c:/program files (x86)/atollic/truestudio for arm pro 3.2.0/armtools/bin/../lib/gcc/arm-atollic-eabi/4.6.2/../../../../arm-atollic-eabi/lib/thumb/armv7-m\libc.a(lib_a-svfprintf.o)
__subdf3                                          c:/program files (x86)/atollic/truestudio for arm pro 3.2.0/armtools/bin/../lib/gcc/arm-atollic-eabi/4.6.2/thumb/armv7-m\libgcc.a(_arm_addsubdf3.o)
__udivdi3                                         c:/program files (x86)/atollic/truestudio for arm pro 3.2.0/armtools/bin/../lib/gcc/arm-atollic-eabi/4.6.2/thumb/armv7-m\libgcc.a(_udivdi3.o)
                                                  c:/program files (x86)/atollic/truestudio for arm pro 3.2.0/armtools/bin/../lib/gcc/arm-atollic-eabi/4.6.2/thumb/armv7-m\libgcc.a(bpabi.o)
__ulp                                             c:/program files (x86)/atollic/truestudio for arm pro 3.2.0/armtools/bin/../lib/gcc/arm-atollic-eabi/4.6.2/../../../../arm-atollic-eabi/lib/thumb/armv7-m\libc.a(lib_a-mprec.o)
_calloc_r                                         c:/program files (x86)/atollic/truestudio for arm pro 3.2.0/armtools/bin/../lib/gcc/arm-atollic-eabi/4.6.2/../../../../arm-atollic-eabi/lib/thumb/armv7-m\libc.a(lib_a-callocr.o)
                                                  c:/program files (x86)/atollic/truestudio for arm pro 3.2.0/armtools/bin/../lib/gcc/arm-atollic-eabi/4.6.2/../../../../arm-atollic-eabi/lib/thumb/armv7-m\libc.a(lib_a-mprec.o)
_close                                            c:/program files (x86)/atollic/truestudio for arm pro 3.2.0/armtools/bin/../lib/gcc/arm-atollic-eabi/4.6.2/../../../../arm-atollic-eabi/lib/thumb/armv7-m\libc.a(lib_a-syscalls.o)
_dtoa_r                                           c:/program files (x86)/atollic/truestudio for arm pro 3.2.0/armtools/bin/../lib/gcc/arm-atollic-eabi/4.6.2/../../../../arm-atollic-eabi/lib/thumb/armv7-m\libc.a(lib_a-dtoa.o)
                                                  c:/program files (x86)/atollic/truestudio for arm pro 3.2.0/armtools/bin/../lib/gcc/arm-atollic-eabi/4.6.2/../../../../arm-atollic-eabi/lib/thumb/armv7-m\libc.a(lib_a-svfprintf.o)
_ebss                                             BSP\cstartup.o
_edata                                            BSP\cstartup.o
_estack                                           BSP\cstartup.o
_execve                                           c:/program files (x86)/atollic/truestudio for arm pro 3.2.0/armtools/bin/../lib/gcc/arm-atollic-eabi/4.6.2/../../../../arm-atollic-eabi/lib/thumb/armv7-m\libc.a(lib_a-syscalls.o)
_exit                                             c:/program files (x86)/atollic/truestudio for arm pro 3.2.0/armtools/bin/../lib/gcc/arm-atollic-eabi/4.6.2/../../../../arm-atollic-eabi/lib/thumb/armv7-m\libc.a(lib_a-syscalls.o)
                                                  c:/program files (x86)/atollic/truestudio for arm pro 3.2.0/armtools/bin/../lib/gcc/arm-atollic-eabi/4.6.2/../../../../arm-atollic-eabi/lib/thumb/armv7-m\libc.a(lib_a-abort.o)
_fini                                             c:/program files (x86)/atollic/truestudio for arm pro 3.2.0/armtools/bin/../lib/gcc/arm-atollic-eabi/4.6.2/thumb/armv7-m/crti.o
_fork                                             c:/program files (x86)/atollic/truestudio for arm pro 3.2.0/armtools/bin/../lib/gcc/arm-atollic-eabi/4.6.2/../../../../arm-atollic-eabi/lib/thumb/armv7-m\libc.a(lib_a-syscalls.o)
_free_r                                           c:/program files (x86)/atollic/truestudio for arm pro 3.2.0/armtools/bin/../lib/gcc/arm-atollic-eabi/4.6.2/../../../../arm-atollic-eabi/lib/thumb/armv7-m\libc.a(lib_a-freer.o)
                                                  c:/program files (x86)/atollic/truestudio for arm pro 3.2.0/armtools/bin/../lib/gcc/arm-atollic-eabi/4.6.2/../../../../arm-atollic-eabi/lib/thumb/armv7-m\libc.a(lib_a-reent.o)
                                                  c:/program files (x86)/atollic/truestudio for arm pro 3.2.0/armtools/bin/../lib/gcc/arm-atollic-eabi/4.6.2/../../../../arm-atollic-eabi/lib/thumb/armv7-m\libc.a(lib_a-reallocr.o)
                                                  c:/program files (x86)/atollic/truestudio for arm pro 3.2.0/armtools/bin/../lib/gcc/arm-atollic-eabi/4.6.2/../../../../arm-atollic-eabi/lib/thumb/armv7-m\libc.a(lib_a-svfiprintf.o)
                                                  c:/program files (x86)/atollic/truestudio for arm pro 3.2.0/armtools/bin/../lib/gcc/arm-atollic-eabi/4.6.2/../../../../arm-atollic-eabi/lib/thumb/armv7-m\libc.a(lib_a-mallocr.o)
                                                  c:/program files (x86)/atollic/truestudio for arm pro 3.2.0/armtools/bin/../lib/gcc/arm-atollic-eabi/4.6.2/../../../../arm-atollic-eabi/lib/thumb/armv7-m\libc.a(lib_a-malloc.o)
_fstat                                            c:/program files (x86)/atollic/truestudio for arm pro 3.2.0/armtools/bin/../lib/gcc/arm-atollic-eabi/4.6.2/../../../../arm-atollic-eabi/lib/thumb/armv7-m\libc.a(lib_a-syscalls.o)
_getpid                                           c:/program files (x86)/atollic/truestudio for arm pro 3.2.0/armtools/bin/../lib/gcc/arm-atollic-eabi/4.6.2/../../../../arm-atollic-eabi/lib/thumb/armv7-m\libc.a(lib_a-syscalls.o)
                                                  c:/program files (x86)/atollic/truestudio for arm pro 3.2.0/armtools/bin/../lib/gcc/arm-atollic-eabi/4.6.2/../../../../arm-atollic-eabi/lib/thumb/armv7-m\libc.a(lib_a-signalr.o)
_getpid_r                                         c:/program files (x86)/atollic/truestudio for arm pro 3.2.0/armtools/bin/../lib/gcc/arm-atollic-eabi/4.6.2/../../../../arm-atollic-eabi/lib/thumb/armv7-m\libc.a(lib_a-signalr.o)
                                                  c:/program files (x86)/atollic/truestudio for arm pro 3.2.0/armtools/bin/../lib/gcc/arm-atollic-eabi/4.6.2/../../../../arm-atollic-eabi/lib/thumb/armv7-m\libc.a(lib_a-signal.o)
_global_impure_ptr                                c:/program files (x86)/atollic/truestudio for arm pro 3.2.0/armtools/bin/../lib/gcc/arm-atollic-eabi/4.6.2/../../../../arm-atollic-eabi/lib/thumb/armv7-m\libc.a(lib_a-impure.o)
_impure_ptr                                       c:/program files (x86)/atollic/truestudio for arm pro 3.2.0/armtools/bin/../lib/gcc/arm-atollic-eabi/4.6.2/../../../../arm-atollic-eabi/lib/thumb/armv7-m\libc.a(lib_a-impure.o)
                                                  c:/program files (x86)/atollic/truestudio for arm pro 3.2.0/armtools/bin/../lib/gcc/arm-atollic-eabi/4.6.2/../../../../arm-atollic-eabi/lib/thumb/armv7-m\libc.a(lib_a-signal.o)
                                                  c:/program files (x86)/atollic/truestudio for arm pro 3.2.0/armtools/bin/../lib/gcc/arm-atollic-eabi/4.6.2/../../../../arm-atollic-eabi/lib/thumb/armv7-m\libc.a(lib_a-reent.o)
                                                  c:/program files (x86)/atollic/truestudio for arm pro 3.2.0/armtools/bin/../lib/gcc/arm-atollic-eabi/4.6.2/../../../../arm-atollic-eabi/lib/thumb/armv7-m\libc.a(lib_a-malloc.o)
                                                  c:/program files (x86)/atollic/truestudio for arm pro 3.2.0/armtools/bin/../lib/gcc/arm-atollic-eabi/4.6.2/../../../../arm-atollic-eabi/lib/thumb/armv7-m\libc.a(lib_a-locale.o)
                                                  c:/program files (x86)/atollic/truestudio for arm pro 3.2.0/armtools/bin/../lib/gcc/arm-atollic-eabi/4.6.2/../../../../arm-atollic-eabi/lib/thumb/armv7-m\libc.a(lib_a-vsnprintf.o)
_init                                             c:/program files (x86)/atollic/truestudio for arm pro 3.2.0/armtools/bin/../lib/gcc/arm-atollic-eabi/4.6.2/thumb/armv7-m/crti.o
                                                  c:/program files (x86)/atollic/truestudio for arm pro 3.2.0/armtools/bin/../lib/gcc/arm-atollic-eabi/4.6.2/../../../../arm-atollic-eabi/lib/thumb/armv7-m\libc.a(lib_a-init.o)
_init_signal                                      c:/program files (x86)/atollic/truestudio for arm pro 3.2.0/armtools/bin/../lib/gcc/arm-atollic-eabi/4.6.2/../../../../arm-atollic-eabi/lib/thumb/armv7-m\libc.a(lib_a-signal.o)
_init_signal_r                                    c:/program files (x86)/atollic/truestudio for arm pro 3.2.0/armtools/bin/../lib/gcc/arm-atollic-eabi/4.6.2/../../../../arm-atollic-eabi/lib/thumb/armv7-m\libc.a(lib_a-signal.o)
_isatty                                           c:/program files (x86)/atollic/truestudio for arm pro 3.2.0/armtools/bin/../lib/gcc/arm-atollic-eabi/4.6.2/../../../../arm-atollic-eabi/lib/thumb/armv7-m\libc.a(lib_a-syscalls.o)
_kill                                             c:/program files (x86)/atollic/truestudio for arm pro 3.2.0/armtools/bin/../lib/gcc/arm-atollic-eabi/4.6.2/../../../../arm-atollic-eabi/lib/thumb/armv7-m\libc.a(lib_a-syscalls.o)
                                                  c:/program files (x86)/atollic/truestudio for arm pro 3.2.0/armtools/bin/../lib/gcc/arm-atollic-eabi/4.6.2/../../../../arm-atollic-eabi/lib/thumb/armv7-m\libc.a(lib_a-signalr.o)
_kill_r                                           c:/program files (x86)/atollic/truestudio for arm pro 3.2.0/armtools/bin/../lib/gcc/arm-atollic-eabi/4.6.2/../../../../arm-atollic-eabi/lib/thumb/armv7-m\libc.a(lib_a-signalr.o)
                                                  c:/program files (x86)/atollic/truestudio for arm pro 3.2.0/armtools/bin/../lib/gcc/arm-atollic-eabi/4.6.2/../../../../arm-atollic-eabi/lib/thumb/armv7-m\libc.a(lib_a-signal.o)
_link                                             c:/program files (x86)/atollic/truestudio for arm pro 3.2.0/armtools/bin/../lib/gcc/arm-atollic-eabi/4.6.2/../../../../arm-atollic-eabi/lib/thumb/armv7-m\libc.a(lib_a-syscalls.o)
_localeconv_r                                     c:/program files (x86)/atollic/truestudio for arm pro 3.2.0/armtools/bin/../lib/gcc/arm-atollic-eabi/4.6.2/../../../../arm-atollic-eabi/lib/thumb/armv7-m\libc.a(lib_a-locale.o)
                                                  c:/program files (x86)/atollic/truestudio for arm pro 3.2.0/armtools/bin/../lib/gcc/arm-atollic-eabi/4.6.2/../../../../arm-atollic-eabi/lib/thumb/armv7-m\libc.a(lib_a-svfprintf.o)
_lseek                                            c:/program files (x86)/atollic/truestudio for arm pro 3.2.0/armtools/bin/../lib/gcc/arm-atollic-eabi/4.6.2/../../../../arm-atollic-eabi/lib/thumb/armv7-m\libc.a(lib_a-syscalls.o)
_malloc_r                                         c:/program files (x86)/atollic/truestudio for arm pro 3.2.0/armtools/bin/../lib/gcc/arm-atollic-eabi/4.6.2/../../../../arm-atollic-eabi/lib/thumb/armv7-m\libc.a(lib_a-mallocr.o)
                                                  c:/program files (x86)/atollic/truestudio for arm pro 3.2.0/armtools/bin/../lib/gcc/arm-atollic-eabi/4.6.2/../../../../arm-atollic-eabi/lib/thumb/armv7-m\libc.a(lib_a-signal.o)
                                                  c:/program files (x86)/atollic/truestudio for arm pro 3.2.0/armtools/bin/../lib/gcc/arm-atollic-eabi/4.6.2/../../../../arm-atollic-eabi/lib/thumb/armv7-m\libc.a(lib_a-reallocr.o)
                                                  c:/program files (x86)/atollic/truestudio for arm pro 3.2.0/armtools/bin/../lib/gcc/arm-atollic-eabi/4.6.2/../../../../arm-atollic-eabi/lib/thumb/armv7-m\libc.a(lib_a-callocr.o)
                                                  c:/program files (x86)/atollic/truestudio for arm pro 3.2.0/armtools/bin/../lib/gcc/arm-atollic-eabi/4.6.2/../../../../arm-atollic-eabi/lib/thumb/armv7-m\libc.a(lib_a-svfiprintf.o)
                                                  c:/program files (x86)/atollic/truestudio for arm pro 3.2.0/armtools/bin/../lib/gcc/arm-atollic-eabi/4.6.2/../../../../arm-atollic-eabi/lib/thumb/armv7-m\libc.a(lib_a-malloc.o)
                                                  c:/program files (x86)/atollic/truestudio for arm pro 3.2.0/armtools/bin/../lib/gcc/arm-atollic-eabi/4.6.2/../../../../arm-atollic-eabi/lib/thumb/armv7-m\libc.a(lib_a-svfprintf.o)
_malloc_trim_r                                    c:/program files (x86)/atollic/truestudio for arm pro 3.2.0/armtools/bin/../lib/gcc/arm-atollic-eabi/4.6.2/../../../../arm-atollic-eabi/lib/thumb/armv7-m\libc.a(lib_a-freer.o)
_mprec_log10                                      c:/program files (x86)/atollic/truestudio for arm pro 3.2.0/armtools/bin/../lib/gcc/arm-atollic-eabi/4.6.2/../../../../arm-atollic-eabi/lib/thumb/armv7-m\libc.a(lib_a-mprec.o)
_open                                             c:/program files (x86)/atollic/truestudio for arm pro 3.2.0/armtools/bin/../lib/gcc/arm-atollic-eabi/4.6.2/../../../../arm-atollic-eabi/lib/thumb/armv7-m\libc.a(lib_a-syscalls.o)
_raise_r                                          c:/program files (x86)/atollic/truestudio for arm pro 3.2.0/armtools/bin/../lib/gcc/arm-atollic-eabi/4.6.2/../../../../arm-atollic-eabi/lib/thumb/armv7-m\libc.a(lib_a-signal.o)
_read                                             c:/program files (x86)/atollic/truestudio for arm pro 3.2.0/armtools/bin/../lib/gcc/arm-atollic-eabi/4.6.2/../../../../arm-atollic-eabi/lib/thumb/armv7-m\libc.a(lib_a-syscalls.o)
_realloc_r                                        c:/program files (x86)/atollic/truestudio for arm pro 3.2.0/armtools/bin/../lib/gcc/arm-atollic-eabi/4.6.2/../../../../arm-atollic-eabi/lib/thumb/armv7-m\libc.a(lib_a-reallocr.o)
                                                  c:/program files (x86)/atollic/truestudio for arm pro 3.2.0/armtools/bin/../lib/gcc/arm-atollic-eabi/4.6.2/../../../../arm-atollic-eabi/lib/thumb/armv7-m\libc.a(lib_a-svfiprintf.o)
_reclaim_reent                                    c:/program files (x86)/atollic/truestudio for arm pro 3.2.0/armtools/bin/../lib/gcc/arm-atollic-eabi/4.6.2/../../../../arm-atollic-eabi/lib/thumb/armv7-m\libc.a(lib_a-reent.o)
_sbrk                                             c:/program files (x86)/atollic/truestudio for arm pro 3.2.0/armtools/bin/../lib/gcc/arm-atollic-eabi/4.6.2/../../../../arm-atollic-eabi/lib/thumb/armv7-m\libc.a(lib_a-syscalls.o)
                                                  c:/program files (x86)/atollic/truestudio for arm pro 3.2.0/armtools/bin/../lib/gcc/arm-atollic-eabi/4.6.2/../../../../arm-atollic-eabi/lib/thumb/armv7-m\libc.a(lib_a-sbrkr.o)
_sbrk_r                                           c:/program files (x86)/atollic/truestudio for arm pro 3.2.0/armtools/bin/../lib/gcc/arm-atollic-eabi/4.6.2/../../../../arm-atollic-eabi/lib/thumb/armv7-m\libc.a(lib_a-sbrkr.o)
                                                  c:/program files (x86)/atollic/truestudio for arm pro 3.2.0/armtools/bin/../lib/gcc/arm-atollic-eabi/4.6.2/../../../../arm-atollic-eabi/lib/thumb/armv7-m\libc.a(lib_a-freer.o)
                                                  c:/program files (x86)/atollic/truestudio for arm pro 3.2.0/armtools/bin/../lib/gcc/arm-atollic-eabi/4.6.2/../../../../arm-atollic-eabi/lib/thumb/armv7-m\libc.a(lib_a-mallocr.o)
_sbss                                             BSP\cstartup.o
_sdata                                            BSP\cstartup.o
_setlocale_r                                      c:/program files (x86)/atollic/truestudio for arm pro 3.2.0/armtools/bin/../lib/gcc/arm-atollic-eabi/4.6.2/../../../../arm-atollic-eabi/lib/thumb/armv7-m\libc.a(lib_a-locale.o)
_sidata                                           BSP\cstartup.o
_signal_r                                         c:/program files (x86)/atollic/truestudio for arm pro 3.2.0/armtools/bin/../lib/gcc/arm-atollic-eabi/4.6.2/../../../../arm-atollic-eabi/lib/thumb/armv7-m\libc.a(lib_a-signal.o)
_stat                                             c:/program files (x86)/atollic/truestudio for arm pro 3.2.0/armtools/bin/../lib/gcc/arm-atollic-eabi/4.6.2/../../../../arm-atollic-eabi/lib/thumb/armv7-m\libc.a(lib_a-syscalls.o)
_svfiprintf_r                                     c:/program files (x86)/atollic/truestudio for arm pro 3.2.0/armtools/bin/../lib/gcc/arm-atollic-eabi/4.6.2/../../../../arm-atollic-eabi/lib/thumb/armv7-m\libc.a(lib_a-svfiprintf.o)
_svfprintf_r                                      c:/program files (x86)/atollic/truestudio for arm pro 3.2.0/armtools/bin/../lib/gcc/arm-atollic-eabi/4.6.2/../../../../arm-atollic-eabi/lib/thumb/armv7-m\libc.a(lib_a-svfprintf.o)
                                                  c:/program files (x86)/atollic/truestudio for arm pro 3.2.0/armtools/bin/../lib/gcc/arm-atollic-eabi/4.6.2/../../../../arm-atollic-eabi/lib/thumb/armv7-m\libc.a(lib_a-vsnprintf.o)
_times                                            c:/program files (x86)/atollic/truestudio for arm pro 3.2.0/armtools/bin/../lib/gcc/arm-atollic-eabi/4.6.2/../../../../arm-atollic-eabi/lib/thumb/armv7-m\libc.a(lib_a-syscalls.o)
_unlink                                           c:/program files (x86)/atollic/truestudio for arm pro 3.2.0/armtools/bin/../lib/gcc/arm-atollic-eabi/4.6.2/../../../../arm-atollic-eabi/lib/thumb/armv7-m\libc.a(lib_a-syscalls.o)
_vsnprintf_r                                      c:/program files (x86)/atollic/truestudio for arm pro 3.2.0/armtools/bin/../lib/gcc/arm-atollic-eabi/4.6.2/../../../../arm-atollic-eabi/lib/thumb/armv7-m\libc.a(lib_a-vsnprintf.o)
_wait                                             c:/program files (x86)/atollic/truestudio for arm pro 3.2.0/armtools/bin/../lib/gcc/arm-atollic-eabi/4.6.2/../../../../arm-atollic-eabi/lib/thumb/armv7-m\libc.a(lib_a-syscalls.o)
_wrapup_reent                                     c:/program files (x86)/atollic/truestudio for arm pro 3.2.0/armtools/bin/../lib/gcc/arm-atollic-eabi/4.6.2/../../../../arm-atollic-eabi/lib/thumb/armv7-m\libc.a(lib_a-reent.o)
_write                                            c:/program files (x86)/atollic/truestudio for arm pro 3.2.0/armtools/bin/../lib/gcc/arm-atollic-eabi/4.6.2/../../../../arm-atollic-eabi/lib/thumb/armv7-m\libc.a(lib_a-syscalls.o)
abort                                             c:/program files (x86)/atollic/truestudio for arm pro 3.2.0/armtools/bin/../lib/gcc/arm-atollic-eabi/4.6.2/../../../../arm-atollic-eabi/lib/thumb/armv7-m\libc.a(lib_a-abort.o)
                                                  c:/program files (x86)/atollic/truestudio for arm pro 3.2.0/armtools/bin/../lib/gcc/arm-atollic-eabi/4.6.2/thumb/armv7-m\libgcc.a(pr-support.o)
                                                  c:/program files (x86)/atollic/truestudio for arm pro 3.2.0/armtools/bin/../lib/gcc/arm-atollic-eabi/4.6.2/thumb/armv7-m\libgcc.a(unwind-arm.o)
cleanup_glue                                      c:/program files (x86)/atollic/truestudio for arm pro 3.2.0/armtools/bin/../lib/gcc/arm-atollic-eabi/4.6.2/../../../../arm-atollic-eabi/lib/thumb/armv7-m\libc.a(lib_a-reent.o)
end                                               c:/program files (x86)/atollic/truestudio for arm pro 3.2.0/armtools/bin/../lib/gcc/arm-atollic-eabi/4.6.2/../../../../arm-atollic-eabi/lib/thumb/armv7-m\libc.a(lib_a-syscalls.o)
environ                                           c:/program files (x86)/atollic/truestudio for arm pro 3.2.0/armtools/bin/../lib/gcc/arm-atollic-eabi/4.6.2/../../../../arm-atollic-eabi/lib/thumb/armv7-m\libc.a(lib_a-syscalls.o)
errno                                             c:/program files (x86)/atollic/truestudio for arm pro 3.2.0/armtools/bin/../lib/gcc/arm-atollic-eabi/4.6.2/../../../../arm-atollic-eabi/lib/thumb/armv7-m\libc.a(lib_a-signalr.o)
                                                  c:/program files (x86)/atollic/truestudio for arm pro 3.2.0/armtools/bin/../lib/gcc/arm-atollic-eabi/4.6.2/../../../../arm-atollic-eabi/lib/thumb/armv7-m\libc.a(lib_a-reent.o)
                                                  c:/program files (x86)/atollic/truestudio for arm pro 3.2.0/armtools/bin/../lib/gcc/arm-atollic-eabi/4.6.2/../../../../arm-atollic-eabi/lib/thumb/armv7-m\libc.a(lib_a-syscalls.o)
                                                  c:/program files (x86)/atollic/truestudio for arm pro 3.2.0/armtools/bin/../lib/gcc/arm-atollic-eabi/4.6.2/../../../../arm-atollic-eabi/lib/thumb/armv7-m\libc.a(lib_a-sbrkr.o)
free                                              c:/program files (x86)/atollic/truestudio for arm pro 3.2.0/armtools/bin/../lib/gcc/arm-atollic-eabi/4.6.2/../../../../arm-atollic-eabi/lib/thumb/armv7-m\libc.a(lib_a-malloc.o)
g_pfnVectors                                      BSP\cstartup.o
initialise_monitor_handles                        c:/program files (x86)/atollic/truestudio for arm pro 3.2.0/armtools/bin/../lib/gcc/arm-atollic-eabi/4.6.2/../../../../arm-atollic-eabi/lib/thumb/armv7-m\libc.a(lib_a-syscalls.o)
localeconv                                        c:/program files (x86)/atollic/truestudio for arm pro 3.2.0/armtools/bin/../lib/gcc/arm-atollic-eabi/4.6.2/../../../../arm-atollic-eabi/lib/thumb/armv7-m\libc.a(lib_a-locale.o)
main                                              APP\app.o
                                                  BSP\cstartup.o
malloc                                            c:/program files (x86)/atollic/truestudio for arm pro 3.2.0/armtools/bin/../lib/gcc/arm-atollic-eabi/4.6.2/../../../../arm-atollic-eabi/lib/thumb/armv7-m\libc.a(lib_a-malloc.o)
                                                  c:/program files (x86)/atollic/truestudio for arm pro 3.2.0/armtools/bin/../lib/gcc/arm-atollic-eabi/4.6.2/../../../../arm-atollic-eabi/lib/thumb/armv7-m\libc.a(lib_a-mprec.o)
                                                  c:/program files (x86)/atollic/truestudio for arm pro 3.2.0/armtools/bin/../lib/gcc/arm-atollic-eabi/4.6.2/../../../../arm-atollic-eabi/lib/thumb/armv7-m\libc.a(lib_a-dtoa.o)
malloc_getpagesize_P                              c:/program files (x86)/atollic/truestudio for arm pro 3.2.0/armtools/bin/../lib/gcc/arm-atollic-eabi/4.6.2/../../../../arm-atollic-eabi/lib/thumb/armv7-m\libc.a(lib_a-freer.o)
                                                  c:/program files (x86)/atollic/truestudio for arm pro 3.2.0/armtools/bin/../lib/gcc/arm-atollic-eabi/4.6.2/../../../../arm-atollic-eabi/lib/thumb/armv7-m\libc.a(lib_a-mallocr.o)
memchr                                            c:/program files (x86)/atollic/truestudio for arm pro 3.2.0/armtools/bin/../lib/gcc/arm-atollic-eabi/4.6.2/../../../../arm-atollic-eabi/lib/thumb/armv7-m\libc.a(lib_a-memchr.o)
                                                  c:/program files (x86)/atollic/truestudio for arm pro 3.2.0/armtools/bin/../lib/gcc/arm-atollic-eabi/4.6.2/../../../../arm-atollic-eabi/lib/thumb/armv7-m\libc.a(lib_a-svfiprintf.o)
                                                  c:/program files (x86)/atollic/truestudio for arm pro 3.2.0/armtools/bin/../lib/gcc/arm-atollic-eabi/4.6.2/../../../../arm-atollic-eabi/lib/thumb/armv7-m\libc.a(lib_a-svfprintf.o)
memcpy                                            c:/program files (x86)/atollic/truestudio for arm pro 3.2.0/armtools/bin/../lib/gcc/arm-atollic-eabi/4.6.2/../../../../arm-atollic-eabi/lib/thumb/armv7-m\libc.a(lib_a-memcpy.o)
                                                  c:/program files (x86)/atollic/truestudio for arm pro 3.2.0/armtools/bin/../lib/gcc/arm-atollic-eabi/4.6.2/thumb/armv7-m\libgcc.a(unwind-arm.o)
                                                  c:/program files (x86)/atollic/truestudio for arm pro 3.2.0/armtools/bin/../lib/gcc/arm-atollic-eabi/4.6.2/../../../../arm-atollic-eabi/lib/thumb/armv7-m\libc.a(lib_a-svfiprintf.o)
                                                  c:/program files (x86)/atollic/truestudio for arm pro 3.2.0/armtools/bin/../lib/gcc/arm-atollic-eabi/4.6.2/../../../../arm-atollic-eabi/lib/thumb/armv7-m\libc.a(lib_a-mprec.o)
                                                  c:/program files (x86)/atollic/truestudio for arm pro 3.2.0/armtools/bin/../lib/gcc/arm-atollic-eabi/4.6.2/../../../../arm-atollic-eabi/lib/thumb/armv7-m\libc.a(lib_a-dtoa.o)
memmove                                           c:/program files (x86)/atollic/truestudio for arm pro 3.2.0/armtools/bin/../lib/gcc/arm-atollic-eabi/4.6.2/../../../../arm-atollic-eabi/lib/thumb/armv7-m\libc.a(lib_a-memmove.o)
                                                  c:/program files (x86)/atollic/truestudio for arm pro 3.2.0/armtools/bin/../lib/gcc/arm-atollic-eabi/4.6.2/../../../../arm-atollic-eabi/lib/thumb/armv7-m\libc.a(lib_a-reallocr.o)
                                                  c:/program files (x86)/atollic/truestudio for arm pro 3.2.0/armtools/bin/../lib/gcc/arm-atollic-eabi/4.6.2/../../../../arm-atollic-eabi/lib/thumb/armv7-m\libc.a(lib_a-svfiprintf.o)
memset                                            c:/program files (x86)/atollic/truestudio for arm pro 3.2.0/armtools/bin/../lib/gcc/arm-atollic-eabi/4.6.2/../../../../arm-atollic-eabi/lib/thumb/armv7-m\libc.a(lib_a-memset.o)
                                                  c:/program files (x86)/atollic/truestudio for arm pro 3.2.0/armtools/bin/../lib/gcc/arm-atollic-eabi/4.6.2/../../../../arm-atollic-eabi/lib/thumb/armv7-m\libc.a(lib_a-callocr.o)
raise                                             c:/program files (x86)/atollic/truestudio for arm pro 3.2.0/armtools/bin/../lib/gcc/arm-atollic-eabi/4.6.2/../../../../arm-atollic-eabi/lib/thumb/armv7-m\libc.a(lib_a-signal.o)
                                                  c:/program files (x86)/atollic/truestudio for arm pro 3.2.0/armtools/bin/../lib/gcc/arm-atollic-eabi/4.6.2/../../../../arm-atollic-eabi/lib/thumb/armv7-m\libc.a(lib_a-abort.o)
restore_core_regs                                 c:/program files (x86)/atollic/truestudio for arm pro 3.2.0/armtools/bin/../lib/gcc/arm-atollic-eabi/4.6.2/thumb/armv7-m\libgcc.a(libunwind.o)
                                                  c:/program files (x86)/atollic/truestudio for arm pro 3.2.0/armtools/bin/../lib/gcc/arm-atollic-eabi/4.6.2/thumb/armv7-m\libgcc.a(unwind-arm.o)
setlocale                                         c:/program files (x86)/atollic/truestudio for arm pro 3.2.0/armtools/bin/../lib/gcc/arm-atollic-eabi/4.6.2/../../../../arm-atollic-eabi/lib/thumb/armv7-m\libc.a(lib_a-locale.o)
signal                                            c:/program files (x86)/atollic/truestudio for arm pro 3.2.0/armtools/bin/../lib/gcc/arm-atollic-eabi/4.6.2/../../../../arm-atollic-eabi/lib/thumb/armv7-m\libc.a(lib_a-signal.o)
strcmp                                            c:/program files (x86)/atollic/truestudio for arm pro 3.2.0/armtools/bin/../lib/gcc/arm-atollic-eabi/4.6.2/../../../../arm-atollic-eabi/lib/thumb/armv7-m\libc.a(lib_a-strcmp.o)
                                                  c:/program files (x86)/atollic/truestudio for arm pro 3.2.0/armtools/bin/../lib/gcc/arm-atollic-eabi/4.6.2/../../../../arm-atollic-eabi/lib/thumb/armv7-m\libc.a(lib_a-locale.o)
strlen                                            c:/program files (x86)/atollic/truestudio for arm pro 3.2.0/armtools/bin/../lib/gcc/arm-atollic-eabi/4.6.2/../../../../arm-atollic-eabi/lib/thumb/armv7-m\libc.a(lib_a-strlen.o)
                                                  c:/program files (x86)/atollic/truestudio for arm pro 3.2.0/armtools/bin/../lib/gcc/arm-atollic-eabi/4.6.2/../../../../arm-atollic-eabi/lib/thumb/armv7-m\libc.a(lib_a-svfiprintf.o)
                                                  c:/program files (x86)/atollic/truestudio for arm pro 3.2.0/armtools/bin/../lib/gcc/arm-atollic-eabi/4.6.2/../../../../arm-atollic-eabi/lib/thumb/armv7-m\libc.a(lib_a-svfprintf.o)
vsnprintf                                         c:/program files (x86)/atollic/truestudio for arm pro 3.2.0/armtools/bin/../lib/gcc/arm-atollic-eabi/4.6.2/../../../../arm-atollic-eabi/lib/thumb/armv7-m\libc.a(lib_a-vsnprintf.o)
                                                  BSP\bsp_ser.o
