Archive member included because of file (symbol)

c:/diasemi/smartsnippetsstudio/gcc/4_9-2015q1/bin/../lib/gcc/arm-none-eabi/4.9.3/armv6-m\libgcc.a(_thumb1_case_sqi.o)
                              ./sdk/sys_man/sys_clock_mgr.o (__gnu_thumb1_case_sqi)
c:/diasemi/smartsnippetsstudio/gcc/4_9-2015q1/bin/../lib/gcc/arm-none-eabi/4.9.3/armv6-m\libgcc.a(_thumb1_case_uqi.o)
                              ./sdk/peripherals/src/hw_dma.o (__gnu_thumb1_case_uqi)
c:/diasemi/smartsnippetsstudio/gcc/4_9-2015q1/bin/../lib/gcc/arm-none-eabi/4.9.3/armv6-m\libgcc.a(_thumb1_case_shi.o)
                              ./sdk/sys_man/sys_charger.o (__gnu_thumb1_case_shi)
c:/diasemi/smartsnippetsstudio/gcc/4_9-2015q1/bin/../lib/gcc/arm-none-eabi/4.9.3/armv6-m\libgcc.a(_udivsi3.o)
                              ./sdk/sys_man/sys_clock_mgr.o (__aeabi_uidiv)
c:/diasemi/smartsnippetsstudio/gcc/4_9-2015q1/bin/../lib/gcc/arm-none-eabi/4.9.3/armv6-m\libgcc.a(_dvmd_tls.o)
                              c:/diasemi/smartsnippetsstudio/gcc/4_9-2015q1/bin/../lib/gcc/arm-none-eabi/4.9.3/armv6-m\libgcc.a(_udivsi3.o) (__aeabi_idiv0)
c:/diasemi/smartsnippetsstudio/gcc/4_9-2015q1/bin/../lib/gcc/arm-none-eabi/4.9.3/../../../../arm-none-eabi/lib/armv6-m\libg_nano.a(lib_a-exit.o)
                              c:/diasemi/smartsnippetsstudio/gcc/4_9-2015q1/bin/../lib/gcc/arm-none-eabi/4.9.3/../../../../arm-none-eabi/lib/armv6-m/crt0.o (exit)
c:/diasemi/smartsnippetsstudio/gcc/4_9-2015q1/bin/../lib/gcc/arm-none-eabi/4.9.3/../../../../arm-none-eabi/lib/armv6-m\libg_nano.a(lib_a-fflush.o)
                              ./main.o (fflush)
c:/diasemi/smartsnippetsstudio/gcc/4_9-2015q1/bin/../lib/gcc/arm-none-eabi/4.9.3/../../../../arm-none-eabi/lib/armv6-m\libg_nano.a(lib_a-findfp.o)
                              c:/diasemi/smartsnippetsstudio/gcc/4_9-2015q1/bin/../lib/gcc/arm-none-eabi/4.9.3/../../../../arm-none-eabi/lib/armv6-m\libg_nano.a(lib_a-fflush.o) (__sinit)
c:/diasemi/smartsnippetsstudio/gcc/4_9-2015q1/bin/../lib/gcc/arm-none-eabi/4.9.3/../../../../arm-none-eabi/lib/armv6-m\libg_nano.a(lib_a-fwalk.o)
                              c:/diasemi/smartsnippetsstudio/gcc/4_9-2015q1/bin/../lib/gcc/arm-none-eabi/4.9.3/../../../../arm-none-eabi/lib/armv6-m\libg_nano.a(lib_a-findfp.o) (_fwalk)
c:/diasemi/smartsnippetsstudio/gcc/4_9-2015q1/bin/../lib/gcc/arm-none-eabi/4.9.3/../../../../arm-none-eabi/lib/armv6-m\libg_nano.a(lib_a-impure.o)
                              c:/diasemi/smartsnippetsstudio/gcc/4_9-2015q1/bin/../lib/gcc/arm-none-eabi/4.9.3/../../../../arm-none-eabi/lib/armv6-m\libg_nano.a(lib_a-exit.o) (_global_impure_ptr)
c:/diasemi/smartsnippetsstudio/gcc/4_9-2015q1/bin/../lib/gcc/arm-none-eabi/4.9.3/../../../../arm-none-eabi/lib/armv6-m\libg_nano.a(lib_a-init.o)
                              c:/diasemi/smartsnippetsstudio/gcc/4_9-2015q1/bin/../lib/gcc/arm-none-eabi/4.9.3/../../../../arm-none-eabi/lib/armv6-m/crt0.o (__libc_init_array)
c:/diasemi/smartsnippetsstudio/gcc/4_9-2015q1/bin/../lib/gcc/arm-none-eabi/4.9.3/../../../../arm-none-eabi/lib/armv6-m\libg_nano.a(lib_a-malloc.o)
                              ./sdk/sys_man/sys_power_mgr.o (malloc)
c:/diasemi/smartsnippetsstudio/gcc/4_9-2015q1/bin/../lib/gcc/arm-none-eabi/4.9.3/../../../../arm-none-eabi/lib/armv6-m\libg_nano.a(lib_a-memcmp.o)
                              ./sdk/free_rtos/tasks.o (memcmp)
c:/diasemi/smartsnippetsstudio/gcc/4_9-2015q1/bin/../lib/gcc/arm-none-eabi/4.9.3/../../../../arm-none-eabi/lib/armv6-m\libg_nano.a(lib_a-memcpy.o)
                              ./sdk/osal/msg_queues.o (memcpy)
c:/diasemi/smartsnippetsstudio/gcc/4_9-2015q1/bin/../lib/gcc/arm-none-eabi/4.9.3/../../../../arm-none-eabi/lib/armv6-m\libg_nano.a(lib_a-memset.o)
                              c:/diasemi/smartsnippetsstudio/gcc/4_9-2015q1/bin/../lib/gcc/arm-none-eabi/4.9.3/../../../../arm-none-eabi/lib/armv6-m/crt0.o (memset)
c:/diasemi/smartsnippetsstudio/gcc/4_9-2015q1/bin/../lib/gcc/arm-none-eabi/4.9.3/../../../../arm-none-eabi/lib/armv6-m\libg_nano.a(lib_a-nano-freer.o)
                              c:/diasemi/smartsnippetsstudio/gcc/4_9-2015q1/bin/../lib/gcc/arm-none-eabi/4.9.3/../../../../arm-none-eabi/lib/armv6-m\libg_nano.a(lib_a-fflush.o) (_free_r)
c:/diasemi/smartsnippetsstudio/gcc/4_9-2015q1/bin/../lib/gcc/arm-none-eabi/4.9.3/../../../../arm-none-eabi/lib/armv6-m\libg_nano.a(lib_a-nano-mallocr.o)
                              c:/diasemi/smartsnippetsstudio/gcc/4_9-2015q1/bin/../lib/gcc/arm-none-eabi/4.9.3/../../../../arm-none-eabi/lib/armv6-m\libg_nano.a(lib_a-findfp.o) (_malloc_r)
c:/diasemi/smartsnippetsstudio/gcc/4_9-2015q1/bin/../lib/gcc/arm-none-eabi/4.9.3/../../../../arm-none-eabi/lib/armv6-m\libg_nano.a(lib_a-putchar.o)
                              ./main.o (putchar)
c:/diasemi/smartsnippetsstudio/gcc/4_9-2015q1/bin/../lib/gcc/arm-none-eabi/4.9.3/../../../../arm-none-eabi/lib/armv6-m\libg_nano.a(lib_a-sbrkr.o)
                              c:/diasemi/smartsnippetsstudio/gcc/4_9-2015q1/bin/../lib/gcc/arm-none-eabi/4.9.3/../../../../arm-none-eabi/lib/armv6-m\libg_nano.a(lib_a-nano-mallocr.o) (_sbrk_r)
c:/diasemi/smartsnippetsstudio/gcc/4_9-2015q1/bin/../lib/gcc/arm-none-eabi/4.9.3/../../../../arm-none-eabi/lib/armv6-m\libg_nano.a(lib_a-stdio.o)
                              c:/diasemi/smartsnippetsstudio/gcc/4_9-2015q1/bin/../lib/gcc/arm-none-eabi/4.9.3/../../../../arm-none-eabi/lib/armv6-m\libg_nano.a(lib_a-findfp.o) (__sread)
c:/diasemi/smartsnippetsstudio/gcc/4_9-2015q1/bin/../lib/gcc/arm-none-eabi/4.9.3/../../../../arm-none-eabi/lib/armv6-m\libg_nano.a(lib_a-writer.o)
                              c:/diasemi/smartsnippetsstudio/gcc/4_9-2015q1/bin/../lib/gcc/arm-none-eabi/4.9.3/../../../../arm-none-eabi/lib/armv6-m\libg_nano.a(lib_a-stdio.o) (_write_r)
c:/diasemi/smartsnippetsstudio/gcc/4_9-2015q1/bin/../lib/gcc/arm-none-eabi/4.9.3/../../../../arm-none-eabi/lib/armv6-m\libg_nano.a(lib_a-closer.o)
                              c:/diasemi/smartsnippetsstudio/gcc/4_9-2015q1/bin/../lib/gcc/arm-none-eabi/4.9.3/../../../../arm-none-eabi/lib/armv6-m\libg_nano.a(lib_a-stdio.o) (_close_r)
c:/diasemi/smartsnippetsstudio/gcc/4_9-2015q1/bin/../lib/gcc/arm-none-eabi/4.9.3/../../../../arm-none-eabi/lib/armv6-m\libg_nano.a(lib_a-lseekr.o)
                              c:/diasemi/smartsnippetsstudio/gcc/4_9-2015q1/bin/../lib/gcc/arm-none-eabi/4.9.3/../../../../arm-none-eabi/lib/armv6-m\libg_nano.a(lib_a-stdio.o) (_lseek_r)
c:/diasemi/smartsnippetsstudio/gcc/4_9-2015q1/bin/../lib/gcc/arm-none-eabi/4.9.3/../../../../arm-none-eabi/lib/armv6-m\libg_nano.a(lib_a-putc.o)
                              c:/diasemi/smartsnippetsstudio/gcc/4_9-2015q1/bin/../lib/gcc/arm-none-eabi/4.9.3/../../../../arm-none-eabi/lib/armv6-m\libg_nano.a(lib_a-putchar.o) (_putc_r)
c:/diasemi/smartsnippetsstudio/gcc/4_9-2015q1/bin/../lib/gcc/arm-none-eabi/4.9.3/../../../../arm-none-eabi/lib/armv6-m\libg_nano.a(lib_a-readr.o)
                              c:/diasemi/smartsnippetsstudio/gcc/4_9-2015q1/bin/../lib/gcc/arm-none-eabi/4.9.3/../../../../arm-none-eabi/lib/armv6-m\libg_nano.a(lib_a-stdio.o) (_read_r)
c:/diasemi/smartsnippetsstudio/gcc/4_9-2015q1/bin/../lib/gcc/arm-none-eabi/4.9.3/../../../../arm-none-eabi/lib/armv6-m\libg_nano.a(lib_a-reent.o)
                              c:/diasemi/smartsnippetsstudio/gcc/4_9-2015q1/bin/../lib/gcc/arm-none-eabi/4.9.3/../../../../arm-none-eabi/lib/armv6-m\libg_nano.a(lib_a-sbrkr.o) (errno)
c:/diasemi/smartsnippetsstudio/gcc/4_9-2015q1/bin/../lib/gcc/arm-none-eabi/4.9.3/../../../../arm-none-eabi/lib/armv6-m\libg_nano.a(lib_a-wbuf.o)
                              c:/diasemi/smartsnippetsstudio/gcc/4_9-2015q1/bin/../lib/gcc/arm-none-eabi/4.9.3/../../../../arm-none-eabi/lib/armv6-m\libg_nano.a(lib_a-putc.o) (__swbuf_r)
c:/diasemi/smartsnippetsstudio/gcc/4_9-2015q1/bin/../lib/gcc/arm-none-eabi/4.9.3/../../../../arm-none-eabi/lib/armv6-m\libg_nano.a(lib_a-wsetup.o)
                              c:/diasemi/smartsnippetsstudio/gcc/4_9-2015q1/bin/../lib/gcc/arm-none-eabi/4.9.3/../../../../arm-none-eabi/lib/armv6-m\libg_nano.a(lib_a-wbuf.o) (__swsetup_r)
c:/diasemi/smartsnippetsstudio/gcc/4_9-2015q1/bin/../lib/gcc/arm-none-eabi/4.9.3/../../../../arm-none-eabi/lib/armv6-m\libg_nano.a(lib_a-makebuf.o)
                              c:/diasemi/smartsnippetsstudio/gcc/4_9-2015q1/bin/../lib/gcc/arm-none-eabi/4.9.3/../../../../arm-none-eabi/lib/armv6-m\libg_nano.a(lib_a-wsetup.o) (__smakebuf_r)
c:/diasemi/smartsnippetsstudio/gcc/4_9-2015q1/bin/../lib/gcc/arm-none-eabi/4.9.3/../../../../arm-none-eabi/lib/armv6-m\libg_nano.a(lib_a-fstatr.o)
                              c:/diasemi/smartsnippetsstudio/gcc/4_9-2015q1/bin/../lib/gcc/arm-none-eabi/4.9.3/../../../../arm-none-eabi/lib/armv6-m\libg_nano.a(lib_a-makebuf.o) (_fstat_r)
c:/diasemi/smartsnippetsstudio/gcc/4_9-2015q1/bin/../lib/gcc/arm-none-eabi/4.9.3/../../../../arm-none-eabi/lib/armv6-m\libg_nano.a(lib_a-isattyr.o)
                              c:/diasemi/smartsnippetsstudio/gcc/4_9-2015q1/bin/../lib/gcc/arm-none-eabi/4.9.3/../../../../arm-none-eabi/lib/armv6-m\libg_nano.a(lib_a-makebuf.o) (_isatty_r)
c:/diasemi/smartsnippetsstudio/gcc/4_9-2015q1/bin/../lib/gcc/arm-none-eabi/4.9.3/../../../../arm-none-eabi/lib/armv6-m\libnosys.a(close.o)
                              c:/diasemi/smartsnippetsstudio/gcc/4_9-2015q1/bin/../lib/gcc/arm-none-eabi/4.9.3/../../../../arm-none-eabi/lib/armv6-m\libg_nano.a(lib_a-closer.o) (_close)
c:/diasemi/smartsnippetsstudio/gcc/4_9-2015q1/bin/../lib/gcc/arm-none-eabi/4.9.3/../../../../arm-none-eabi/lib/armv6-m\libnosys.a(fstat.o)
                              c:/diasemi/smartsnippetsstudio/gcc/4_9-2015q1/bin/../lib/gcc/arm-none-eabi/4.9.3/../../../../arm-none-eabi/lib/armv6-m\libg_nano.a(lib_a-fstatr.o) (_fstat)
c:/diasemi/smartsnippetsstudio/gcc/4_9-2015q1/bin/../lib/gcc/arm-none-eabi/4.9.3/../../../../arm-none-eabi/lib/armv6-m\libnosys.a(isatty.o)
                              c:/diasemi/smartsnippetsstudio/gcc/4_9-2015q1/bin/../lib/gcc/arm-none-eabi/4.9.3/../../../../arm-none-eabi/lib/armv6-m\libg_nano.a(lib_a-isattyr.o) (_isatty)
c:/diasemi/smartsnippetsstudio/gcc/4_9-2015q1/bin/../lib/gcc/arm-none-eabi/4.9.3/../../../../arm-none-eabi/lib/armv6-m\libnosys.a(lseek.o)
                              c:/diasemi/smartsnippetsstudio/gcc/4_9-2015q1/bin/../lib/gcc/arm-none-eabi/4.9.3/../../../../arm-none-eabi/lib/armv6-m\libg_nano.a(lib_a-lseekr.o) (_lseek)
c:/diasemi/smartsnippetsstudio/gcc/4_9-2015q1/bin/../lib/gcc/arm-none-eabi/4.9.3/../../../../arm-none-eabi/lib/armv6-m\libnosys.a(sbrk.o)
                              c:/diasemi/smartsnippetsstudio/gcc/4_9-2015q1/bin/../lib/gcc/arm-none-eabi/4.9.3/../../../../arm-none-eabi/lib/armv6-m\libg_nano.a(lib_a-sbrkr.o) (_sbrk)
c:/diasemi/smartsnippetsstudio/gcc/4_9-2015q1/bin/../lib/gcc/arm-none-eabi/4.9.3/../../../../arm-none-eabi/lib/armv6-m\libnosys.a(_exit.o)
                              c:/diasemi/smartsnippetsstudio/gcc/4_9-2015q1/bin/../lib/gcc/arm-none-eabi/4.9.3/../../../../arm-none-eabi/lib/armv6-m\libg_nano.a(lib_a-exit.o) (_exit)

Allocating common symbols
Common symbol       size              file

pxOverflowDelayedCoRoutineList
                    0x4               ./sdk/free_rtos/croutine.o
errno               0x4               c:/diasemi/smartsnippetsstudio/gcc/4_9-2015q1/bin/../lib/gcc/arm-none-eabi/4.9.3/../../../../arm-none-eabi/lib/armv6-m\libg_nano.a(lib_a-reent.o)
pxDelayedCoRoutineList
                    0x4               ./sdk/free_rtos/croutine.o
charge_initiation_state
                    0x1               ./sdk/sys_man/sys_charger.o
ulTimeSpentSleepingInTicks
                    0x4               ./sdk/sys_man/sys_power_mgr.o
xPendingReadyCoRoutineList
                    0x14              ./sdk/free_rtos/croutine.o
xDelayedCoRoutineList2
                    0x14              ./sdk/free_rtos/croutine.o
xDelayedCoRoutineList1
                    0x14              ./sdk/free_rtos/croutine.o
pxReadyCoRoutineLists
                    0x28              ./sdk/free_rtos/croutine.o

Discarded input sections

 .text          0x00000000        0x0 c:/diasemi/smartsnippetsstudio/gcc/4_9-2015q1/bin/../lib/gcc/arm-none-eabi/4.9.3/armv6-m/crti.o
 .data          0x00000000        0x0 c:/diasemi/smartsnippetsstudio/gcc/4_9-2015q1/bin/../lib/gcc/arm-none-eabi/4.9.3/armv6-m/crti.o
 .bss           0x00000000        0x0 c:/diasemi/smartsnippetsstudio/gcc/4_9-2015q1/bin/../lib/gcc/arm-none-eabi/4.9.3/armv6-m/crti.o
 .data          0x00000000        0x4 c:/diasemi/smartsnippetsstudio/gcc/4_9-2015q1/bin/../lib/gcc/arm-none-eabi/4.9.3/armv6-m/crtbegin.o
 .data          0x00000000        0x0 c:/diasemi/smartsnippetsstudio/gcc/4_9-2015q1/bin/../lib/gcc/arm-none-eabi/4.9.3/../../../../arm-none-eabi/lib/armv6-m/crt0.o
 .bss           0x00000000        0x0 c:/diasemi/smartsnippetsstudio/gcc/4_9-2015q1/bin/../lib/gcc/arm-none-eabi/4.9.3/../../../../arm-none-eabi/lib/armv6-m/crt0.o
 .ARM.extab     0x00000000        0x0 c:/diasemi/smartsnippetsstudio/gcc/4_9-2015q1/bin/../lib/gcc/arm-none-eabi/4.9.3/../../../../arm-none-eabi/lib/armv6-m/crt0.o
 .text          0x00000000        0x0 ./startup/config.o
 .data          0x00000000        0x0 ./startup/config.o
 .bss           0x00000000        0x0 ./startup/config.o
 .text._ttywrch
                0x00000000       0x10 ./startup/config.o
 .data          0x00000000        0x0 ./startup/startup_ARMCM0.o
 .bss           0x00000000        0x0 ./startup/startup_ARMCM0.o
 .text          0x00000000        0x0 ./startup/system_ARMCM0.o
 .data          0x00000000        0x0 ./startup/system_ARMCM0.o
 .bss           0x00000000        0x0 ./startup/system_ARMCM0.o
 .rodata.NVMS_PARAM_PART_start
                0x00000000        0x4 ./startup/system_ARMCM0.o
 .rodata.NVMS_BIN_PART_start
                0x00000000        0x4 ./startup/system_ARMCM0.o
 .rodata.NVMS_LOG_PART_end
                0x00000000        0x4 ./startup/system_ARMCM0.o
 .rodata.NVMS_GENERIC_PART_start
                0x00000000        0x4 ./startup/system_ARMCM0.o
 .rodata.NVMS_PARTITION_TABLE_start
                0x00000000        0x4 ./startup/system_ARMCM0.o
 .rodata.NVMS_PARAM_PART_end
                0x00000000        0x4 ./startup/system_ARMCM0.o
 .rodata.NVMS_LOG_PART_start
                0x00000000        0x4 ./startup/system_ARMCM0.o
 retention_mem_uninit
                0x00000000        0x4 ./startup/system_ARMCM0.o
 .rodata.NVMS_BIN_PART_end
                0x00000000        0x4 ./startup/system_ARMCM0.o
 .rodata.NVMS_FIRMWARE_PART_start
                0x00000000        0x4 ./startup/system_ARMCM0.o
 .rodata.NVMS_PARTITION_TABLE_end
                0x00000000        0x4 ./startup/system_ARMCM0.o
 .rodata.NVMS_FIRMWARE_PART_end
                0x00000000        0x4 ./startup/system_ARMCM0.o
 .rodata.NVMS_GENERIC_PART_end
                0x00000000        0x4 ./startup/system_ARMCM0.o
 .text          0x00000000        0x0 ./startup/vector_table.o
 .data          0x00000000        0x0 ./startup/vector_table.o
 .bss           0x00000000        0x0 ./startup/vector_table.o
 .text          0x00000000        0x0 ./sdk/sys_man/sys_charger.o
 .data          0x00000000        0x0 ./sdk/sys_man/sys_charger.o
 .bss           0x00000000        0x0 ./sdk/sys_man/sys_charger.o
 .text.usb_charger_timer_cb
                0x00000000       0x14 ./sdk/sys_man/sys_charger.o
 .text.usb_attach_critical
                0x00000000       0xe8 ./sdk/sys_man/sys_charger.o
 .text.usb_attach
                0x00000000       0x54 ./sdk/sys_man/sys_charger.o
 .text.secure_check_attach_proc
                0x00000000       0x34 ./sdk/sys_man/sys_charger.o
 .text.usb_charger_task
                0x00000000       0x98 ./sdk/sys_man/sys_charger.o
 .text.unlikely.start_charging_default
                0x00000000       0x40 ./sdk/sys_man/sys_charger.o
 .text.usb_charger_fsm_task
                0x00000000      0x304 ./sdk/sys_man/sys_charger.o
 .text.hw_charger_usb_cb
                0x00000000       0x40 ./sdk/sys_man/sys_charger.o
 .text.hw_charger_vbus_cb
                0x00000000       0x38 ./sdk/sys_man/sys_charger.o
 .text.usb_set_precharge_current
                0x00000000       0x24 ./sdk/sys_man/sys_charger.o
 .text.usb_reset_precharge_current
                0x00000000        0xc ./sdk/sys_man/sys_charger.o
 .text.usb_charger_init
                0x00000000       0x98 ./sdk/sys_man/sys_charger.o
 .text.usb_charger_connected
                0x00000000       0x20 ./sdk/sys_man/sys_charger.o
 .text.usb_charger_disconnected
                0x00000000       0x14 ./sdk/sys_man/sys_charger.o
 .bss.voltage_overflow_cnt
                0x00000000        0x4 ./sdk/sys_man/sys_charger.o
 .bss.timer_cnt
                0x00000000        0x4 ./sdk/sys_man/sys_charger.o
 .bss.configured_current_limit
                0x00000000        0x2 ./sdk/sys_man/sys_charger.o
 .bss.time_in_cv_mode
                0x00000000        0x4 ./sdk/sys_man/sys_charger.o
 .bss.pending_charge_finish_cnt
                0x00000000        0x4 ./sdk/sys_man/sys_charger.o
 .bss.detach_in_progress
                0x00000000        0x1 ./sdk/sys_man/sys_charger.o
 .bss.hit_time  0x00000000        0x4 ./sdk/sys_man/sys_charger.o
 .rodata.charge_level
                0x00000000        0x4 ./sdk/sys_man/sys_charger.o
 .bss.precharging_timer_cnt
                0x00000000        0x4 ./sdk/sys_man/sys_charger.o
 .bss.vbat_current_sample
                0x00000000        0x4 ./sdk/sys_man/sys_charger.o
 .rodata.str1.1
                0x00000000       0x14 ./sdk/sys_man/sys_charger.o
 .bss.time_in_cc_mode
                0x00000000        0x4 ./sdk/sys_man/sys_charger.o
 .bss.temp_error_cnt
                0x00000000        0x4 ./sdk/sys_man/sys_charger.o
 .bss.usb_contact
                0x00000000        0x1 ./sdk/sys_man/sys_charger.o
 .bss.no_vbus_timer_cnt
                0x00000000        0x4 ./sdk/sys_man/sys_charger.o
 .bss.vbat_sampling_period
                0x00000000        0x4 ./sdk/sys_man/sys_charger.o
 privileged_data_zi
                0x00000000       0x18 ./sdk/sys_man/sys_charger.o
 COMMON         0x00000000        0x1 ./sdk/sys_man/sys_charger.o
 .text          0x00000000        0x0 ./sdk/sys_man/sys_clock_mgr.o
 .data          0x00000000        0x0 ./sdk/sys_man/sys_clock_mgr.o
 .bss           0x00000000        0x0 ./sdk/sys_man/sys_clock_mgr.o
 .text.cm_sys_clk_get
                0x00000000       0x4c ./sdk/sys_man/sys_clock_mgr.o
 .text.cm_cpu_clk_get
                0x00000000       0x24 ./sdk/sys_man/sys_clock_mgr.o
 .text.cm_ahb_get_clock_divider_fromISR
                0x00000000        0xc ./sdk/sys_man/sys_clock_mgr.o
 .text.cm_apb_get_clock_divider_fromISR
                0x00000000        0xc ./sdk/sys_man/sys_clock_mgr.o
 .text.cm_wait_xtal16m_ready
                0x00000000       0x54 ./sdk/sys_man/sys_clock_mgr.o
 .text.cm_sys_clk_set
                0x00000000       0xbc ./sdk/sys_man/sys_clock_mgr.o
 .text.cm_cpu_clk_set
                0x00000000       0x7c ./sdk/sys_man/sys_clock_mgr.o
 .text.cm_calibrate_rc32k
                0x00000000        0x2 ./sdk/sys_man/sys_clock_mgr.o
 .text.cm_calibrate_rcx_update
                0x00000000       0x4c ./sdk/sys_man/sys_clock_mgr.o
 .text.cm_rcx_us_2_lpcycles_low_acc
                0x00000000       0x20 ./sdk/sys_man/sys_clock_mgr.o
 .text.cm_set_trim_values
                0x00000000        0x2 ./sdk/sys_man/sys_clock_mgr.o
 .text.cm_wait_lp_clk_ready
                0x00000000       0x34 ./sdk/sys_man/sys_clock_mgr.o
 .text.cm_lp_clk_wakeup
                0x00000000       0x14 ./sdk/sys_man/sys_clock_mgr.o
 .text.cm_wait_xtal16m_ready_fromISR
                0x00000000       0x50 ./sdk/sys_man/sys_clock_mgr.o
 .text.cm_cpu_clk_set_fromISR
                0x00000000       0x44 ./sdk/sys_man/sys_clock_mgr.o
 .rodata.rcx_period_dividend
                0x00000000        0x8 ./sdk/sys_man/sys_clock_mgr.o
 .rodata.cpu_clk_configuration
                0x00000000       0x18 ./sdk/sys_man/sys_clock_mgr.o
 .text          0x00000000        0x0 ./sdk/sys_man/sys_power_mgr.o
 .data          0x00000000        0x0 ./sdk/sys_man/sys_power_mgr.o
 .bss           0x00000000        0x0 ./sdk/sys_man/sys_power_mgr.o
 .text.prepare_sleep_mode
                0x00000000       0x40 ./sdk/sys_man/sys_power_mgr.o
 .text.pm_wait_debugger_detach
                0x00000000       0x26 ./sdk/sys_man/sys_power_mgr.o
 .text.pm_set_wakeup_mode
                0x00000000       0x40 ./sdk/sys_man/sys_power_mgr.o
 .text.pm_get_wakeup_mode
                0x00000000       0x40 ./sdk/sys_man/sys_power_mgr.o
 .text.pm_set_sleep_mode
                0x00000000       0x3c ./sdk/sys_man/sys_power_mgr.o
 .text.pm_get_sleep_mode
                0x00000000       0x24 ./sdk/sys_man/sys_power_mgr.o
 .text.pm_stay_alive
                0x00000000       0x50 ./sdk/sys_man/sys_power_mgr.o
 .text.pm_stay_idle
                0x00000000       0x4c ./sdk/sys_man/sys_power_mgr.o
 .text.pm_resume_sleep
                0x00000000       0x50 ./sdk/sys_man/sys_power_mgr.o
 .text.pm_register_adapter
                0x00000000       0x74 ./sdk/sys_man/sys_power_mgr.o
 .text.pm_unregister_adapter
                0x00000000       0x68 ./sdk/sys_man/sys_power_mgr.o
 .text.pm_resource_sleeps_until
                0x00000000       0x48 ./sdk/sys_man/sys_power_mgr.o
 .text.pm_resource_is_awake
                0x00000000       0x1c ./sdk/sys_man/sys_power_mgr.o
 .text.pm_defer_sleep_for
                0x00000000       0x74 ./sdk/sys_man/sys_power_mgr.o
 .text.pm_get_mac_wakeup_time
                0x00000000       0x20 ./sdk/sys_man/sys_power_mgr.o
 .text          0x00000000        0x0 ./sdk/sys_man/sys_rtc.o
 .data          0x00000000        0x0 ./sdk/sys_man/sys_rtc.o
 .bss           0x00000000        0x0 ./sdk/sys_man/sys_rtc.o
 .text.rtc_get  0x00000000       0x3c ./sdk/sys_man/sys_rtc.o
 .text          0x00000000        0x0 ./sdk/sys_man/sys_watchdog.o
 .data          0x00000000        0x0 ./sdk/sys_man/sys_watchdog.o
 .bss           0x00000000        0x0 ./sdk/sys_man/sys_watchdog.o
 .text.sys_watchdog_init
                0x00000000        0x2 ./sdk/sys_man/sys_watchdog.o
 .text.sys_watchdog_register
                0x00000000        0x4 ./sdk/sys_man/sys_watchdog.o
 .text.sys_watchdog_unregister
                0x00000000        0x2 ./sdk/sys_man/sys_watchdog.o
 .text.sys_watchdog_configure_idle_id
                0x00000000        0x2 ./sdk/sys_man/sys_watchdog.o
 .text.sys_watchdog_suspend
                0x00000000        0x2 ./sdk/sys_man/sys_watchdog.o
 .text.sys_watchdog_resume
                0x00000000        0x2 ./sdk/sys_man/sys_watchdog.o
 .text.sys_watchdog_notify
                0x00000000        0x2 ./sdk/sys_man/sys_watchdog.o
 .text.sys_watchdog_notify_and_resume
                0x00000000        0x2 ./sdk/sys_man/sys_watchdog.o
 .text.sys_watchdog_set_latency
                0x00000000        0x2 ./sdk/sys_man/sys_watchdog.o
 text_retained  0x00000000        0x4 ./sdk/sys_man/sys_watchdog.o
 .debug_info    0x00000000      0x206 ./sdk/sys_man/sys_watchdog.o
 .debug_abbrev  0x00000000       0xf3 ./sdk/sys_man/sys_watchdog.o
 .debug_loc     0x00000000       0x21 ./sdk/sys_man/sys_watchdog.o
 .debug_aranges
                0x00000000       0x68 ./sdk/sys_man/sys_watchdog.o
 .debug_ranges  0x00000000       0x58 ./sdk/sys_man/sys_watchdog.o
 .debug_line    0x00000000      0x1d9 ./sdk/sys_man/sys_watchdog.o
 .debug_str     0x00000000      0x2d6 ./sdk/sys_man/sys_watchdog.o
 .comment       0x00000000       0x71 ./sdk/sys_man/sys_watchdog.o
 .debug_frame   0x00000000       0xb0 ./sdk/sys_man/sys_watchdog.o
 .ARM.attributes
                0x00000000       0x31 ./sdk/sys_man/sys_watchdog.o
 .text          0x00000000        0x0 ./sdk/peripherals/src/hw_aes_hash.o
 .data          0x00000000        0x0 ./sdk/peripherals/src/hw_aes_hash.o
 .bss           0x00000000        0x0 ./sdk/peripherals/src/hw_aes_hash.o
 .debug_line    0x00000000        0x0 ./sdk/peripherals/src/hw_aes_hash.o
 .debug_str     0x00000000      0x105 ./sdk/peripherals/src/hw_aes_hash.o
 .comment       0x00000000       0x71 ./sdk/peripherals/src/hw_aes_hash.o
 .ARM.attributes
                0x00000000       0x31 ./sdk/peripherals/src/hw_aes_hash.o
 .text          0x00000000        0x0 ./sdk/peripherals/src/hw_cpm.o
 .data          0x00000000        0x0 ./sdk/peripherals/src/hw_cpm.o
 .bss           0x00000000        0x0 ./sdk/peripherals/src/hw_cpm.o
 .text.hw_cpm_is_rc16_allowed
                0x00000000       0xac ./sdk/peripherals/src/hw_cpm.o
 .text.hw_cpm_short_delay
                0x00000000       0x16 ./sdk/peripherals/src/hw_cpm.o
 .text.hw_cpm_get_calibration_data
                0x00000000       0x24 ./sdk/peripherals/src/hw_cpm.o
 .text.hw_cpm_configure_ext32k_pins
                0x00000000        0xc ./sdk/peripherals/src/hw_cpm.o
 .text.hw_cpm_trigger_sw_cursor
                0x00000000       0x3c ./sdk/peripherals/src/hw_cpm.o
 .text.hw_cpm_activate_bod_protection_at_init
                0x00000000       0x28 ./sdk/peripherals/src/hw_cpm.o
 .text          0x00000000        0x0 ./sdk/peripherals/src/hw_dma.o
 .data          0x00000000        0x0 ./sdk/peripherals/src/hw_dma.o
 .bss           0x00000000        0x0 ./sdk/peripherals/src/hw_dma.o
 .text.hw_dma_channel_stop
                0x00000000       0x18 ./sdk/peripherals/src/hw_dma.o
 .text.hw_dma_transfered_bytes
                0x00000000       0x10 ./sdk/peripherals/src/hw_dma.o
 .text          0x00000000        0x0 ./sdk/peripherals/src/hw_fem_sky66112-11.o
 .data          0x00000000        0x0 ./sdk/peripherals/src/hw_fem_sky66112-11.o
 .bss           0x00000000        0x0 ./sdk/peripherals/src/hw_fem_sky66112-11.o
 .debug_line    0x00000000        0x0 ./sdk/peripherals/src/hw_fem_sky66112-11.o
 .debug_str     0x00000000      0x10c ./sdk/peripherals/src/hw_fem_sky66112-11.o
 .comment       0x00000000       0x71 ./sdk/peripherals/src/hw_fem_sky66112-11.o
 .ARM.attributes
                0x00000000       0x31 ./sdk/peripherals/src/hw_fem_sky66112-11.o
 .text          0x00000000        0x0 ./sdk/peripherals/src/hw_gpadc.o
 .data          0x00000000        0x0 ./sdk/peripherals/src/hw_gpadc.o
 .bss           0x00000000        0x0 ./sdk/peripherals/src/hw_gpadc.o
 .text.hw_gpadc_configure
                0x00000000       0xb4 ./sdk/peripherals/src/hw_gpadc.o
 .text.hw_gpadc_init
                0x00000000       0x24 ./sdk/peripherals/src/hw_gpadc.o
 .text.hw_gpadc_register_interrupt
                0x00000000       0x24 ./sdk/peripherals/src/hw_gpadc.o
 .text.hw_gpadc_unregister_interrupt
                0x00000000       0x28 ./sdk/peripherals/src/hw_gpadc.o
 .text.hw_gpadc_get_value
                0x00000000       0x28 ./sdk/peripherals/src/hw_gpadc.o
 .text.hw_gpadc_calibrate
                0x00000000       0xc0 ./sdk/peripherals/src/hw_gpadc.o
 .text.hw_gpadc_test_measurements
                0x00000000       0xc4 ./sdk/peripherals/src/hw_gpadc.o
 .text          0x00000000        0x0 ./sdk/peripherals/src/hw_gpio.o
 .data          0x00000000        0x0 ./sdk/peripherals/src/hw_gpio.o
 .bss           0x00000000        0x0 ./sdk/peripherals/src/hw_gpio.o
 .text.hw_gpio_reserve_pin
                0x00000000       0x28 ./sdk/peripherals/src/hw_gpio.o
 .text.hw_gpio_unreserve_pin
                0x00000000       0x14 ./sdk/peripherals/src/hw_gpio.o
 .text.hw_gpio_get_pin_function
                0x00000000       0x1c ./sdk/peripherals/src/hw_gpio.o
 .text.hw_gpio_configure_pin_power
                0x00000000       0x24 ./sdk/peripherals/src/hw_gpio.o
 .text.hw_gpio_set_active
                0x00000000       0x14 ./sdk/peripherals/src/hw_gpio.o
 .text.hw_gpio_set_inactive
                0x00000000       0x14 ./sdk/peripherals/src/hw_gpio.o
 .text.hw_gpio_configure_pin
                0x00000000       0x2a ./sdk/peripherals/src/hw_gpio.o
 .text.hw_gpio_reserve_and_configure_pin
                0x00000000       0x2c ./sdk/peripherals/src/hw_gpio.o
 .text.hw_gpio_configure
                0x00000000       0x84 ./sdk/peripherals/src/hw_gpio.o
 .text.hw_gpio_get_pin_status
                0x00000000       0x18 ./sdk/peripherals/src/hw_gpio.o
 .text.hw_gpio_toggle
                0x00000000       0x22 ./sdk/peripherals/src/hw_gpio.o
 .text.hw_gpio_get_pins_with_function
                0x00000000       0x5c ./sdk/peripherals/src/hw_gpio.o
 .rodata.hw_gpio_port_num_pins
                0x00000000        0x5 ./sdk/peripherals/src/hw_gpio.o
 .bss.GPIO_status
                0x00000000        0x5 ./sdk/peripherals/src/hw_gpio.o
 .text          0x00000000        0x0 ./sdk/peripherals/src/hw_hard_fault.o
 .data          0x00000000        0x0 ./sdk/peripherals/src/hw_hard_fault.o
 .bss           0x00000000        0x0 ./sdk/peripherals/src/hw_hard_fault.o
 hard_fault_info
                0x00000000       0x24 ./sdk/peripherals/src/hw_hard_fault.o
 .text          0x00000000        0x0 ./sdk/peripherals/src/hw_i2c.o
 .data          0x00000000        0x0 ./sdk/peripherals/src/hw_i2c.o
 .bss           0x00000000        0x0 ./sdk/peripherals/src/hw_i2c.o
 .debug_line    0x00000000        0x0 ./sdk/peripherals/src/hw_i2c.o
 .debug_str     0x00000000      0x100 ./sdk/peripherals/src/hw_i2c.o
 .comment       0x00000000       0x71 ./sdk/peripherals/src/hw_i2c.o
 .ARM.attributes
                0x00000000       0x31 ./sdk/peripherals/src/hw_i2c.o
 .text          0x00000000        0x0 ./sdk/peripherals/src/hw_irgen.o
 .data          0x00000000        0x0 ./sdk/peripherals/src/hw_irgen.o
 .bss           0x00000000        0x0 ./sdk/peripherals/src/hw_irgen.o
 .debug_line    0x00000000        0x0 ./sdk/peripherals/src/hw_irgen.o
 .debug_str     0x00000000      0x102 ./sdk/peripherals/src/hw_irgen.o
 .comment       0x00000000       0x71 ./sdk/peripherals/src/hw_irgen.o
 .ARM.attributes
                0x00000000       0x31 ./sdk/peripherals/src/hw_irgen.o
 .text          0x00000000        0x0 ./sdk/peripherals/src/hw_keyboard_scanner.o
 .data          0x00000000        0x0 ./sdk/peripherals/src/hw_keyboard_scanner.o
 .bss           0x00000000        0x0 ./sdk/peripherals/src/hw_keyboard_scanner.o
 .debug_line    0x00000000        0x0 ./sdk/peripherals/src/hw_keyboard_scanner.o
 .debug_str     0x00000000      0x10d ./sdk/peripherals/src/hw_keyboard_scanner.o
 .comment       0x00000000       0x71 ./sdk/peripherals/src/hw_keyboard_scanner.o
 .ARM.attributes
                0x00000000       0x31 ./sdk/peripherals/src/hw_keyboard_scanner.o
 .text          0x00000000        0x0 ./sdk/peripherals/src/hw_otpc.o
 .data          0x00000000        0x0 ./sdk/peripherals/src/hw_otpc.o
 .bss           0x00000000        0x0 ./sdk/peripherals/src/hw_otpc.o
 .text.wait_for_auto_done
                0x00000000       0x10 ./sdk/peripherals/src/hw_otpc.o
 .text.hw_otpc_core_test
                0x00000000       0x3c ./sdk/peripherals/src/hw_otpc.o
 .text.hw_otpc_power_save
                0x00000000       0x30 ./sdk/peripherals/src/hw_otpc.o
 .text.hw_otpc_num_of_rr
                0x00000000       0x70 ./sdk/peripherals/src/hw_otpc.o
 .text.hw_otpc_write_rr
                0x00000000       0xa0 ./sdk/peripherals/src/hw_otpc.o
 .text.hw_otpc_manual_word_prog
                0x00000000      0x158 ./sdk/peripherals/src/hw_otpc.o
 .text.hw_otpc_manual_prog
                0x00000000      0x114 ./sdk/peripherals/src/hw_otpc.o
 .text.hw_otpc_dma_prog
                0x00000000       0xf4 ./sdk/peripherals/src/hw_otpc.o
 .text.hw_otpc_dma_read
                0x00000000       0xec ./sdk/peripherals/src/hw_otpc.o
 .text.hw_otpc_fifo_prog
                0x00000000       0xc0 ./sdk/peripherals/src/hw_otpc.o
 .text.hw_otpc_fifo_read
                0x00000000       0xd8 ./sdk/peripherals/src/hw_otpc.o
 .text.hw_otpc_prepare
                0x00000000       0x90 ./sdk/peripherals/src/hw_otpc.o
 .text.hw_otpc_cancel_prepare
                0x00000000       0x60 ./sdk/peripherals/src/hw_otpc.o
 .text.hw_otpc_blank
                0x00000000        0xa ./sdk/peripherals/src/hw_otpc.o
 .text.hw_otpc_tdec
                0x00000000        0xa ./sdk/peripherals/src/hw_otpc.o
 .text.hw_otpc_twr
                0x00000000        0xa ./sdk/peripherals/src/hw_otpc.o
 .text          0x00000000        0x0 ./sdk/peripherals/src/hw_qspi.o
 .data          0x00000000        0x0 ./sdk/peripherals/src/hw_qspi.o
 .bss           0x00000000        0x0 ./sdk/peripherals/src/hw_qspi.o
 .text.hw_qspi_set_bus_mode
                0x00000000       0x32 ./sdk/peripherals/src/hw_qspi.o
 text_retained  0x00000000       0x9c ./sdk/peripherals/src/hw_qspi.o
 .text.hw_qspi_set_wrapping_burst_instruction
                0x00000000       0x3c ./sdk/peripherals/src/hw_qspi.o
 .text.hw_qspi_set_dummy_bytes_count
                0x00000000       0x30 ./sdk/peripherals/src/hw_qspi.o
 .text.hw_qspi_erase_block
                0x00000000       0x54 ./sdk/peripherals/src/hw_qspi.o
 .text.hw_qspi_set_pads
                0x00000000       0x16 ./sdk/peripherals/src/hw_qspi.o
 .text.hw_qspi_init
                0x00000000       0x98 ./sdk/peripherals/src/hw_qspi.o
 .text          0x00000000        0x0 ./sdk/peripherals/src/hw_quad.o
 .data          0x00000000        0x0 ./sdk/peripherals/src/hw_quad.o
 .bss           0x00000000        0x0 ./sdk/peripherals/src/hw_quad.o
 .debug_line    0x00000000        0x0 ./sdk/peripherals/src/hw_quad.o
 .debug_str     0x00000000      0x101 ./sdk/peripherals/src/hw_quad.o
 .comment       0x00000000       0x71 ./sdk/peripherals/src/hw_quad.o
 .ARM.attributes
                0x00000000       0x31 ./sdk/peripherals/src/hw_quad.o
 .text          0x00000000        0x0 ./sdk/peripherals/src/hw_rf.o
 .data          0x00000000        0x0 ./sdk/peripherals/src/hw_rf.o
 .bss           0x00000000        0x0 ./sdk/peripherals/src/hw_rf.o
 .debug_line    0x00000000        0x0 ./sdk/peripherals/src/hw_rf.o
 .debug_str     0x00000000       0xff ./sdk/peripherals/src/hw_rf.o
 .comment       0x00000000       0x71 ./sdk/peripherals/src/hw_rf.o
 .ARM.attributes
                0x00000000       0x31 ./sdk/peripherals/src/hw_rf.o
 .text          0x00000000        0x0 ./sdk/peripherals/src/hw_soc.o
 .data          0x00000000        0x0 ./sdk/peripherals/src/hw_soc.o
 .bss           0x00000000        0x0 ./sdk/peripherals/src/hw_soc.o
 .debug_line    0x00000000        0x0 ./sdk/peripherals/src/hw_soc.o
 .debug_str     0x00000000      0x100 ./sdk/peripherals/src/hw_soc.o
 .comment       0x00000000       0x71 ./sdk/peripherals/src/hw_soc.o
 .ARM.attributes
                0x00000000       0x31 ./sdk/peripherals/src/hw_soc.o
 .text          0x00000000        0x0 ./sdk/peripherals/src/hw_spi.o
 .data          0x00000000        0x0 ./sdk/peripherals/src/hw_spi.o
 .bss           0x00000000        0x0 ./sdk/peripherals/src/hw_spi.o
 .debug_line    0x00000000        0x0 ./sdk/peripherals/src/hw_spi.o
 .debug_str     0x00000000      0x100 ./sdk/peripherals/src/hw_spi.o
 .comment       0x00000000       0x71 ./sdk/peripherals/src/hw_spi.o
 .ARM.attributes
                0x00000000       0x31 ./sdk/peripherals/src/hw_spi.o
 .text          0x00000000        0x0 ./sdk/peripherals/src/hw_tempsens.o
 .data          0x00000000        0x0 ./sdk/peripherals/src/hw_tempsens.o
 .bss           0x00000000        0x0 ./sdk/peripherals/src/hw_tempsens.o
 .debug_line    0x00000000        0x0 ./sdk/peripherals/src/hw_tempsens.o
 .debug_str     0x00000000      0x105 ./sdk/peripherals/src/hw_tempsens.o
 .comment       0x00000000       0x71 ./sdk/peripherals/src/hw_tempsens.o
 .ARM.attributes
                0x00000000       0x31 ./sdk/peripherals/src/hw_tempsens.o
 .text          0x00000000        0x0 ./sdk/peripherals/src/hw_timer0.o
 .data          0x00000000        0x0 ./sdk/peripherals/src/hw_timer0.o
 .bss           0x00000000        0x0 ./sdk/peripherals/src/hw_timer0.o
 .debug_line    0x00000000        0x0 ./sdk/peripherals/src/hw_timer0.o
 .debug_str     0x00000000      0x103 ./sdk/peripherals/src/hw_timer0.o
 .comment       0x00000000       0x71 ./sdk/peripherals/src/hw_timer0.o
 .ARM.attributes
                0x00000000       0x31 ./sdk/peripherals/src/hw_timer0.o
 .text          0x00000000        0x0 ./sdk/peripherals/src/hw_timer1.o
 .data          0x00000000        0x0 ./sdk/peripherals/src/hw_timer1.o
 .bss           0x00000000        0x0 ./sdk/peripherals/src/hw_timer1.o
 .text.hw_timer1_configure_pwm
                0x00000000       0x10 ./sdk/peripherals/src/hw_timer1.o
 .text          0x00000000        0x0 ./sdk/peripherals/src/hw_timer2.o
 .data          0x00000000        0x0 ./sdk/peripherals/src/hw_timer2.o
 .bss           0x00000000        0x0 ./sdk/peripherals/src/hw_timer2.o
 .debug_line    0x00000000        0x0 ./sdk/peripherals/src/hw_timer2.o
 .debug_str     0x00000000      0x103 ./sdk/peripherals/src/hw_timer2.o
 .comment       0x00000000       0x71 ./sdk/peripherals/src/hw_timer2.o
 .ARM.attributes
                0x00000000       0x31 ./sdk/peripherals/src/hw_timer2.o
 .text          0x00000000        0x0 ./sdk/peripherals/src/hw_trng.o
 .data          0x00000000        0x0 ./sdk/peripherals/src/hw_trng.o
 .bss           0x00000000        0x0 ./sdk/peripherals/src/hw_trng.o
 .debug_line    0x00000000        0x0 ./sdk/peripherals/src/hw_trng.o
 .debug_str     0x00000000      0x101 ./sdk/peripherals/src/hw_trng.o
 .comment       0x00000000       0x71 ./sdk/peripherals/src/hw_trng.o
 .ARM.attributes
                0x00000000       0x31 ./sdk/peripherals/src/hw_trng.o
 .text          0x00000000        0x0 ./sdk/peripherals/src/hw_uart.o
 .data          0x00000000        0x0 ./sdk/peripherals/src/hw_uart.o
 .bss           0x00000000        0x0 ./sdk/peripherals/src/hw_uart.o
 .text.hw_uart_read_buffer
                0x00000000       0x1e ./sdk/peripherals/src/hw_uart.o
 .text.hw_uart_receive
                0x00000000       0x94 ./sdk/peripherals/src/hw_uart.o
 .text.hw_uart_abort_receive
                0x00000000       0x30 ./sdk/peripherals/src/hw_uart.o
 .text.hw_uart_peek_received
                0x00000000       0x38 ./sdk/peripherals/src/hw_uart.o
 .text.hw_uart_baudrate_get
                0x00000000       0x26 ./sdk/peripherals/src/hw_uart.o
 .text.hw_uart_baudrate_set
                0x00000000       0x22 ./sdk/peripherals/src/hw_uart.o
 .text.hw_uart_fifo_en_getf
                0x00000000       0x3c ./sdk/peripherals/src/hw_uart.o
 .text.hw_uart_tx_fifo_tr_lvl_getf
                0x00000000       0x28 ./sdk/peripherals/src/hw_uart.o
 .text.hw_uart_set_dma_channels
                0x00000000      0x120 ./sdk/peripherals/src/hw_uart.o
 .text.hw_uart_init_ex
                0x00000000      0x160 ./sdk/peripherals/src/hw_uart.o
 .text.hw_uart_reinit_ex
                0x00000000      0x118 ./sdk/peripherals/src/hw_uart.o
 .text.hw_uart_reinit
                0x00000000      0x110 ./sdk/peripherals/src/hw_uart.o
 .text.hw_uart_cfg_get
                0x00000000       0xb0 ./sdk/peripherals/src/hw_uart.o
 .text.hw_uart_sire_getf
                0x00000000        0x8 ./sdk/peripherals/src/hw_uart.o
 .text.hw_uart_sire_setf
                0x00000000       0x10 ./sdk/peripherals/src/hw_uart.o
 .text.hw_uart_afce_getf
                0x00000000        0x8 ./sdk/peripherals/src/hw_uart.o
 .text.hw_uart_afce_setf
                0x00000000       0x10 ./sdk/peripherals/src/hw_uart.o
 .text.hw_uart_loopback_getf
                0x00000000        0x8 ./sdk/peripherals/src/hw_uart.o
 .text.hw_uart_loopback_setf
                0x00000000       0x10 ./sdk/peripherals/src/hw_uart.o
 .text.hw_uart_rts_getf
                0x00000000        0x8 ./sdk/peripherals/src/hw_uart.o
 .text.hw_uart_rts_setf
                0x00000000       0x10 ./sdk/peripherals/src/hw_uart.o
 .text.hw_uart_rx_fifo_err_getf
                0x00000000       0x28 ./sdk/peripherals/src/hw_uart.o
 .text.hw_uart_is_tx_fifo_empty
                0x00000000        0x8 ./sdk/peripherals/src/hw_uart.o
 .text.hw_uart_thr_empty_getf
                0x00000000        0x8 ./sdk/peripherals/src/hw_uart.o
 .text.hw_uart_break_int_getf
                0x00000000        0x8 ./sdk/peripherals/src/hw_uart.o
 .text.hw_uart_frame_err_getf
                0x00000000        0x8 ./sdk/peripherals/src/hw_uart.o
 .text.hw_uart_parity_err_getf
                0x00000000        0x8 ./sdk/peripherals/src/hw_uart.o
 .text.hw_uart_overrun_err_getf
                0x00000000        0x8 ./sdk/peripherals/src/hw_uart.o
 .text.hw_uart_cts_getf
                0x00000000        0x8 ./sdk/peripherals/src/hw_uart.o
 .text.hw_uart_delta_cts_getf
                0x00000000        0x8 ./sdk/peripherals/src/hw_uart.o
 .text.hw_uart_tx_in_progress
                0x00000000       0x24 ./sdk/peripherals/src/hw_uart.o
 .text.hw_uart_rx_in_progress
                0x00000000       0x24 ./sdk/peripherals/src/hw_uart.o
 .text          0x00000000        0x0 ./sdk/peripherals/src/hw_usb_charger.o
 .data          0x00000000        0x0 ./sdk/peripherals/src/hw_usb_charger.o
 .bss           0x00000000        0x0 ./sdk/peripherals/src/hw_usb_charger.o
 .text.hw_charger_enable_vbus_irq
                0x00000000       0x18 ./sdk/peripherals/src/hw_usb_charger.o
 .text.hw_charger_enable_charger_irq
                0x00000000       0x20 ./sdk/peripherals/src/hw_usb_charger.o
 .text.hw_charger_configure_usb_pins
                0x00000000       0x10 ./sdk/peripherals/src/hw_usb_charger.o
 .text          0x00000000        0x0 ./sdk/peripherals/src/hw_watchdog.o
 .data          0x00000000        0x0 ./sdk/peripherals/src/hw_watchdog.o
 .bss           0x00000000        0x0 ./sdk/peripherals/src/hw_watchdog.o
 .text.hw_watchdog_is_irq_or_rst_gen
                0x00000000       0x10 ./sdk/peripherals/src/hw_watchdog.o
 .text.hw_watchdog_register_int
                0x00000000        0xc ./sdk/peripherals/src/hw_watchdog.o
 nmi_info       0x00000000       0x24 ./sdk/peripherals/src/hw_watchdog.o
 .text          0x00000000        0x0 ./sdk/peripherals/src/hw_wkup.o
 .data          0x00000000        0x0 ./sdk/peripherals/src/hw_wkup.o
 .bss           0x00000000        0x0 ./sdk/peripherals/src/hw_wkup.o
 .text.hw_wkup_configure
                0x00000000       0x50 ./sdk/peripherals/src/hw_wkup.o
 .text.hw_wkup_init
                0x00000000       0x98 ./sdk/peripherals/src/hw_wkup.o
 .text.hw_wkup_register_interrupt
                0x00000000       0x48 ./sdk/peripherals/src/hw_wkup.o
 .text.hw_wkup_unregister_interrupt
                0x00000000       0x28 ./sdk/peripherals/src/hw_wkup.o
 .text          0x00000000        0x0 ./sdk/peripherals/src/sys_tcs.o
 .data          0x00000000        0x0 ./sdk/peripherals/src/sys_tcs.o
 .bss           0x00000000        0x0 ./sdk/peripherals/src/sys_tcs.o
 .text          0x00000000        0x0 ./sdk/osal/msg_queues.o
 .data          0x00000000        0x0 ./sdk/osal/msg_queues.o
 .bss           0x00000000        0x0 ./sdk/osal/msg_queues.o
 .text.msg_queue_create
                0x00000000       0x12 ./sdk/osal/msg_queues.o
 .text.msg_queue_delete
                0x00000000        0xa ./sdk/osal/msg_queues.o
 .text.msg_queue_put
                0x00000000       0x34 ./sdk/osal/msg_queues.o
 .text.msg_queue_get
                0x00000000        0xc ./sdk/osal/msg_queues.o
 .text.msg_init
                0x00000000       0x14 ./sdk/osal/msg_queues.o
 .text.msg_release
                0x00000000       0x14 ./sdk/osal/msg_queues.o
 .text.msg_queue_init_msg
                0x00000000       0x2c ./sdk/osal/msg_queues.o
 .text.msg_queue_send
                0x00000000       0x4c ./sdk/osal/msg_queues.o
 .text.msq_queue_send_zero_copy
                0x00000000       0x32 ./sdk/osal/msg_queues.o
 .debug_info    0x00000000      0x94a ./sdk/osal/msg_queues.o
 .debug_abbrev  0x00000000      0x2ff ./sdk/osal/msg_queues.o
 .debug_loc     0x00000000      0x6fa ./sdk/osal/msg_queues.o
 .debug_aranges
                0x00000000       0x60 ./sdk/osal/msg_queues.o
 .debug_ranges  0x00000000       0xa8 ./sdk/osal/msg_queues.o
 .debug_line    0x00000000      0x387 ./sdk/osal/msg_queues.o
 .debug_str     0x00000000      0x405 ./sdk/osal/msg_queues.o
 .comment       0x00000000       0x71 ./sdk/osal/msg_queues.o
 .debug_frame   0x00000000      0x100 ./sdk/osal/msg_queues.o
 .ARM.attributes
                0x00000000       0x31 ./sdk/osal/msg_queues.o
 .text          0x00000000        0x0 ./sdk/osal/resmgmt.o
 .data          0x00000000        0x0 ./sdk/osal/resmgmt.o
 .bss           0x00000000        0x0 ./sdk/osal/resmgmt.o
 .text.resource_acquire
                0x00000000       0xc0 ./sdk/osal/resmgmt.o
 .text.resource_release
                0x00000000       0x98 ./sdk/osal/resmgmt.o
 .text.resource_add
                0x00000000       0x1c ./sdk/osal/resmgmt.o
 .data.max_resource_id
                0x00000000        0x1 ./sdk/osal/resmgmt.o
 .bss.acquired_resources
                0x00000000        0x4 ./sdk/osal/resmgmt.o
 .text          0x00000000        0x0 ./sdk/memory/src/qspi_automode.o
 .data          0x00000000        0x0 ./sdk/memory/src/qspi_automode.o
 .bss           0x00000000        0x0 ./sdk/memory/src/qspi_automode.o
 .text.qspi_automode_get_code_buffer_size
                0x00000000        0x4 ./sdk/memory/src/qspi_automode.o
 .text.qspi_automode_set_code_buffer
                0x00000000        0x2 ./sdk/memory/src/qspi_automode.o
 .text.qspi_automode_writable
                0x00000000        0x8 ./sdk/memory/src/qspi_automode.o
 .text.qspi_automode_write_flash_page
                0x00000000       0x1c ./sdk/memory/src/qspi_automode.o
 .text.qspi_automode_erase_flash_sector
                0x00000000       0x14 ./sdk/memory/src/qspi_automode.o
 .text.qspi_automode_read
                0x00000000       0x18 ./sdk/memory/src/qspi_automode.o
 .text.qspi_automode_flash_power_up
                0x00000000        0x2 ./sdk/memory/src/qspi_automode.o
 .text          0x00000000        0x0 ./sdk/free_rtos/portable/MemMang/heap_4.o
 .data          0x00000000        0x0 ./sdk/free_rtos/portable/MemMang/heap_4.o
 .bss           0x00000000        0x0 ./sdk/free_rtos/portable/MemMang/heap_4.o
 .text.xPortGetFreeHeapSize
                0x00000000        0xc ./sdk/free_rtos/portable/MemMang/heap_4.o
 .text.xPortGetMinimumEverFreeHeapSize
                0x00000000        0xc ./sdk/free_rtos/portable/MemMang/heap_4.o
 .text.vPortInitialiseBlocks
                0x00000000        0x2 ./sdk/free_rtos/portable/MemMang/heap_4.o
 .text          0x00000000        0x0 ./sdk/free_rtos/portable/GCC/ARM_CM0/port.o
 .data          0x00000000        0x0 ./sdk/free_rtos/portable/GCC/ARM_CM0/port.o
 .bss           0x00000000        0x0 ./sdk/free_rtos/portable/GCC/ARM_CM0/port.o
 .text.SVCall_Handler
                0x00000000        0x2 ./sdk/free_rtos/portable/GCC/ARM_CM0/port.o
 .text.vPortEndScheduler
                0x00000000       0x1c ./sdk/free_rtos/portable/GCC/ARM_CM0/port.o
 .text          0x00000000        0x0 ./sdk/free_rtos/croutine.o
 .data          0x00000000        0x0 ./sdk/free_rtos/croutine.o
 .bss           0x00000000        0x0 ./sdk/free_rtos/croutine.o
 .text.vCoRoutineAddToDelayedList
                0x00000000       0x4c ./sdk/free_rtos/croutine.o
 .text.prvCheckPendingReadyList
                0x00000000       0x4c ./sdk/free_rtos/croutine.o
 .text.prvCheckDelayedList
                0x00000000       0xac ./sdk/free_rtos/croutine.o
 .text.vCoRoutineSchedule
                0x00000000       0x6c ./sdk/free_rtos/croutine.o
 .text.prvInitialiseCoRoutineLists
                0x00000000       0x4c ./sdk/free_rtos/croutine.o
 .text.xCoRoutineCreate
                0x00000000       0x7c ./sdk/free_rtos/croutine.o
 .text.xCoRoutineRemoveFromEventList
                0x00000000       0x30 ./sdk/free_rtos/croutine.o
 .bss.pxCurrentCoRoutine
                0x00000000        0x4 ./sdk/free_rtos/croutine.o
 .bss.xCoRoutineTickCount
                0x00000000        0x4 ./sdk/free_rtos/croutine.o
 .bss.xLastTickCount
                0x00000000        0x4 ./sdk/free_rtos/croutine.o
 .bss.xPassedTicks
                0x00000000        0x4 ./sdk/free_rtos/croutine.o
 .bss.uxTopCoRoutineReadyPriority
                0x00000000        0x4 ./sdk/free_rtos/croutine.o
 .debug_info    0x00000000      0x709 ./sdk/free_rtos/croutine.o
 .debug_abbrev  0x00000000      0x203 ./sdk/free_rtos/croutine.o
 .debug_loc     0x00000000      0x28e ./sdk/free_rtos/croutine.o
 .debug_aranges
                0x00000000       0x50 ./sdk/free_rtos/croutine.o
 .debug_ranges  0x00000000       0x40 ./sdk/free_rtos/croutine.o
 .debug_line    0x00000000      0x36b ./sdk/free_rtos/croutine.o
 .debug_str     0x00000000      0x58a ./sdk/free_rtos/croutine.o
 .comment       0x00000000       0x71 ./sdk/free_rtos/croutine.o
 .debug_frame   0x00000000       0xe4 ./sdk/free_rtos/croutine.o
 .ARM.attributes
                0x00000000       0x31 ./sdk/free_rtos/croutine.o
 COMMON         0x00000000       0x6c ./sdk/free_rtos/croutine.o
 .text          0x00000000        0x0 ./sdk/free_rtos/event_groups.o
 .data          0x00000000        0x0 ./sdk/free_rtos/event_groups.o
 .bss           0x00000000        0x0 ./sdk/free_rtos/event_groups.o
 .text.xEventGroupWaitBits
                0x00000000       0xe6 ./sdk/free_rtos/event_groups.o
 .text.xEventGroupSync
                0x00000000       0xb0 ./sdk/free_rtos/event_groups.o
 .text.vEventGroupDelete
                0x00000000       0x36 ./sdk/free_rtos/event_groups.o
 .text.uxEventGroupGetNumber
                0x00000000        0x8 ./sdk/free_rtos/event_groups.o
 .text          0x00000000        0x0 ./sdk/free_rtos/list.o
 .data          0x00000000        0x0 ./sdk/free_rtos/list.o
 .bss           0x00000000        0x0 ./sdk/free_rtos/list.o
 .text          0x00000000        0x0 ./sdk/free_rtos/queue.o
 .data          0x00000000        0x0 ./sdk/free_rtos/queue.o
 .bss           0x00000000        0x0 ./sdk/free_rtos/queue.o
 .text.xQueueCreateCountingSemaphore
                0x00000000       0x34 ./sdk/free_rtos/queue.o
 .text.xQueueGiveMutexRecursive
                0x00000000       0x34 ./sdk/free_rtos/queue.o
 .text.xQueueGiveFromISR
                0x00000000       0x7e ./sdk/free_rtos/queue.o
 .text.xQueueTakeMutexRecursive
                0x00000000       0x3e ./sdk/free_rtos/queue.o
 .text.xQueueReceiveFromISR
                0x00000000       0x78 ./sdk/free_rtos/queue.o
 .text.xQueuePeekFromISR
                0x00000000       0x58 ./sdk/free_rtos/queue.o
 .text.uxQueueMessagesWaiting
                0x00000000       0x1c ./sdk/free_rtos/queue.o
 .text.uxQueueSpacesAvailable
                0x00000000       0x20 ./sdk/free_rtos/queue.o
 .text.uxQueueMessagesWaitingFromISR
                0x00000000       0x12 ./sdk/free_rtos/queue.o
 .text.uxQueueGetQueueNumber
                0x00000000        0x4 ./sdk/free_rtos/queue.o
 .text.vQueueSetQueueNumber
                0x00000000        0x4 ./sdk/free_rtos/queue.o
 .text.ucQueueGetQueueType
                0x00000000        0x6 ./sdk/free_rtos/queue.o
 .text.xQueueIsQueueEmptyFromISR
                0x00000000       0x16 ./sdk/free_rtos/queue.o
 .text.xQueueIsQueueFullFromISR
                0x00000000       0x1a ./sdk/free_rtos/queue.o
 .text.vQueueUnregisterQueue
                0x00000000       0x24 ./sdk/free_rtos/queue.o
 .text.vQueueDelete
                0x00000000       0x1a ./sdk/free_rtos/queue.o
 .text.xQueueCreateSet
                0x00000000        0xc ./sdk/free_rtos/queue.o
 .text.xQueueAddToSet
                0x00000000       0x24 ./sdk/free_rtos/queue.o
 .text.xQueueRemoveFromSet
                0x00000000       0x22 ./sdk/free_rtos/queue.o
 .text.xQueueSelectFromSet
                0x00000000       0x12 ./sdk/free_rtos/queue.o
 .text.xQueueSelectFromSetFromISR
                0x00000000       0x10 ./sdk/free_rtos/queue.o
 .text          0x00000000        0x0 ./sdk/free_rtos/tasks.o
 .data          0x00000000        0x0 ./sdk/free_rtos/tasks.o
 .bss           0x00000000        0x0 ./sdk/free_rtos/tasks.o
 .text.eTaskGetState
                0x00000000       0x54 ./sdk/free_rtos/tasks.o
 .text.uxTaskPriorityGet
                0x00000000       0x20 ./sdk/free_rtos/tasks.o
 .text.uxTaskPriorityGetFromISR
                0x00000000       0x20 ./sdk/free_rtos/tasks.o
 .text.vTaskPrioritySet
                0x00000000       0xa8 ./sdk/free_rtos/tasks.o
 .text.vTaskResume
                0x00000000       0x64 ./sdk/free_rtos/tasks.o
 .text.vTaskEndScheduler
                0x00000000       0x14 ./sdk/free_rtos/tasks.o
 .text.xTaskGetTickCountFromISR
                0x00000000        0xc ./sdk/free_rtos/tasks.o
 .text.uxTaskGetNumberOfTasks
                0x00000000        0xc ./sdk/free_rtos/tasks.o
 .text.xTaskGetIdleTaskHandle
                0x00000000       0x18 ./sdk/free_rtos/tasks.o
 .text.uxTaskGetTaskNumber
                0x00000000        0x8 ./sdk/free_rtos/tasks.o
 .text.vTaskSetTaskNumber
                0x00000000        0x8 ./sdk/free_rtos/tasks.o
 .text.vTaskPlaceOnUnorderedEventList
                0x00000000       0x60 ./sdk/free_rtos/tasks.o
 .text.prvTaskCheckFreeStackSpace
                0x00000000       0x16 ./sdk/free_rtos/tasks.o
 .text.prvListTaskWithinSingleList
                0x00000000       0x8c ./sdk/free_rtos/tasks.o
 .text.vTaskDelay
                0x00000000       0x48 ./sdk/free_rtos/tasks.o
 .text.uxTaskGetSystemState
                0x00000000       0x90 ./sdk/free_rtos/tasks.o
 .text.uxTaskResetEventItemValue
                0x00000000       0x18 ./sdk/free_rtos/tasks.o
 .text.ulTaskNotifyTake
                0x00000000       0x84 ./sdk/free_rtos/tasks.o
 .text.xTaskNotifyWait
                0x00000000       0x98 ./sdk/free_rtos/tasks.o
 .text.xTaskNotify
                0x00000000       0xa8 ./sdk/free_rtos/tasks.o
 .text.xTaskNotifyFromISR
                0x00000000       0xc0 ./sdk/free_rtos/tasks.o
 .text.vTaskNotifyGiveFromISR
                0x00000000       0x94 ./sdk/free_rtos/tasks.o
 .text          0x00000000        0x0 ./sdk/free_rtos/timers.o
 .data          0x00000000        0x0 ./sdk/free_rtos/timers.o
 .bss           0x00000000        0x0 ./sdk/free_rtos/timers.o
 .text.pcTimerGetTimerName
                0x00000000        0x4 ./sdk/free_rtos/timers.o
 .text.xTimerIsTimerActive
                0x00000000       0x16 ./sdk/free_rtos/timers.o
 .text.pvTimerGetTimerID
                0x00000000        0x4 ./sdk/free_rtos/timers.o
 .text.xTimerPendFunctionCall
                0x00000000       0x34 ./sdk/free_rtos/timers.o
 .text          0x00000000        0x0 ./sdk/adapters/src/ad_battery.o
 .data          0x00000000        0x0 ./sdk/adapters/src/ad_battery.o
 .bss           0x00000000        0x0 ./sdk/adapters/src/ad_battery.o
 .debug_line    0x00000000        0x0 ./sdk/adapters/src/ad_battery.o
 .debug_str     0x00000000      0x101 ./sdk/adapters/src/ad_battery.o
 .comment       0x00000000       0x71 ./sdk/adapters/src/ad_battery.o
 .ARM.attributes
                0x00000000       0x31 ./sdk/adapters/src/ad_battery.o
 .text          0x00000000        0x0 ./sdk/adapters/src/ad_flash.o
 .data          0x00000000        0x0 ./sdk/adapters/src/ad_flash.o
 .bss           0x00000000        0x0 ./sdk/adapters/src/ad_flash.o
 .debug_line    0x00000000        0x0 ./sdk/adapters/src/ad_flash.o
 .debug_str     0x00000000       0xff ./sdk/adapters/src/ad_flash.o
 .comment       0x00000000       0x71 ./sdk/adapters/src/ad_flash.o
 .ARM.attributes
                0x00000000       0x31 ./sdk/adapters/src/ad_flash.o
 .text          0x00000000        0x0 ./sdk/adapters/src/ad_gpadc.o
 .data          0x00000000        0x0 ./sdk/adapters/src/ad_gpadc.o
 .bss           0x00000000        0x0 ./sdk/adapters/src/ad_gpadc.o
 .debug_line    0x00000000        0x0 ./sdk/adapters/src/ad_gpadc.o
 .debug_str     0x00000000       0xff ./sdk/adapters/src/ad_gpadc.o
 .comment       0x00000000       0x71 ./sdk/adapters/src/ad_gpadc.o
 .ARM.attributes
                0x00000000       0x31 ./sdk/adapters/src/ad_gpadc.o
 .text          0x00000000        0x0 ./sdk/adapters/src/ad_i2c.o
 .data          0x00000000        0x0 ./sdk/adapters/src/ad_i2c.o
 .bss           0x00000000        0x0 ./sdk/adapters/src/ad_i2c.o
 .debug_line    0x00000000        0x0 ./sdk/adapters/src/ad_i2c.o
 .debug_str     0x00000000       0xfd ./sdk/adapters/src/ad_i2c.o
 .comment       0x00000000       0x71 ./sdk/adapters/src/ad_i2c.o
 .ARM.attributes
                0x00000000       0x31 ./sdk/adapters/src/ad_i2c.o
 .text          0x00000000        0x0 ./sdk/adapters/src/ad_keyboard_scanner.o
 .data          0x00000000        0x0 ./sdk/adapters/src/ad_keyboard_scanner.o
 .bss           0x00000000        0x0 ./sdk/adapters/src/ad_keyboard_scanner.o
 .debug_line    0x00000000        0x0 ./sdk/adapters/src/ad_keyboard_scanner.o
 .debug_str     0x00000000      0x10a ./sdk/adapters/src/ad_keyboard_scanner.o
 .comment       0x00000000       0x71 ./sdk/adapters/src/ad_keyboard_scanner.o
 .ARM.attributes
                0x00000000       0x31 ./sdk/adapters/src/ad_keyboard_scanner.o
 .text          0x00000000        0x0 ./sdk/adapters/src/ad_nvms.o
 .data          0x00000000        0x0 ./sdk/adapters/src/ad_nvms.o
 .bss           0x00000000        0x0 ./sdk/adapters/src/ad_nvms.o
 .debug_line    0x00000000        0x0 ./sdk/adapters/src/ad_nvms.o
 .debug_str     0x00000000       0xfe ./sdk/adapters/src/ad_nvms.o
 .comment       0x00000000       0x71 ./sdk/adapters/src/ad_nvms.o
 .ARM.attributes
                0x00000000       0x31 ./sdk/adapters/src/ad_nvms.o
 .text          0x00000000        0x0 ./sdk/adapters/src/ad_nvms_direct.o
 .data          0x00000000        0x0 ./sdk/adapters/src/ad_nvms_direct.o
 .bss           0x00000000        0x0 ./sdk/adapters/src/ad_nvms_direct.o
 .debug_line    0x00000000        0x0 ./sdk/adapters/src/ad_nvms_direct.o
 .debug_str     0x00000000      0x105 ./sdk/adapters/src/ad_nvms_direct.o
 .comment       0x00000000       0x71 ./sdk/adapters/src/ad_nvms_direct.o
 .ARM.attributes
                0x00000000       0x31 ./sdk/adapters/src/ad_nvms_direct.o
 .text          0x00000000        0x0 ./sdk/adapters/src/ad_nvms_ves.o
 .data          0x00000000        0x0 ./sdk/adapters/src/ad_nvms_ves.o
 .bss           0x00000000        0x0 ./sdk/adapters/src/ad_nvms_ves.o
 .debug_line    0x00000000        0x0 ./sdk/adapters/src/ad_nvms_ves.o
 .debug_str     0x00000000      0x102 ./sdk/adapters/src/ad_nvms_ves.o
 .comment       0x00000000       0x71 ./sdk/adapters/src/ad_nvms_ves.o
 .ARM.attributes
                0x00000000       0x31 ./sdk/adapters/src/ad_nvms_ves.o
 .text          0x00000000        0x0 ./sdk/adapters/src/ad_nvparam.o
 .data          0x00000000        0x0 ./sdk/adapters/src/ad_nvparam.o
 .bss           0x00000000        0x0 ./sdk/adapters/src/ad_nvparam.o
 .debug_line    0x00000000        0x0 ./sdk/adapters/src/ad_nvparam.o
 .debug_str     0x00000000      0x101 ./sdk/adapters/src/ad_nvparam.o
 .comment       0x00000000       0x71 ./sdk/adapters/src/ad_nvparam.o
 .ARM.attributes
                0x00000000       0x31 ./sdk/adapters/src/ad_nvparam.o
 .text          0x00000000        0x0 ./sdk/adapters/src/ad_rf.o
 .data          0x00000000        0x0 ./sdk/adapters/src/ad_rf.o
 .bss           0x00000000        0x0 ./sdk/adapters/src/ad_rf.o
 .debug_line    0x00000000        0x0 ./sdk/adapters/src/ad_rf.o
 .debug_str     0x00000000       0xfc ./sdk/adapters/src/ad_rf.o
 .comment       0x00000000       0x71 ./sdk/adapters/src/ad_rf.o
 .ARM.attributes
                0x00000000       0x31 ./sdk/adapters/src/ad_rf.o
 .text          0x00000000        0x0 ./sdk/adapters/src/ad_spi.o
 .data          0x00000000        0x0 ./sdk/adapters/src/ad_spi.o
 .bss           0x00000000        0x0 ./sdk/adapters/src/ad_spi.o
 .debug_line    0x00000000        0x0 ./sdk/adapters/src/ad_spi.o
 .debug_str     0x00000000       0xfd ./sdk/adapters/src/ad_spi.o
 .comment       0x00000000       0x71 ./sdk/adapters/src/ad_spi.o
 .ARM.attributes
                0x00000000       0x31 ./sdk/adapters/src/ad_spi.o
 .text          0x00000000        0x0 ./sdk/adapters/src/ad_temp_sens.o
 .data          0x00000000        0x0 ./sdk/adapters/src/ad_temp_sens.o
 .bss           0x00000000        0x0 ./sdk/adapters/src/ad_temp_sens.o
 .debug_line    0x00000000        0x0 ./sdk/adapters/src/ad_temp_sens.o
 .debug_str     0x00000000      0x103 ./sdk/adapters/src/ad_temp_sens.o
 .comment       0x00000000       0x71 ./sdk/adapters/src/ad_temp_sens.o
 .ARM.attributes
                0x00000000       0x31 ./sdk/adapters/src/ad_temp_sens.o
 .text          0x00000000        0x0 ./sdk/adapters/src/ad_uart.o
 .data          0x00000000        0x0 ./sdk/adapters/src/ad_uart.o
 .bss           0x00000000        0x0 ./sdk/adapters/src/ad_uart.o
 .debug_line    0x00000000        0x0 ./sdk/adapters/src/ad_uart.o
 .debug_str     0x00000000       0xfe ./sdk/adapters/src/ad_uart.o
 .comment       0x00000000       0x71 ./sdk/adapters/src/ad_uart.o
 .ARM.attributes
                0x00000000       0x31 ./sdk/adapters/src/ad_uart.o
 .text          0x00000000        0x0 ./sdk/adapters/src/ad_uart_ble.o
 .data          0x00000000        0x0 ./sdk/adapters/src/ad_uart_ble.o
 .bss           0x00000000        0x0 ./sdk/adapters/src/ad_uart_ble.o
 .debug_line    0x00000000        0x0 ./sdk/adapters/src/ad_uart_ble.o
 .debug_str     0x00000000      0x102 ./sdk/adapters/src/ad_uart_ble.o
 .comment       0x00000000       0x71 ./sdk/adapters/src/ad_uart_ble.o
 .ARM.attributes
                0x00000000       0x31 ./sdk/adapters/src/ad_uart_ble.o
 .text          0x00000000        0x0 ./main.o
 .data          0x00000000        0x0 ./main.o
 .bss           0x00000000        0x0 ./main.o
 .text.vApplicationIdleHook
                0x00000000        0x2 ./main.o
 .text.vApplicationTickHook
                0x00000000        0x2 ./main.o
 .data          0x00000000        0x0 c:/diasemi/smartsnippetsstudio/gcc/4_9-2015q1/bin/../lib/gcc/arm-none-eabi/4.9.3/armv6-m\libgcc.a(_thumb1_case_sqi.o)
 .bss           0x00000000        0x0 c:/diasemi/smartsnippetsstudio/gcc/4_9-2015q1/bin/../lib/gcc/arm-none-eabi/4.9.3/armv6-m\libgcc.a(_thumb1_case_sqi.o)
 .data          0x00000000        0x0 c:/diasemi/smartsnippetsstudio/gcc/4_9-2015q1/bin/../lib/gcc/arm-none-eabi/4.9.3/armv6-m\libgcc.a(_thumb1_case_uqi.o)
 .bss           0x00000000        0x0 c:/diasemi/smartsnippetsstudio/gcc/4_9-2015q1/bin/../lib/gcc/arm-none-eabi/4.9.3/armv6-m\libgcc.a(_thumb1_case_uqi.o)
 .text          0x00000000       0x14 c:/diasemi/smartsnippetsstudio/gcc/4_9-2015q1/bin/../lib/gcc/arm-none-eabi/4.9.3/armv6-m\libgcc.a(_thumb1_case_shi.o)
 .data          0x00000000        0x0 c:/diasemi/smartsnippetsstudio/gcc/4_9-2015q1/bin/../lib/gcc/arm-none-eabi/4.9.3/armv6-m\libgcc.a(_thumb1_case_shi.o)
 .bss           0x00000000        0x0 c:/diasemi/smartsnippetsstudio/gcc/4_9-2015q1/bin/../lib/gcc/arm-none-eabi/4.9.3/armv6-m\libgcc.a(_thumb1_case_shi.o)
 .ARM.attributes
                0x00000000       0x1e c:/diasemi/smartsnippetsstudio/gcc/4_9-2015q1/bin/../lib/gcc/arm-none-eabi/4.9.3/armv6-m\libgcc.a(_thumb1_case_shi.o)
 .text          0x00000000      0x120 c:/diasemi/smartsnippetsstudio/gcc/4_9-2015q1/bin/../lib/gcc/arm-none-eabi/4.9.3/armv6-m\libgcc.a(_udivsi3.o)
 .data          0x00000000        0x0 c:/diasemi/smartsnippetsstudio/gcc/4_9-2015q1/bin/../lib/gcc/arm-none-eabi/4.9.3/armv6-m\libgcc.a(_udivsi3.o)
 .bss           0x00000000        0x0 c:/diasemi/smartsnippetsstudio/gcc/4_9-2015q1/bin/../lib/gcc/arm-none-eabi/4.9.3/armv6-m\libgcc.a(_udivsi3.o)
 .debug_frame   0x00000000       0x20 c:/diasemi/smartsnippetsstudio/gcc/4_9-2015q1/bin/../lib/gcc/arm-none-eabi/4.9.3/armv6-m\libgcc.a(_udivsi3.o)
 .ARM.attributes
                0x00000000       0x1e c:/diasemi/smartsnippetsstudio/gcc/4_9-2015q1/bin/../lib/gcc/arm-none-eabi/4.9.3/armv6-m\libgcc.a(_udivsi3.o)
 .text          0x00000000        0x4 c:/diasemi/smartsnippetsstudio/gcc/4_9-2015q1/bin/../lib/gcc/arm-none-eabi/4.9.3/armv6-m\libgcc.a(_dvmd_tls.o)
 .data          0x00000000        0x0 c:/diasemi/smartsnippetsstudio/gcc/4_9-2015q1/bin/../lib/gcc/arm-none-eabi/4.9.3/armv6-m\libgcc.a(_dvmd_tls.o)
 .bss           0x00000000        0x0 c:/diasemi/smartsnippetsstudio/gcc/4_9-2015q1/bin/../lib/gcc/arm-none-eabi/4.9.3/armv6-m\libgcc.a(_dvmd_tls.o)
 .ARM.attributes
                0x00000000       0x1e c:/diasemi/smartsnippetsstudio/gcc/4_9-2015q1/bin/../lib/gcc/arm-none-eabi/4.9.3/armv6-m\libgcc.a(_dvmd_tls.o)
 .text          0x00000000        0x0 c:/diasemi/smartsnippetsstudio/gcc/4_9-2015q1/bin/../lib/gcc/arm-none-eabi/4.9.3/../../../../arm-none-eabi/lib/armv6-m\libg_nano.a(lib_a-exit.o)
 .data          0x00000000        0x0 c:/diasemi/smartsnippetsstudio/gcc/4_9-2015q1/bin/../lib/gcc/arm-none-eabi/4.9.3/../../../../arm-none-eabi/lib/armv6-m\libg_nano.a(lib_a-exit.o)
 .bss           0x00000000        0x0 c:/diasemi/smartsnippetsstudio/gcc/4_9-2015q1/bin/../lib/gcc/arm-none-eabi/4.9.3/../../../../arm-none-eabi/lib/armv6-m\libg_nano.a(lib_a-exit.o)
 .text          0x00000000        0x0 c:/diasemi/smartsnippetsstudio/gcc/4_9-2015q1/bin/../lib/gcc/arm-none-eabi/4.9.3/../../../../arm-none-eabi/lib/armv6-m\libg_nano.a(lib_a-fflush.o)
 .data          0x00000000        0x0 c:/diasemi/smartsnippetsstudio/gcc/4_9-2015q1/bin/../lib/gcc/arm-none-eabi/4.9.3/../../../../arm-none-eabi/lib/armv6-m\libg_nano.a(lib_a-fflush.o)
 .bss           0x00000000        0x0 c:/diasemi/smartsnippetsstudio/gcc/4_9-2015q1/bin/../lib/gcc/arm-none-eabi/4.9.3/../../../../arm-none-eabi/lib/armv6-m\libg_nano.a(lib_a-fflush.o)
 .text          0x00000000        0x0 c:/diasemi/smartsnippetsstudio/gcc/4_9-2015q1/bin/../lib/gcc/arm-none-eabi/4.9.3/../../../../arm-none-eabi/lib/armv6-m\libg_nano.a(lib_a-findfp.o)
 .data          0x00000000        0x0 c:/diasemi/smartsnippetsstudio/gcc/4_9-2015q1/bin/../lib/gcc/arm-none-eabi/4.9.3/../../../../arm-none-eabi/lib/armv6-m\libg_nano.a(lib_a-findfp.o)
 .bss           0x00000000        0x0 c:/diasemi/smartsnippetsstudio/gcc/4_9-2015q1/bin/../lib/gcc/arm-none-eabi/4.9.3/../../../../arm-none-eabi/lib/armv6-m\libg_nano.a(lib_a-findfp.o)
 .text.__fp_lock
                0x00000000        0x4 c:/diasemi/smartsnippetsstudio/gcc/4_9-2015q1/bin/../lib/gcc/arm-none-eabi/4.9.3/../../../../arm-none-eabi/lib/armv6-m\libg_nano.a(lib_a-findfp.o)
 .text.__fp_unlock
                0x00000000        0x4 c:/diasemi/smartsnippetsstudio/gcc/4_9-2015q1/bin/../lib/gcc/arm-none-eabi/4.9.3/../../../../arm-none-eabi/lib/armv6-m\libg_nano.a(lib_a-findfp.o)
 .text._cleanup
                0x00000000       0x10 c:/diasemi/smartsnippetsstudio/gcc/4_9-2015q1/bin/../lib/gcc/arm-none-eabi/4.9.3/../../../../arm-none-eabi/lib/armv6-m\libg_nano.a(lib_a-findfp.o)
 .text.__sfp_lock_acquire
                0x00000000        0x2 c:/diasemi/smartsnippetsstudio/gcc/4_9-2015q1/bin/../lib/gcc/arm-none-eabi/4.9.3/../../../../arm-none-eabi/lib/armv6-m\libg_nano.a(lib_a-findfp.o)
 .text.__sfp_lock_release
                0x00000000        0x2 c:/diasemi/smartsnippetsstudio/gcc/4_9-2015q1/bin/../lib/gcc/arm-none-eabi/4.9.3/../../../../arm-none-eabi/lib/armv6-m\libg_nano.a(lib_a-findfp.o)
 .text.__sinit_lock_acquire
                0x00000000        0x2 c:/diasemi/smartsnippetsstudio/gcc/4_9-2015q1/bin/../lib/gcc/arm-none-eabi/4.9.3/../../../../arm-none-eabi/lib/armv6-m\libg_nano.a(lib_a-findfp.o)
 .text.__sinit_lock_release
                0x00000000        0x2 c:/diasemi/smartsnippetsstudio/gcc/4_9-2015q1/bin/../lib/gcc/arm-none-eabi/4.9.3/../../../../arm-none-eabi/lib/armv6-m\libg_nano.a(lib_a-findfp.o)
 .text.__fp_lock_all
                0x00000000       0x18 c:/diasemi/smartsnippetsstudio/gcc/4_9-2015q1/bin/../lib/gcc/arm-none-eabi/4.9.3/../../../../arm-none-eabi/lib/armv6-m\libg_nano.a(lib_a-findfp.o)
 .text.__fp_unlock_all
                0x00000000       0x18 c:/diasemi/smartsnippetsstudio/gcc/4_9-2015q1/bin/../lib/gcc/arm-none-eabi/4.9.3/../../../../arm-none-eabi/lib/armv6-m\libg_nano.a(lib_a-findfp.o)
 .text          0x00000000        0x0 c:/diasemi/smartsnippetsstudio/gcc/4_9-2015q1/bin/../lib/gcc/arm-none-eabi/4.9.3/../../../../arm-none-eabi/lib/armv6-m\libg_nano.a(lib_a-fwalk.o)
 .data          0x00000000        0x0 c:/diasemi/smartsnippetsstudio/gcc/4_9-2015q1/bin/../lib/gcc/arm-none-eabi/4.9.3/../../../../arm-none-eabi/lib/armv6-m\libg_nano.a(lib_a-fwalk.o)
 .bss           0x00000000        0x0 c:/diasemi/smartsnippetsstudio/gcc/4_9-2015q1/bin/../lib/gcc/arm-none-eabi/4.9.3/../../../../arm-none-eabi/lib/armv6-m\libg_nano.a(lib_a-fwalk.o)
 .text._fwalk   0x00000000       0x38 c:/diasemi/smartsnippetsstudio/gcc/4_9-2015q1/bin/../lib/gcc/arm-none-eabi/4.9.3/../../../../arm-none-eabi/lib/armv6-m\libg_nano.a(lib_a-fwalk.o)
 .text          0x00000000        0x0 c:/diasemi/smartsnippetsstudio/gcc/4_9-2015q1/bin/../lib/gcc/arm-none-eabi/4.9.3/../../../../arm-none-eabi/lib/armv6-m\libg_nano.a(lib_a-impure.o)
 .data          0x00000000        0x0 c:/diasemi/smartsnippetsstudio/gcc/4_9-2015q1/bin/../lib/gcc/arm-none-eabi/4.9.3/../../../../arm-none-eabi/lib/armv6-m\libg_nano.a(lib_a-impure.o)
 .bss           0x00000000        0x0 c:/diasemi/smartsnippetsstudio/gcc/4_9-2015q1/bin/../lib/gcc/arm-none-eabi/4.9.3/../../../../arm-none-eabi/lib/armv6-m\libg_nano.a(lib_a-impure.o)
 .text          0x00000000        0x0 c:/diasemi/smartsnippetsstudio/gcc/4_9-2015q1/bin/../lib/gcc/arm-none-eabi/4.9.3/../../../../arm-none-eabi/lib/armv6-m\libg_nano.a(lib_a-init.o)
 .data          0x00000000        0x0 c:/diasemi/smartsnippetsstudio/gcc/4_9-2015q1/bin/../lib/gcc/arm-none-eabi/4.9.3/../../../../arm-none-eabi/lib/armv6-m\libg_nano.a(lib_a-init.o)
 .bss           0x00000000        0x0 c:/diasemi/smartsnippetsstudio/gcc/4_9-2015q1/bin/../lib/gcc/arm-none-eabi/4.9.3/../../../../arm-none-eabi/lib/armv6-m\libg_nano.a(lib_a-init.o)
 .text          0x00000000        0x0 c:/diasemi/smartsnippetsstudio/gcc/4_9-2015q1/bin/../lib/gcc/arm-none-eabi/4.9.3/../../../../arm-none-eabi/lib/armv6-m\libg_nano.a(lib_a-malloc.o)
 .data          0x00000000        0x0 c:/diasemi/smartsnippetsstudio/gcc/4_9-2015q1/bin/../lib/gcc/arm-none-eabi/4.9.3/../../../../arm-none-eabi/lib/armv6-m\libg_nano.a(lib_a-malloc.o)
 .bss           0x00000000        0x0 c:/diasemi/smartsnippetsstudio/gcc/4_9-2015q1/bin/../lib/gcc/arm-none-eabi/4.9.3/../../../../arm-none-eabi/lib/armv6-m\libg_nano.a(lib_a-malloc.o)
 .text          0x00000000        0x0 c:/diasemi/smartsnippetsstudio/gcc/4_9-2015q1/bin/../lib/gcc/arm-none-eabi/4.9.3/../../../../arm-none-eabi/lib/armv6-m\libg_nano.a(lib_a-memcmp.o)
 .data          0x00000000        0x0 c:/diasemi/smartsnippetsstudio/gcc/4_9-2015q1/bin/../lib/gcc/arm-none-eabi/4.9.3/../../../../arm-none-eabi/lib/armv6-m\libg_nano.a(lib_a-memcmp.o)
 .bss           0x00000000        0x0 c:/diasemi/smartsnippetsstudio/gcc/4_9-2015q1/bin/../lib/gcc/arm-none-eabi/4.9.3/../../../../arm-none-eabi/lib/armv6-m\libg_nano.a(lib_a-memcmp.o)
 .text.memcmp   0x00000000       0x1e c:/diasemi/smartsnippetsstudio/gcc/4_9-2015q1/bin/../lib/gcc/arm-none-eabi/4.9.3/../../../../arm-none-eabi/lib/armv6-m\libg_nano.a(lib_a-memcmp.o)
 .debug_frame   0x00000000       0x2c c:/diasemi/smartsnippetsstudio/gcc/4_9-2015q1/bin/../lib/gcc/arm-none-eabi/4.9.3/../../../../arm-none-eabi/lib/armv6-m\libg_nano.a(lib_a-memcmp.o)
 .ARM.attributes
                0x00000000       0x2c c:/diasemi/smartsnippetsstudio/gcc/4_9-2015q1/bin/../lib/gcc/arm-none-eabi/4.9.3/../../../../arm-none-eabi/lib/armv6-m\libg_nano.a(lib_a-memcmp.o)
 .text          0x00000000        0x0 c:/diasemi/smartsnippetsstudio/gcc/4_9-2015q1/bin/../lib/gcc/arm-none-eabi/4.9.3/../../../../arm-none-eabi/lib/armv6-m\libg_nano.a(lib_a-memcpy.o)
 .data          0x00000000        0x0 c:/diasemi/smartsnippetsstudio/gcc/4_9-2015q1/bin/../lib/gcc/arm-none-eabi/4.9.3/../../../../arm-none-eabi/lib/armv6-m\libg_nano.a(lib_a-memcpy.o)
 .bss           0x00000000        0x0 c:/diasemi/smartsnippetsstudio/gcc/4_9-2015q1/bin/../lib/gcc/arm-none-eabi/4.9.3/../../../../arm-none-eabi/lib/armv6-m\libg_nano.a(lib_a-memcpy.o)
 .text          0x00000000        0x0 c:/diasemi/smartsnippetsstudio/gcc/4_9-2015q1/bin/../lib/gcc/arm-none-eabi/4.9.3/../../../../arm-none-eabi/lib/armv6-m\libg_nano.a(lib_a-memset.o)
 .data          0x00000000        0x0 c:/diasemi/smartsnippetsstudio/gcc/4_9-2015q1/bin/../lib/gcc/arm-none-eabi/4.9.3/../../../../arm-none-eabi/lib/armv6-m\libg_nano.a(lib_a-memset.o)
 .bss           0x00000000        0x0 c:/diasemi/smartsnippetsstudio/gcc/4_9-2015q1/bin/../lib/gcc/arm-none-eabi/4.9.3/../../../../arm-none-eabi/lib/armv6-m\libg_nano.a(lib_a-memset.o)
 .text          0x00000000        0x0 c:/diasemi/smartsnippetsstudio/gcc/4_9-2015q1/bin/../lib/gcc/arm-none-eabi/4.9.3/../../../../arm-none-eabi/lib/armv6-m\libg_nano.a(lib_a-nano-freer.o)
 .data          0x00000000        0x0 c:/diasemi/smartsnippetsstudio/gcc/4_9-2015q1/bin/../lib/gcc/arm-none-eabi/4.9.3/../../../../arm-none-eabi/lib/armv6-m\libg_nano.a(lib_a-nano-freer.o)
 .bss           0x00000000        0x0 c:/diasemi/smartsnippetsstudio/gcc/4_9-2015q1/bin/../lib/gcc/arm-none-eabi/4.9.3/../../../../arm-none-eabi/lib/armv6-m\libg_nano.a(lib_a-nano-freer.o)
 .text          0x00000000        0x0 c:/diasemi/smartsnippetsstudio/gcc/4_9-2015q1/bin/../lib/gcc/arm-none-eabi/4.9.3/../../../../arm-none-eabi/lib/armv6-m\libg_nano.a(lib_a-nano-mallocr.o)
 .data          0x00000000        0x0 c:/diasemi/smartsnippetsstudio/gcc/4_9-2015q1/bin/../lib/gcc/arm-none-eabi/4.9.3/../../../../arm-none-eabi/lib/armv6-m\libg_nano.a(lib_a-nano-mallocr.o)
 .bss           0x00000000        0x0 c:/diasemi/smartsnippetsstudio/gcc/4_9-2015q1/bin/../lib/gcc/arm-none-eabi/4.9.3/../../../../arm-none-eabi/lib/armv6-m\libg_nano.a(lib_a-nano-mallocr.o)
 .text          0x00000000        0x0 c:/diasemi/smartsnippetsstudio/gcc/4_9-2015q1/bin/../lib/gcc/arm-none-eabi/4.9.3/../../../../arm-none-eabi/lib/armv6-m\libg_nano.a(lib_a-putchar.o)
 .data          0x00000000        0x0 c:/diasemi/smartsnippetsstudio/gcc/4_9-2015q1/bin/../lib/gcc/arm-none-eabi/4.9.3/../../../../arm-none-eabi/lib/armv6-m\libg_nano.a(lib_a-putchar.o)
 .bss           0x00000000        0x0 c:/diasemi/smartsnippetsstudio/gcc/4_9-2015q1/bin/../lib/gcc/arm-none-eabi/4.9.3/../../../../arm-none-eabi/lib/armv6-m\libg_nano.a(lib_a-putchar.o)
 .text._putchar_r
                0x00000000       0x20 c:/diasemi/smartsnippetsstudio/gcc/4_9-2015q1/bin/../lib/gcc/arm-none-eabi/4.9.3/../../../../arm-none-eabi/lib/armv6-m\libg_nano.a(lib_a-putchar.o)
 .text          0x00000000        0x0 c:/diasemi/smartsnippetsstudio/gcc/4_9-2015q1/bin/../lib/gcc/arm-none-eabi/4.9.3/../../../../arm-none-eabi/lib/armv6-m\libg_nano.a(lib_a-sbrkr.o)
 .data          0x00000000        0x0 c:/diasemi/smartsnippetsstudio/gcc/4_9-2015q1/bin/../lib/gcc/arm-none-eabi/4.9.3/../../../../arm-none-eabi/lib/armv6-m\libg_nano.a(lib_a-sbrkr.o)
 .bss           0x00000000        0x0 c:/diasemi/smartsnippetsstudio/gcc/4_9-2015q1/bin/../lib/gcc/arm-none-eabi/4.9.3/../../../../arm-none-eabi/lib/armv6-m\libg_nano.a(lib_a-sbrkr.o)
 .text          0x00000000        0x0 c:/diasemi/smartsnippetsstudio/gcc/4_9-2015q1/bin/../lib/gcc/arm-none-eabi/4.9.3/../../../../arm-none-eabi/lib/armv6-m\libg_nano.a(lib_a-stdio.o)
 .data          0x00000000        0x0 c:/diasemi/smartsnippetsstudio/gcc/4_9-2015q1/bin/../lib/gcc/arm-none-eabi/4.9.3/../../../../arm-none-eabi/lib/armv6-m\libg_nano.a(lib_a-stdio.o)
 .bss           0x00000000        0x0 c:/diasemi/smartsnippetsstudio/gcc/4_9-2015q1/bin/../lib/gcc/arm-none-eabi/4.9.3/../../../../arm-none-eabi/lib/armv6-m\libg_nano.a(lib_a-stdio.o)
 .text.__seofread
                0x00000000        0x4 c:/diasemi/smartsnippetsstudio/gcc/4_9-2015q1/bin/../lib/gcc/arm-none-eabi/4.9.3/../../../../arm-none-eabi/lib/armv6-m\libg_nano.a(lib_a-stdio.o)
 .text          0x00000000        0x0 c:/diasemi/smartsnippetsstudio/gcc/4_9-2015q1/bin/../lib/gcc/arm-none-eabi/4.9.3/../../../../arm-none-eabi/lib/armv6-m\libg_nano.a(lib_a-writer.o)
 .data          0x00000000        0x0 c:/diasemi/smartsnippetsstudio/gcc/4_9-2015q1/bin/../lib/gcc/arm-none-eabi/4.9.3/../../../../arm-none-eabi/lib/armv6-m\libg_nano.a(lib_a-writer.o)
 .bss           0x00000000        0x0 c:/diasemi/smartsnippetsstudio/gcc/4_9-2015q1/bin/../lib/gcc/arm-none-eabi/4.9.3/../../../../arm-none-eabi/lib/armv6-m\libg_nano.a(lib_a-writer.o)
 .text          0x00000000        0x0 c:/diasemi/smartsnippetsstudio/gcc/4_9-2015q1/bin/../lib/gcc/arm-none-eabi/4.9.3/../../../../arm-none-eabi/lib/armv6-m\libg_nano.a(lib_a-closer.o)
 .data          0x00000000        0x0 c:/diasemi/smartsnippetsstudio/gcc/4_9-2015q1/bin/../lib/gcc/arm-none-eabi/4.9.3/../../../../arm-none-eabi/lib/armv6-m\libg_nano.a(lib_a-closer.o)
 .bss           0x00000000        0x0 c:/diasemi/smartsnippetsstudio/gcc/4_9-2015q1/bin/../lib/gcc/arm-none-eabi/4.9.3/../../../../arm-none-eabi/lib/armv6-m\libg_nano.a(lib_a-closer.o)
 .text          0x00000000        0x0 c:/diasemi/smartsnippetsstudio/gcc/4_9-2015q1/bin/../lib/gcc/arm-none-eabi/4.9.3/../../../../arm-none-eabi/lib/armv6-m\libg_nano.a(lib_a-lseekr.o)
 .data          0x00000000        0x0 c:/diasemi/smartsnippetsstudio/gcc/4_9-2015q1/bin/../lib/gcc/arm-none-eabi/4.9.3/../../../../arm-none-eabi/lib/armv6-m\libg_nano.a(lib_a-lseekr.o)
 .bss           0x00000000        0x0 c:/diasemi/smartsnippetsstudio/gcc/4_9-2015q1/bin/../lib/gcc/arm-none-eabi/4.9.3/../../../../arm-none-eabi/lib/armv6-m\libg_nano.a(lib_a-lseekr.o)
 .text          0x00000000        0x0 c:/diasemi/smartsnippetsstudio/gcc/4_9-2015q1/bin/../lib/gcc/arm-none-eabi/4.9.3/../../../../arm-none-eabi/lib/armv6-m\libg_nano.a(lib_a-putc.o)
 .data          0x00000000        0x0 c:/diasemi/smartsnippetsstudio/gcc/4_9-2015q1/bin/../lib/gcc/arm-none-eabi/4.9.3/../../../../arm-none-eabi/lib/armv6-m\libg_nano.a(lib_a-putc.o)
 .bss           0x00000000        0x0 c:/diasemi/smartsnippetsstudio/gcc/4_9-2015q1/bin/../lib/gcc/arm-none-eabi/4.9.3/../../../../arm-none-eabi/lib/armv6-m\libg_nano.a(lib_a-putc.o)
 .text.putc     0x00000000       0x18 c:/diasemi/smartsnippetsstudio/gcc/4_9-2015q1/bin/../lib/gcc/arm-none-eabi/4.9.3/../../../../arm-none-eabi/lib/armv6-m\libg_nano.a(lib_a-putc.o)
 .text          0x00000000        0x0 c:/diasemi/smartsnippetsstudio/gcc/4_9-2015q1/bin/../lib/gcc/arm-none-eabi/4.9.3/../../../../arm-none-eabi/lib/armv6-m\libg_nano.a(lib_a-readr.o)
 .data          0x00000000        0x0 c:/diasemi/smartsnippetsstudio/gcc/4_9-2015q1/bin/../lib/gcc/arm-none-eabi/4.9.3/../../../../arm-none-eabi/lib/armv6-m\libg_nano.a(lib_a-readr.o)
 .bss           0x00000000        0x0 c:/diasemi/smartsnippetsstudio/gcc/4_9-2015q1/bin/../lib/gcc/arm-none-eabi/4.9.3/../../../../arm-none-eabi/lib/armv6-m\libg_nano.a(lib_a-readr.o)
 .text          0x00000000        0x0 c:/diasemi/smartsnippetsstudio/gcc/4_9-2015q1/bin/../lib/gcc/arm-none-eabi/4.9.3/../../../../arm-none-eabi/lib/armv6-m\libg_nano.a(lib_a-reent.o)
 .data          0x00000000        0x0 c:/diasemi/smartsnippetsstudio/gcc/4_9-2015q1/bin/../lib/gcc/arm-none-eabi/4.9.3/../../../../arm-none-eabi/lib/armv6-m\libg_nano.a(lib_a-reent.o)
 .bss           0x00000000        0x0 c:/diasemi/smartsnippetsstudio/gcc/4_9-2015q1/bin/../lib/gcc/arm-none-eabi/4.9.3/../../../../arm-none-eabi/lib/armv6-m\libg_nano.a(lib_a-reent.o)
 .text.cleanup_glue
                0x00000000       0x1a c:/diasemi/smartsnippetsstudio/gcc/4_9-2015q1/bin/../lib/gcc/arm-none-eabi/4.9.3/../../../../arm-none-eabi/lib/armv6-m\libg_nano.a(lib_a-reent.o)
 .text._reclaim_reent
                0x00000000       0xcc c:/diasemi/smartsnippetsstudio/gcc/4_9-2015q1/bin/../lib/gcc/arm-none-eabi/4.9.3/../../../../arm-none-eabi/lib/armv6-m\libg_nano.a(lib_a-reent.o)
 .text          0x00000000        0x0 c:/diasemi/smartsnippetsstudio/gcc/4_9-2015q1/bin/../lib/gcc/arm-none-eabi/4.9.3/../../../../arm-none-eabi/lib/armv6-m\libg_nano.a(lib_a-wbuf.o)
 .data          0x00000000        0x0 c:/diasemi/smartsnippetsstudio/gcc/4_9-2015q1/bin/../lib/gcc/arm-none-eabi/4.9.3/../../../../arm-none-eabi/lib/armv6-m\libg_nano.a(lib_a-wbuf.o)
 .bss           0x00000000        0x0 c:/diasemi/smartsnippetsstudio/gcc/4_9-2015q1/bin/../lib/gcc/arm-none-eabi/4.9.3/../../../../arm-none-eabi/lib/armv6-m\libg_nano.a(lib_a-wbuf.o)
 .text.__swbuf  0x00000000       0x18 c:/diasemi/smartsnippetsstudio/gcc/4_9-2015q1/bin/../lib/gcc/arm-none-eabi/4.9.3/../../../../arm-none-eabi/lib/armv6-m\libg_nano.a(lib_a-wbuf.o)
 .text          0x00000000        0x0 c:/diasemi/smartsnippetsstudio/gcc/4_9-2015q1/bin/../lib/gcc/arm-none-eabi/4.9.3/../../../../arm-none-eabi/lib/armv6-m\libg_nano.a(lib_a-wsetup.o)
 .data          0x00000000        0x0 c:/diasemi/smartsnippetsstudio/gcc/4_9-2015q1/bin/../lib/gcc/arm-none-eabi/4.9.3/../../../../arm-none-eabi/lib/armv6-m\libg_nano.a(lib_a-wsetup.o)
 .bss           0x00000000        0x0 c:/diasemi/smartsnippetsstudio/gcc/4_9-2015q1/bin/../lib/gcc/arm-none-eabi/4.9.3/../../../../arm-none-eabi/lib/armv6-m\libg_nano.a(lib_a-wsetup.o)
 .text          0x00000000        0x0 c:/diasemi/smartsnippetsstudio/gcc/4_9-2015q1/bin/../lib/gcc/arm-none-eabi/4.9.3/../../../../arm-none-eabi/lib/armv6-m\libg_nano.a(lib_a-makebuf.o)
 .data          0x00000000        0x0 c:/diasemi/smartsnippetsstudio/gcc/4_9-2015q1/bin/../lib/gcc/arm-none-eabi/4.9.3/../../../../arm-none-eabi/lib/armv6-m\libg_nano.a(lib_a-makebuf.o)
 .bss           0x00000000        0x0 c:/diasemi/smartsnippetsstudio/gcc/4_9-2015q1/bin/../lib/gcc/arm-none-eabi/4.9.3/../../../../arm-none-eabi/lib/armv6-m\libg_nano.a(lib_a-makebuf.o)
 .text          0x00000000        0x0 c:/diasemi/smartsnippetsstudio/gcc/4_9-2015q1/bin/../lib/gcc/arm-none-eabi/4.9.3/../../../../arm-none-eabi/lib/armv6-m\libg_nano.a(lib_a-fstatr.o)
 .data          0x00000000        0x0 c:/diasemi/smartsnippetsstudio/gcc/4_9-2015q1/bin/../lib/gcc/arm-none-eabi/4.9.3/../../../../arm-none-eabi/lib/armv6-m\libg_nano.a(lib_a-fstatr.o)
 .bss           0x00000000        0x0 c:/diasemi/smartsnippetsstudio/gcc/4_9-2015q1/bin/../lib/gcc/arm-none-eabi/4.9.3/../../../../arm-none-eabi/lib/armv6-m\libg_nano.a(lib_a-fstatr.o)
 .text          0x00000000        0x0 c:/diasemi/smartsnippetsstudio/gcc/4_9-2015q1/bin/../lib/gcc/arm-none-eabi/4.9.3/../../../../arm-none-eabi/lib/armv6-m\libg_nano.a(lib_a-isattyr.o)
 .data          0x00000000        0x0 c:/diasemi/smartsnippetsstudio/gcc/4_9-2015q1/bin/../lib/gcc/arm-none-eabi/4.9.3/../../../../arm-none-eabi/lib/armv6-m\libg_nano.a(lib_a-isattyr.o)
 .bss           0x00000000        0x0 c:/diasemi/smartsnippetsstudio/gcc/4_9-2015q1/bin/../lib/gcc/arm-none-eabi/4.9.3/../../../../arm-none-eabi/lib/armv6-m\libg_nano.a(lib_a-isattyr.o)
 .text          0x00000000        0x0 c:/diasemi/smartsnippetsstudio/gcc/4_9-2015q1/bin/../lib/gcc/arm-none-eabi/4.9.3/../../../../arm-none-eabi/lib/armv6-m\libnosys.a(close.o)
 .data          0x00000000        0x0 c:/diasemi/smartsnippetsstudio/gcc/4_9-2015q1/bin/../lib/gcc/arm-none-eabi/4.9.3/../../../../arm-none-eabi/lib/armv6-m\libnosys.a(close.o)
 .bss           0x00000000        0x0 c:/diasemi/smartsnippetsstudio/gcc/4_9-2015q1/bin/../lib/gcc/arm-none-eabi/4.9.3/../../../../arm-none-eabi/lib/armv6-m\libnosys.a(close.o)
 .text          0x00000000        0x0 c:/diasemi/smartsnippetsstudio/gcc/4_9-2015q1/bin/../lib/gcc/arm-none-eabi/4.9.3/../../../../arm-none-eabi/lib/armv6-m\libnosys.a(fstat.o)
 .data          0x00000000        0x0 c:/diasemi/smartsnippetsstudio/gcc/4_9-2015q1/bin/../lib/gcc/arm-none-eabi/4.9.3/../../../../arm-none-eabi/lib/armv6-m\libnosys.a(fstat.o)
 .bss           0x00000000        0x0 c:/diasemi/smartsnippetsstudio/gcc/4_9-2015q1/bin/../lib/gcc/arm-none-eabi/4.9.3/../../../../arm-none-eabi/lib/armv6-m\libnosys.a(fstat.o)
 .text          0x00000000        0x0 c:/diasemi/smartsnippetsstudio/gcc/4_9-2015q1/bin/../lib/gcc/arm-none-eabi/4.9.3/../../../../arm-none-eabi/lib/armv6-m\libnosys.a(isatty.o)
 .data          0x00000000        0x0 c:/diasemi/smartsnippetsstudio/gcc/4_9-2015q1/bin/../lib/gcc/arm-none-eabi/4.9.3/../../../../arm-none-eabi/lib/armv6-m\libnosys.a(isatty.o)
 .bss           0x00000000        0x0 c:/diasemi/smartsnippetsstudio/gcc/4_9-2015q1/bin/../lib/gcc/arm-none-eabi/4.9.3/../../../../arm-none-eabi/lib/armv6-m\libnosys.a(isatty.o)
 .text          0x00000000        0x0 c:/diasemi/smartsnippetsstudio/gcc/4_9-2015q1/bin/../lib/gcc/arm-none-eabi/4.9.3/../../../../arm-none-eabi/lib/armv6-m\libnosys.a(lseek.o)
 .data          0x00000000        0x0 c:/diasemi/smartsnippetsstudio/gcc/4_9-2015q1/bin/../lib/gcc/arm-none-eabi/4.9.3/../../../../arm-none-eabi/lib/armv6-m\libnosys.a(lseek.o)
 .bss           0x00000000        0x0 c:/diasemi/smartsnippetsstudio/gcc/4_9-2015q1/bin/../lib/gcc/arm-none-eabi/4.9.3/../../../../arm-none-eabi/lib/armv6-m\libnosys.a(lseek.o)
 .text          0x00000000        0x0 c:/diasemi/smartsnippetsstudio/gcc/4_9-2015q1/bin/../lib/gcc/arm-none-eabi/4.9.3/../../../../arm-none-eabi/lib/armv6-m\libnosys.a(sbrk.o)
 .data          0x00000000        0x0 c:/diasemi/smartsnippetsstudio/gcc/4_9-2015q1/bin/../lib/gcc/arm-none-eabi/4.9.3/../../../../arm-none-eabi/lib/armv6-m\libnosys.a(sbrk.o)
 .bss           0x00000000        0x0 c:/diasemi/smartsnippetsstudio/gcc/4_9-2015q1/bin/../lib/gcc/arm-none-eabi/4.9.3/../../../../arm-none-eabi/lib/armv6-m\libnosys.a(sbrk.o)
 .text          0x00000000        0x0 c:/diasemi/smartsnippetsstudio/gcc/4_9-2015q1/bin/../lib/gcc/arm-none-eabi/4.9.3/../../../../arm-none-eabi/lib/armv6-m\libnosys.a(_exit.o)
 .data          0x00000000        0x0 c:/diasemi/smartsnippetsstudio/gcc/4_9-2015q1/bin/../lib/gcc/arm-none-eabi/4.9.3/../../../../arm-none-eabi/lib/armv6-m\libnosys.a(_exit.o)
 .bss           0x00000000        0x0 c:/diasemi/smartsnippetsstudio/gcc/4_9-2015q1/bin/../lib/gcc/arm-none-eabi/4.9.3/../../../../arm-none-eabi/lib/armv6-m\libnosys.a(_exit.o)
 .text          0x00000000        0x0 c:/diasemi/smartsnippetsstudio/gcc/4_9-2015q1/bin/../lib/gcc/arm-none-eabi/4.9.3/armv6-m/crtend.o
 .data          0x00000000        0x0 c:/diasemi/smartsnippetsstudio/gcc/4_9-2015q1/bin/../lib/gcc/arm-none-eabi/4.9.3/armv6-m/crtend.o
 .bss           0x00000000        0x0 c:/diasemi/smartsnippetsstudio/gcc/4_9-2015q1/bin/../lib/gcc/arm-none-eabi/4.9.3/armv6-m/crtend.o
 .text          0x00000000        0x0 c:/diasemi/smartsnippetsstudio/gcc/4_9-2015q1/bin/../lib/gcc/arm-none-eabi/4.9.3/armv6-m/crtn.o
 .data          0x00000000        0x0 c:/diasemi/smartsnippetsstudio/gcc/4_9-2015q1/bin/../lib/gcc/arm-none-eabi/4.9.3/armv6-m/crtn.o
 .bss           0x00000000        0x0 c:/diasemi/smartsnippetsstudio/gcc/4_9-2015q1/bin/../lib/gcc/arm-none-eabi/4.9.3/armv6-m/crtn.o

Memory Configuration

Name             Origin             Length             Attributes
ROM              0x08000000         0x00010000         xr
RetRAM0          0x07fc7800         0x00006000         xrw
RetRAM1          0x00000000         0x00000000         xrw
RAM              0x07fc0100         0x00007700         rw
*default*        0x00000000         0xffffffff

Linker script and memory map

LOAD c:/diasemi/smartsnippetsstudio/gcc/4_9-2015q1/bin/../lib/gcc/arm-none-eabi/4.9.3/armv6-m/crti.o
LOAD c:/diasemi/smartsnippetsstudio/gcc/4_9-2015q1/bin/../lib/gcc/arm-none-eabi/4.9.3/armv6-m/crtbegin.o
LOAD c:/diasemi/smartsnippetsstudio/gcc/4_9-2015q1/bin/../lib/gcc/arm-none-eabi/4.9.3/../../../../arm-none-eabi/lib/armv6-m/crt0.o
LOAD ./startup/config.o
LOAD ./startup/startup_ARMCM0.o
LOAD ./startup/system_ARMCM0.o
LOAD ./startup/vector_table.o
LOAD ./sdk/sys_man/sys_charger.o
LOAD ./sdk/sys_man/sys_clock_mgr.o
LOAD ./sdk/sys_man/sys_power_mgr.o
LOAD ./sdk/sys_man/sys_rtc.o
LOAD ./sdk/sys_man/sys_watchdog.o
LOAD ./sdk/peripherals/src/hw_aes_hash.o
LOAD ./sdk/peripherals/src/hw_cpm.o
LOAD ./sdk/peripherals/src/hw_dma.o
LOAD ./sdk/peripherals/src/hw_fem_sky66112-11.o
LOAD ./sdk/peripherals/src/hw_gpadc.o
LOAD ./sdk/peripherals/src/hw_gpio.o
LOAD ./sdk/peripherals/src/hw_hard_fault.o
LOAD ./sdk/peripherals/src/hw_i2c.o
LOAD ./sdk/peripherals/src/hw_irgen.o
LOAD ./sdk/peripherals/src/hw_keyboard_scanner.o
LOAD ./sdk/peripherals/src/hw_otpc.o
LOAD ./sdk/peripherals/src/hw_qspi.o
LOAD ./sdk/peripherals/src/hw_quad.o
LOAD ./sdk/peripherals/src/hw_rf.o
LOAD ./sdk/peripherals/src/hw_soc.o
LOAD ./sdk/peripherals/src/hw_spi.o
LOAD ./sdk/peripherals/src/hw_tempsens.o
LOAD ./sdk/peripherals/src/hw_timer0.o
LOAD ./sdk/peripherals/src/hw_timer1.o
LOAD ./sdk/peripherals/src/hw_timer2.o
LOAD ./sdk/peripherals/src/hw_trng.o
LOAD ./sdk/peripherals/src/hw_uart.o
LOAD ./sdk/peripherals/src/hw_usb_charger.o
LOAD ./sdk/peripherals/src/hw_watchdog.o
LOAD ./sdk/peripherals/src/hw_wkup.o
LOAD ./sdk/peripherals/src/sys_tcs.o
LOAD ./sdk/osal/msg_queues.o
LOAD ./sdk/osal/resmgmt.o
LOAD ./sdk/memory/src/qspi_automode.o
LOAD ./sdk/free_rtos/portable/MemMang/heap_4.o
LOAD ./sdk/free_rtos/portable/GCC/ARM_CM0/port.o
LOAD ./sdk/free_rtos/croutine.o
LOAD ./sdk/free_rtos/event_groups.o
LOAD ./sdk/free_rtos/list.o
LOAD ./sdk/free_rtos/queue.o
LOAD ./sdk/free_rtos/tasks.o
LOAD ./sdk/free_rtos/timers.o
LOAD ./sdk/adapters/src/ad_battery.o
LOAD ./sdk/adapters/src/ad_flash.o
LOAD ./sdk/adapters/src/ad_gpadc.o
LOAD ./sdk/adapters/src/ad_i2c.o
LOAD ./sdk/adapters/src/ad_keyboard_scanner.o
LOAD ./sdk/adapters/src/ad_nvms.o
LOAD ./sdk/adapters/src/ad_nvms_direct.o
LOAD ./sdk/adapters/src/ad_nvms_ves.o
LOAD ./sdk/adapters/src/ad_nvparam.o
LOAD ./sdk/adapters/src/ad_rf.o
LOAD ./sdk/adapters/src/ad_spi.o
LOAD ./sdk/adapters/src/ad_temp_sens.o
LOAD ./sdk/adapters/src/ad_uart.o
LOAD ./sdk/adapters/src/ad_uart_ble.o
LOAD ./main.o
START GROUP
LOAD c:/diasemi/smartsnippetsstudio/gcc/4_9-2015q1/bin/../lib/gcc/arm-none-eabi/4.9.3/armv6-m\libgcc.a
LOAD c:/diasemi/smartsnippetsstudio/gcc/4_9-2015q1/bin/../lib/gcc/arm-none-eabi/4.9.3/../../../../arm-none-eabi/lib/armv6-m\libg_nano.a
LOAD c:/diasemi/smartsnippetsstudio/gcc/4_9-2015q1/bin/../lib/gcc/arm-none-eabi/4.9.3/../../../../arm-none-eabi/lib/armv6-m\libc_nano.a
END GROUP
START GROUP
LOAD c:/diasemi/smartsnippetsstudio/gcc/4_9-2015q1/bin/../lib/gcc/arm-none-eabi/4.9.3/armv6-m\libgcc.a
LOAD c:/diasemi/smartsnippetsstudio/gcc/4_9-2015q1/bin/../lib/gcc/arm-none-eabi/4.9.3/../../../../arm-none-eabi/lib/armv6-m\libc_nano.a
LOAD c:/diasemi/smartsnippetsstudio/gcc/4_9-2015q1/bin/../lib/gcc/arm-none-eabi/4.9.3/../../../../arm-none-eabi/lib/armv6-m\libnosys.a
END GROUP
START GROUP
LOAD c:/diasemi/smartsnippetsstudio/gcc/4_9-2015q1/bin/../lib/gcc/arm-none-eabi/4.9.3/armv6-m\libgcc.a
LOAD c:/diasemi/smartsnippetsstudio/gcc/4_9-2015q1/bin/../lib/gcc/arm-none-eabi/4.9.3/../../../../arm-none-eabi/lib/armv6-m\libc_nano.a
LOAD c:/diasemi/smartsnippetsstudio/gcc/4_9-2015q1/bin/../lib/gcc/arm-none-eabi/4.9.3/../../../../arm-none-eabi/lib/armv6-m\libnosys.a
END GROUP
LOAD c:/diasemi/smartsnippetsstudio/gcc/4_9-2015q1/bin/../lib/gcc/arm-none-eabi/4.9.3/armv6-m/crtend.o
LOAD c:/diasemi/smartsnippetsstudio/gcc/4_9-2015q1/bin/../lib/gcc/arm-none-eabi/4.9.3/armv6-m/crtn.o

.text           0x08000000     0x49c8
 *(.isr_vector)
 .isr_vector    0x08000000       0xc0 ./startup/vector_table.o
                0x08000000                __isr_vector
                0x000000c0                . = 0xc0
 *(.patch_table)
 .patch_table   0x080000c0       0x40 ./startup/vector_table.o
                0x080000c0                __patch_table_start
                0x00000100                . = 0x100
 *(.patch_table_flash)
                0x00000130                . = 0x130
 *fill*         0x08000100       0x30 
 *(.default_patch_code_handler_section)
 .default_patch_code_handler_section
                0x08000130        0x4 ./startup/vector_table.o
                0x08000130                Default_Patch_Code_Handler
 *(EXCLUDE_FILE(*libgcc.a:_clzsi2.o *libgcc.a:_clzdi2.o *libgcc.a:_udivdi3.o *libgcc.a:bpabi.o *libgcc.a:_dvmd_tls.o *libgcc.a:_muldi3.o *libgcc.a:_aeabi_uldivmod.o) .text*)
 .text          0x08000134       0x60 c:/diasemi/smartsnippetsstudio/gcc/4_9-2015q1/bin/../lib/gcc/arm-none-eabi/4.9.3/armv6-m/crtbegin.o
 .text          0x08000194       0x78 c:/diasemi/smartsnippetsstudio/gcc/4_9-2015q1/bin/../lib/gcc/arm-none-eabi/4.9.3/../../../../arm-none-eabi/lib/armv6-m/crt0.o
                0x08000194                _start
                0x08000194                _mainCRTStartup
 .text.set_interrupt_priorities
                0x0800020c       0x94 ./startup/config.o
                0x0800020c                set_interrupt_priorities
 .text.retarget_init
                0x080002a0       0x24 ./startup/config.o
                0x080002a0                retarget_init
 .text._write   0x080002c4       0x2c ./startup/config.o
                0x080002c4                _write
 .text._read    0x080002f0       0x30 ./startup/config.o
                0x080002f0                _read
 .text          0x08000320       0xf0 ./startup/startup_ARMCM0.o
                0x08000320                Reset_Handler
                0x08000400                TRNG_Handler
                0x08000400                SPI_Handler
                0x08000400                SysTick_Handler
                0x08000400                RFCAL_Handler
                0x08000400                DCDC_Handler
                0x08000400                BLE_GEN_Handler
                0x08000400                SRC_IN_Handler
                0x08000400                QUADEC_Handler
                0x08000400                BLE_WAKEUP_LP_Handler
                0x08000400                MRM_Handler
                0x08000400                USB_Handler
                0x08000400                PCM_Handler
                0x08000400                IRGEN_Handler
                0x08000400                SRC_OUT_Handler
                0x08000400                I2C_Handler
                0x08000400                COEX_Handler
                0x08000400                Default_Handler
                0x08000400                SPI2_Handler
                0x08000400                I2C2_Handler
                0x08000400                RESERVED31_Handler
                0x08000400                FTDF_GEN_Handler
                0x08000400                RF_DIAG_Handler
                0x08000400                KEYBRD_Handler
                0x08000400                SWTIM0_Handler
                0x08000400                FTDF_WAKEUP_Handler
                0x0800040e                SVC_Handler
 .text.hw_otpc_init
                0x08000410       0x54 ./startup/system_ARMCM0.o
 .text.hw_cpm_set_pclk_div.constprop.1
                0x08000464       0x28 ./startup/system_ARMCM0.o
 .text.SystemInit
                0x0800048c       0xcc ./startup/system_ARMCM0.o
                0x0800048c                SystemInit
 .text.SystemInitPost
                0x08000558      0x1a0 ./startup/system_ARMCM0.o
                0x08000558                SystemInitPost
 .text.black_orca_phy_addr
                0x080006f8       0x24 ./startup/system_ARMCM0.o
                0x080006f8                black_orca_phy_addr
 .text.usb_charger_is_battery_low
                0x0800071c       0x9c ./sdk/sys_man/sys_charger.o
                0x0800071c                usb_charger_is_battery_low
 .text.hw_cpm_set_pclk_div
                0x080007b8       0x2e ./sdk/sys_man/sys_clock_mgr.o
 *fill*         0x080007e6        0x2 
 .text.vLPTimerCallback
                0x080007e8       0x54 ./sdk/sys_man/sys_clock_mgr.o
 .text.switch_to_xtal16
                0x0800083c       0x44 ./sdk/sys_man/sys_clock_mgr.o
 .text.switch_to_rc16
                0x08000880       0x20 ./sdk/sys_man/sys_clock_mgr.o
 .text.switch_to_pll
                0x080008a0       0x4c ./sdk/sys_man/sys_clock_mgr.o
 .text.cm_check_xtal_startup
                0x080008ec       0x16 ./sdk/sys_man/sys_clock_mgr.o
                0x080008ec                cm_check_xtal_startup
 *fill*         0x08000902        0x2 
 .text.cm_clk_init_low_level
                0x08000904       0x88 ./sdk/sys_man/sys_clock_mgr.o
                0x08000904                cm_clk_init_low_level
 .text.cm_apb_set_clock_divider
                0x0800098c       0x44 ./sdk/sys_man/sys_clock_mgr.o
                0x0800098c                cm_apb_set_clock_divider
 .text.cm_ahb_set_clock_divider
                0x080009d0       0xb4 ./sdk/sys_man/sys_clock_mgr.o
                0x080009d0                cm_ahb_set_clock_divider
 .text.cm_sys_clk_get_fromISR
                0x08000a84       0x40 ./sdk/sys_man/sys_clock_mgr.o
                0x08000a84                cm_sys_clk_get_fromISR
 .text.cm_apb_get_clock_divider
                0x08000ac4       0x48 ./sdk/sys_man/sys_clock_mgr.o
                0x08000ac4                cm_apb_get_clock_divider
 .text.cm_ahb_get_clock_divider
                0x08000b0c       0x50 ./sdk/sys_man/sys_clock_mgr.o
                0x08000b0c                cm_ahb_get_clock_divider
 .text.cm_cpu_clk_get_fromISR
                0x08000b5c       0x28 ./sdk/sys_man/sys_clock_mgr.o
                0x08000b5c                cm_cpu_clk_get_fromISR
 .text.cm_lp_clk_timer_start
                0x08000b84       0x2c ./sdk/sys_man/sys_clock_mgr.o
                0x08000b84                cm_lp_clk_timer_start
 .text.cm_lp_clk_init
                0x08000bb0       0x68 ./sdk/sys_man/sys_clock_mgr.o
                0x08000bb0                cm_lp_clk_init
 .text.cm_lp_clk_is_avail
                0x08000c18       0x30 ./sdk/sys_man/sys_clock_mgr.o
                0x08000c18                cm_lp_clk_is_avail
 .text.cm_lower_all_clocks
                0x08000c48       0xc0 ./sdk/sys_man/sys_clock_mgr.o
                0x08000c48                cm_lower_all_clocks
 .text.cm_sys_clk_init
                0x08000d08       0xd0 ./sdk/sys_man/sys_clock_mgr.o
                0x08000d08                cm_sys_clk_init
 .text.cm_sys_clk_sleep.part.7
                0x08000dd8       0xb8 ./sdk/sys_man/sys_clock_mgr.o
 .text.xtal16m_is_ready
                0x08000e90       0x7c ./sdk/sys_man/sys_clock_mgr.o
 .text.XTAL16RDY_Handler
                0x08000f0c       0x38 ./sdk/sys_man/sys_clock_mgr.o
                0x08000f0c                XTAL16RDY_Handler
 .text.cm_sys_clk_sleep
                0x08000f44       0x60 ./sdk/sys_man/sys_clock_mgr.o
                0x08000f44                cm_sys_clk_sleep
 .text.cm_sys_clk_wakeup
                0x08000fa4       0x1c ./sdk/sys_man/sys_clock_mgr.o
                0x08000fa4                cm_sys_clk_wakeup
 .text.cm_sys_xtal16m_running
                0x08000fc0        0xa ./sdk/sys_man/sys_clock_mgr.o
                0x08000fc0                cm_sys_xtal16m_running
 .text.hw_cpm_setup_retmem
                0x08000fca       0x2a ./sdk/sys_man/sys_power_mgr.o
 .text.pm_system_init
                0x08000ff4      0x10c ./sdk/sys_man/sys_power_mgr.o
                0x08000ff4                pm_system_init
 .text.WKUP_GPIO_Handler
                0x08001100       0x14 ./sdk/sys_man/sys_power_mgr.o
                0x08001100                WKUP_GPIO_Handler
 .text.pm_register_qspi_operation
                0x08001114       0x8c ./sdk/sys_man/sys_power_mgr.o
                0x08001114                pm_register_qspi_operation
 .text.rtc_get_fromISR
                0x080011a0       0x3c ./sdk/sys_man/sys_rtc.o
                0x080011a0                rtc_get_fromISR
 .text.hw_cpm_sysclk_is_rc16
                0x080011dc       0x12 ./sdk/peripherals/src/hw_cpm.o
                0x080011dc                hw_cpm_sysclk_is_rc16
 .text.hw_cpm_sysclk_is_xtal16m
                0x080011ee       0x10 ./sdk/peripherals/src/hw_cpm.o
                0x080011ee                hw_cpm_sysclk_is_xtal16m
 .text.hw_cpm_set_divn
                0x080011fe       0x24 ./sdk/peripherals/src/hw_cpm.o
                0x080011fe                hw_cpm_set_divn
 *fill*         0x08001222        0x2 
 .text.hw_cpm_set_sysclk
                0x08001224       0x5c ./sdk/peripherals/src/hw_cpm.o
                0x08001224                hw_cpm_set_sysclk
 .text.hw_cpm_pll_sys_on
                0x08001280       0x40 ./sdk/peripherals/src/hw_cpm.o
                0x08001280                hw_cpm_pll_sys_on
 .text.hw_cpm_pll_sys_off
                0x080012c0       0x18 ./sdk/peripherals/src/hw_cpm.o
                0x080012c0                hw_cpm_pll_sys_off
 .text.hw_cpm_dcdc_config
                0x080012d8       0x98 ./sdk/peripherals/src/hw_cpm.o
                0x080012d8                hw_cpm_dcdc_config
 .text.hw_cpm_dcdc_on
                0x08001370       0x78 ./sdk/peripherals/src/hw_cpm.o
                0x08001370                hw_cpm_dcdc_on
 .text.hw_cpm_set_preferred_values
                0x080013e8       0x38 ./sdk/peripherals/src/hw_cpm.o
                0x080013e8                hw_cpm_set_preferred_values
 .text.hw_cpm_configure_xtal32k_pins
                0x08001420       0x10 ./sdk/peripherals/src/hw_cpm.o
                0x08001420                hw_cpm_configure_xtal32k_pins
 .text.hw_dma_channel_initialization
                0x08001430      0x190 ./sdk/peripherals/src/hw_dma.o
                0x08001430                hw_dma_channel_initialization
 .text.hw_dma_channel_enable
                0x080015c0       0x48 ./sdk/peripherals/src/hw_dma.o
                0x080015c0                hw_dma_channel_enable
 .text.dma_helper
                0x08001608       0x40 ./sdk/peripherals/src/hw_dma.o
 .text.hw_dma_channel_active
                0x08001648       0x3c ./sdk/peripherals/src/hw_dma.o
                0x08001648                hw_dma_channel_active
 .text.DMA_Handler
                0x08001684       0x6c ./sdk/peripherals/src/hw_dma.o
                0x08001684                DMA_Handler
 .text.hw_gpadc_reset
                0x080016f0       0x20 ./sdk/peripherals/src/hw_gpadc.o
                0x080016f0                hw_gpadc_reset
 .text.hw_gpadc_adc_measure
                0x08001710       0x1c ./sdk/peripherals/src/hw_gpadc.o
                0x08001710                hw_gpadc_adc_measure
 .text.ADC_Handler
                0x0800172c       0x20 ./sdk/peripherals/src/hw_gpadc.o
                0x0800172c                ADC_Handler
 .text.hw_gpadc_get_raw_value
                0x0800174c       0x5c ./sdk/peripherals/src/hw_gpadc.o
                0x0800174c                hw_gpadc_get_raw_value
 .text.hw_gpio_set_pin_function
                0x080017a8       0x14 ./sdk/peripherals/src/hw_gpio.o
                0x080017a8                hw_gpio_set_pin_function
 .text.hw_otpc_disable
                0x080017bc       0x84 ./sdk/peripherals/src/hw_otpc.o
                0x080017bc                hw_otpc_disable
 .text.hw_otpc_manual_read_on
                0x08001840       0x48 ./sdk/peripherals/src/hw_otpc.o
                0x08001840                hw_otpc_manual_read_on
 .text.hw_otpc_manual_read_off
                0x08001888       0x44 ./sdk/peripherals/src/hw_otpc.o
                0x08001888                hw_otpc_manual_read_off
 .text.hw_timer1_lp_clk_init
                0x080018cc       0x48 ./sdk/peripherals/src/hw_timer1.o
                0x080018cc                hw_timer1_lp_clk_init
 .text.hw_uart_transmit_fifo_empty
                0x08001914        0xa ./sdk/peripherals/src/hw_uart.o
 .text.hw_uart_tx_dma_callback
                0x0800191e       0x14 ./sdk/peripherals/src/hw_uart.o
 *fill*         0x08001932        0x2 
 .text.hw_uart_enable_fifo
                0x08001934       0x28 ./sdk/peripherals/src/hw_uart.o
 .text.hw_uart_rx_fifo_tr_lvl_setf
                0x0800195c       0x28 ./sdk/peripherals/src/hw_uart.o
 .text.hw_uart_tx_fifo_tr_lvl_setf
                0x08001984       0x28 ./sdk/peripherals/src/hw_uart.o
 .text.hw_uart_enable_rx_int
                0x080019ac       0x34 ./sdk/peripherals/src/hw_uart.o
 .text.hw_uart_irq_stop_receive
                0x080019e0       0x50 ./sdk/peripherals/src/hw_uart.o
 .text.hw_uart_rx_isr
                0x08001a30       0x40 ./sdk/peripherals/src/hw_uart.o
 .text.hw_uart_rx_dma_callback
                0x08001a70       0x3c ./sdk/peripherals/src/hw_uart.o
 .text.hw_uart_read
                0x08001aac        0xc ./sdk/peripherals/src/hw_uart.o
                0x08001aac                hw_uart_read
 .text.hw_uart_write
                0x08001ab8        0xc ./sdk/peripherals/src/hw_uart.o
                0x08001ab8                hw_uart_write
 .text.hw_uart_write_buffer
                0x08001ac4       0x1e ./sdk/peripherals/src/hw_uart.o
                0x08001ac4                hw_uart_write_buffer
 *fill*         0x08001ae2        0x2 
 .text.hw_uart_send
                0x08001ae4       0xa0 ./sdk/peripherals/src/hw_uart.o
                0x08001ae4                hw_uart_send
 .text.UART_Interrupt_Handler
                0x08001b84       0xe8 ./sdk/peripherals/src/hw_uart.o
                0x08001b84                UART_Interrupt_Handler
 .text.UART_Handler
                0x08001c6c       0x10 ./sdk/peripherals/src/hw_uart.o
                0x08001c6c                UART_Handler
 .text.UART2_Handler
                0x08001c7c       0x10 ./sdk/peripherals/src/hw_uart.o
                0x08001c7c                UART2_Handler
 .text.hw_uart_set_dma_channels_ex
                0x08001c8c      0x174 ./sdk/peripherals/src/hw_uart.o
                0x08001c8c                hw_uart_set_dma_channels_ex
 .text.hw_uart_init
                0x08001e00      0x150 ./sdk/peripherals/src/hw_uart.o
                0x08001e00                hw_uart_init
 .text.hw_charger_check_vbus
                0x08001f50       0x20 ./sdk/peripherals/src/hw_usb_charger.o
                0x08001f50                hw_charger_check_vbus
 .text.VBUS_Handler
                0x08001f70        0x2 ./sdk/peripherals/src/hw_usb_charger.o
                0x08001f70                VBUS_Handler
 *fill*         0x08001f72        0x2 
 .text.hw_wkup_handler
                0x08001f74       0x20 ./sdk/peripherals/src/hw_wkup.o
                0x08001f74                hw_wkup_handler
 .text.sys_tcs_sort_area
                0x08001f94       0x9c ./sdk/peripherals/src/sys_tcs.o
 .text.sys_tcs_init
                0x08002030       0x20 ./sdk/peripherals/src/sys_tcs.o
                0x08002030                sys_tcs_init
 .text.sys_tcs_store_pair
                0x08002050       0xf0 ./sdk/peripherals/src/sys_tcs.o
                0x08002050                sys_tcs_store_pair
 .text.sys_tcs_sort_array
                0x08002140       0xfc ./sdk/peripherals/src/sys_tcs.o
                0x08002140                sys_tcs_sort_array
 .text.sys_tcs_apply
                0x0800223c       0x38 ./sdk/peripherals/src/sys_tcs.o
                0x0800223c                sys_tcs_apply
 .text.resource_init
                0x08002274       0x40 ./sdk/osal/resmgmt.o
                0x08002274                resource_init
 .text.prvInsertBlockIntoFreeList
                0x080022b4       0x44 ./sdk/free_rtos/portable/MemMang/heap_4.o
 .text.pvPortMalloc
                0x080022f8       0xfc ./sdk/free_rtos/portable/MemMang/heap_4.o
                0x080022f8                pvPortMalloc
 .text.vPortFree
                0x080023f4       0x4c ./sdk/free_rtos/portable/MemMang/heap_4.o
                0x080023f4                vPortFree
 .text.vPortStartFirstTask
                0x08002440       0x20 ./sdk/free_rtos/portable/GCC/ARM_CM0/port.o
 .text.prvTaskExitError
                0x08002460       0x1c ./sdk/free_rtos/portable/GCC/ARM_CM0/port.o
 .text.pxPortInitialiseStack
                0x0800247c       0x20 ./sdk/free_rtos/portable/GCC/ARM_CM0/port.o
                0x0800247c                pxPortInitialiseStack
 .text.xPortStartScheduler
                0x0800249c       0xa4 ./sdk/free_rtos/portable/GCC/ARM_CM0/port.o
                0x0800249c                xPortStartScheduler
 .text.vPortYield
                0x08002540       0x18 ./sdk/free_rtos/portable/GCC/ARM_CM0/port.o
                0x08002540                vPortYield
 .text.vPortEnterCritical
                0x08002558       0x28 ./sdk/free_rtos/portable/GCC/ARM_CM0/port.o
                0x08002558                vPortEnterCritical
 .text.vPortExitCritical
                0x08002580       0x30 ./sdk/free_rtos/portable/GCC/ARM_CM0/port.o
                0x08002580                vPortExitCritical
 .text.ulSetInterruptMaskFromISR
                0x080025b0        0xa ./sdk/free_rtos/portable/GCC/ARM_CM0/port.o
                0x080025b0                ulSetInterruptMaskFromISR
 .text.vClearInterruptMaskFromISR
                0x080025ba        0x6 ./sdk/free_rtos/portable/GCC/ARM_CM0/port.o
                0x080025ba                vClearInterruptMaskFromISR
 .text.PendSV_Handler
                0x080025c0       0x44 ./sdk/free_rtos/portable/GCC/ARM_CM0/port.o
                0x080025c0                PendSV_Handler
 .text.xPortTickAdvance
                0x08002604       0x18 ./sdk/free_rtos/portable/GCC/ARM_CM0/port.o
                0x08002604                xPortTickAdvance
 .text.prvSystemSleep
                0x0800261c       0x58 ./sdk/free_rtos/portable/GCC/ARM_CM0/port.o
                0x0800261c                prvSystemSleep
 .text.xEventGroupCreate
                0x08002674       0x18 ./sdk/free_rtos/event_groups.o
                0x08002674                xEventGroupCreate
 .text.xEventGroupClearBits
                0x0800268c       0x32 ./sdk/free_rtos/event_groups.o
                0x0800268c                xEventGroupClearBits
 .text.vEventGroupClearBitsCallback
                0x080026be        0x8 ./sdk/free_rtos/event_groups.o
                0x080026be                vEventGroupClearBitsCallback
 *fill*         0x080026c6        0x2 
 .text.xEventGroupClearBitsFromISR
                0x080026c8       0x18 ./sdk/free_rtos/event_groups.o
                0x080026c8                xEventGroupClearBitsFromISR
 .text.xEventGroupGetBitsFromISR
                0x080026e0       0x12 ./sdk/free_rtos/event_groups.o
                0x080026e0                xEventGroupGetBitsFromISR
 .text.xEventGroupSetBits
                0x080026f2       0x74 ./sdk/free_rtos/event_groups.o
                0x080026f2                xEventGroupSetBits
 .text.vEventGroupSetBitsCallback
                0x08002766        0x8 ./sdk/free_rtos/event_groups.o
                0x08002766                vEventGroupSetBitsCallback
 *fill*         0x0800276e        0x2 
 .text.xEventGroupSetBitsFromISR
                0x08002770       0x18 ./sdk/free_rtos/event_groups.o
                0x08002770                xEventGroupSetBitsFromISR
 .text.vListInitialise
                0x08002788       0x16 ./sdk/free_rtos/list.o
                0x08002788                vListInitialise
 .text.vListInitialiseItem
                0x0800279e        0x6 ./sdk/free_rtos/list.o
                0x0800279e                vListInitialiseItem
 .text.vListInsertEnd
                0x080027a4       0x18 ./sdk/free_rtos/list.o
                0x080027a4                vListInsertEnd
 .text.vListInsert
                0x080027bc       0x30 ./sdk/free_rtos/list.o
                0x080027bc                vListInsert
 .text.uxListRemove
                0x080027ec       0x20 ./sdk/free_rtos/list.o
                0x080027ec                uxListRemove
 .text.prvCopyDataToQueue
                0x0800280c       0x72 ./sdk/free_rtos/queue.o
 .text.prvNotifyQueueSetContainer
                0x0800287e       0x5c ./sdk/free_rtos/queue.o
 .text.unlikely.prvCopyDataFromQueue
                0x080028da       0x24 ./sdk/free_rtos/queue.o
 .text.prvUnlockQueue
                0x080028fe       0x7e ./sdk/free_rtos/queue.o
 .text.xQueueGenericReset
                0x0800297c       0x6a ./sdk/free_rtos/queue.o
                0x0800297c                xQueueGenericReset
 .text.xQueueGenericCreate
                0x080029e6       0x5c ./sdk/free_rtos/queue.o
                0x080029e6                xQueueGenericCreate
 .text.xQueueGenericSend
                0x08002a42      0x13a ./sdk/free_rtos/queue.o
                0x08002a42                xQueueGenericSend
 .text.xQueueCreateMutex
                0x08002b7c       0x54 ./sdk/free_rtos/queue.o
                0x08002b7c                xQueueCreateMutex
 .text.xQueueGenericSendFromISR
                0x08002bd0       0xa2 ./sdk/free_rtos/queue.o
                0x08002bd0                xQueueGenericSendFromISR
 .text.xQueueGenericReceive
                0x08002c72      0x14c ./sdk/free_rtos/queue.o
                0x08002c72                xQueueGenericReceive
 *fill*         0x08002dbe        0x2 
 .text.vQueueAddToRegistry
                0x08002dc0       0x24 ./sdk/free_rtos/queue.o
                0x08002dc0                vQueueAddToRegistry
 .text.vQueueWaitForMessageRestricted
                0x08002de4       0x3e ./sdk/free_rtos/queue.o
                0x08002de4                vQueueWaitForMessageRestricted
 *fill*         0x08002e22        0x2 
 .text.prvTaskIsTaskSuspended
                0x08002e24       0x38 ./sdk/free_rtos/tasks.o
                0x08002e24                prvTaskIsTaskSuspended
 .text.xTaskResumeFromISR
                0x08002e5c       0x74 ./sdk/free_rtos/tasks.o
                0x08002e5c                xTaskResumeFromISR
 .text.vTaskSuspendAll
                0x08002ed0       0x10 ./sdk/free_rtos/tasks.o
                0x08002ed0                vTaskSuspendAll
 .text.prvGetExpectedIdleTime
                0x08002ee0       0x2c ./sdk/free_rtos/tasks.o
                0x08002ee0                prvGetExpectedIdleTime
 .text.xTaskGetTickCount
                0x08002f0c        0xc ./sdk/free_rtos/tasks.o
                0x08002f0c                xTaskGetTickCount
 .text.vTaskStepTick
                0x08002f18       0x28 ./sdk/free_rtos/tasks.o
                0x08002f18                vTaskStepTick
 .text.vTaskSwitchContext
                0x08002f40       0xac ./sdk/free_rtos/tasks.o
                0x08002f40                vTaskSwitchContext
 .text.xTaskRemoveFromUnorderedEventList
                0x08002fec       0x6c ./sdk/free_rtos/tasks.o
                0x08002fec                xTaskRemoveFromUnorderedEventList
 .text.vTaskSetTimeOutState
                0x08003058       0x20 ./sdk/free_rtos/tasks.o
                0x08003058                vTaskSetTimeOutState
 .text.xTaskCheckForTimeOut
                0x08003078       0x60 ./sdk/free_rtos/tasks.o
                0x08003078                xTaskCheckForTimeOut
 .text.vTaskMissedYield
                0x080030d8        0xc ./sdk/free_rtos/tasks.o
                0x080030d8                vTaskMissedYield
 .text.eTaskConfirmSleepModeStatus
                0x080030e4       0x2c ./sdk/free_rtos/tasks.o
                0x080030e4                eTaskConfirmSleepModeStatus
 .text.prvInitialiseTCBVariables
                0x08003110       0x50 ./sdk/free_rtos/tasks.o
                0x08003110                prvInitialiseTCBVariables
 .text.prvInitialiseTaskLists
                0x08003160       0x58 ./sdk/free_rtos/tasks.o
                0x08003160                prvInitialiseTaskLists
 .text.prvAddCurrentTaskToDelayedList
                0x080031b8       0x40 ./sdk/free_rtos/tasks.o
                0x080031b8                prvAddCurrentTaskToDelayedList
 .text.vTaskPlaceOnEventList
                0x080031f8       0x48 ./sdk/free_rtos/tasks.o
                0x080031f8                vTaskPlaceOnEventList
 .text.vTaskPlaceOnEventListRestricted
                0x08003240       0x4c ./sdk/free_rtos/tasks.o
                0x08003240                vTaskPlaceOnEventListRestricted
 .text.prvAllocateTCBAndStack
                0x0800328c       0x36 ./sdk/free_rtos/tasks.o
                0x0800328c                prvAllocateTCBAndStack
 *fill*         0x080032c2        0x2 
 .text.xTaskGenericCreate
                0x080032c4       0xf0 ./sdk/free_rtos/tasks.o
                0x080032c4                xTaskGenericCreate
 .text.vTaskStartScheduler
                0x080033b4       0x54 ./sdk/free_rtos/tasks.o
                0x080033b4                vTaskStartScheduler
 .text.prvDeleteTCB
                0x08003408       0x12 ./sdk/free_rtos/tasks.o
                0x08003408                prvDeleteTCB
 *fill*         0x0800341a        0x2 
 .text.prvResetNextTaskUnblockTime
                0x0800341c       0x28 ./sdk/free_rtos/tasks.o
                0x0800341c                prvResetNextTaskUnblockTime
 .text.vTaskDelete
                0x08003444       0x80 ./sdk/free_rtos/tasks.o
                0x08003444                vTaskDelete
 .text.vTaskSuspend
                0x080034c4       0x84 ./sdk/free_rtos/tasks.o
                0x080034c4                vTaskSuspend
 .text.xTaskIncrementTick
                0x08003548       0xf0 ./sdk/free_rtos/tasks.o
                0x08003548                xTaskIncrementTick
 .text.xTaskResumeAll
                0x08003638       0xbc ./sdk/free_rtos/tasks.o
                0x08003638                xTaskResumeAll
 .text.vTaskDelayUntil
                0x080036f4       0x7c ./sdk/free_rtos/tasks.o
                0x080036f4                vTaskDelayUntil
 .text.prvCheckTasksWaitingTermination
                0x08003770       0x50 ./sdk/free_rtos/tasks.o
                0x08003770                prvCheckTasksWaitingTermination
 .text.prvIdleTask
                0x080037c0       0x50 ./sdk/free_rtos/tasks.o
                0x080037c0                prvIdleTask
 .text.xTaskRemoveFromEventList
                0x08003810       0x70 ./sdk/free_rtos/tasks.o
                0x08003810                xTaskRemoveFromEventList
 .text.xTaskGetCurrentTaskHandle
                0x08003880        0xc ./sdk/free_rtos/tasks.o
                0x08003880                xTaskGetCurrentTaskHandle
 .text.xTaskGetSchedulerState
                0x0800388c       0x18 ./sdk/free_rtos/tasks.o
                0x0800388c                xTaskGetSchedulerState
 .text.vTaskPriorityInherit
                0x080038a4       0x6c ./sdk/free_rtos/tasks.o
                0x080038a4                vTaskPriorityInherit
 .text.xTaskPriorityDisinherit
                0x08003910       0x64 ./sdk/free_rtos/tasks.o
                0x08003910                xTaskPriorityDisinherit
 .text.pvTaskIncrementMutexHeldCount
                0x08003974       0x18 ./sdk/free_rtos/tasks.o
                0x08003974                pvTaskIncrementMutexHeldCount
 .text.prvCheckForValidListAndQueue
                0x0800398c       0x50 ./sdk/free_rtos/timers.o
 .text.prvInsertTimerInActiveList
                0x080039dc       0x3c ./sdk/free_rtos/timers.o
 .text.xTimerCreateTimerTask
                0x08003a18       0x44 ./sdk/free_rtos/timers.o
                0x08003a18                xTimerCreateTimerTask
 .text.xTimerCreate
                0x08003a5c       0x3e ./sdk/free_rtos/timers.o
                0x08003a5c                xTimerCreate
 *fill*         0x08003a9a        0x2 
 .text.xTimerGenericCommand
                0x08003a9c       0x4c ./sdk/free_rtos/timers.o
                0x08003a9c                xTimerGenericCommand
 .text.prvSwitchTimerLists
                0x08003ae8       0x64 ./sdk/free_rtos/timers.o
 .text.prvTimerTask
                0x08003b4c      0x188 ./sdk/free_rtos/timers.o
 .text.xTimerPendFunctionCallFromISR
                0x08003cd4       0x24 ./sdk/free_rtos/timers.o
                0x08003cd4                xTimerPendFunctionCallFromISR
 .text.prvTemplateTask
                0x08003cf8       0x3c ./main.o
 .text.system_init
                0x08003d34       0x70 ./main.o
 .text.periph_init
                0x08003da4       0x1e ./main.o
 *fill*         0x08003dc2        0x2 
 .text.startup.main
                0x08003dc4       0x3c ./main.o
                0x08003dc4                main
 .text.vApplicationMallocFailedHook
                0x08003e00        0x4 ./main.o
                0x08003e00                vApplicationMallocFailedHook
 .text.vApplicationStackOverflowHook
                0x08003e04        0x4 ./main.o
                0x08003e04                vApplicationStackOverflowHook
 .text          0x08003e08       0x14 c:/diasemi/smartsnippetsstudio/gcc/4_9-2015q1/bin/../lib/gcc/arm-none-eabi/4.9.3/armv6-m\libgcc.a(_thumb1_case_sqi.o)
                0x08003e08                __gnu_thumb1_case_sqi
 .text          0x08003e1c       0x14 c:/diasemi/smartsnippetsstudio/gcc/4_9-2015q1/bin/../lib/gcc/arm-none-eabi/4.9.3/armv6-m\libgcc.a(_thumb1_case_uqi.o)
                0x08003e1c                __gnu_thumb1_case_uqi
 .text.exit     0x08003e30       0x2c c:/diasemi/smartsnippetsstudio/gcc/4_9-2015q1/bin/../lib/gcc/arm-none-eabi/4.9.3/../../../../arm-none-eabi/lib/armv6-m\libg_nano.a(lib_a-exit.o)
                0x08003e30                exit
 .text.__sflush_r
                0x08003e5c      0x112 c:/diasemi/smartsnippetsstudio/gcc/4_9-2015q1/bin/../lib/gcc/arm-none-eabi/4.9.3/../../../../arm-none-eabi/lib/armv6-m\libg_nano.a(lib_a-fflush.o)
                0x08003e5c                __sflush_r
 *fill*         0x08003f6e        0x2 
 .text._fflush_r
                0x08003f70       0x58 c:/diasemi/smartsnippetsstudio/gcc/4_9-2015q1/bin/../lib/gcc/arm-none-eabi/4.9.3/../../../../arm-none-eabi/lib/armv6-m\libg_nano.a(lib_a-fflush.o)
                0x08003f70                _fflush_r
 .text.fflush   0x08003fc8       0x28 c:/diasemi/smartsnippetsstudio/gcc/4_9-2015q1/bin/../lib/gcc/arm-none-eabi/4.9.3/../../../../arm-none-eabi/lib/armv6-m\libg_nano.a(lib_a-fflush.o)
                0x08003fc8                fflush
 .text._cleanup_r
                0x08003ff0       0x10 c:/diasemi/smartsnippetsstudio/gcc/4_9-2015q1/bin/../lib/gcc/arm-none-eabi/4.9.3/../../../../arm-none-eabi/lib/armv6-m\libg_nano.a(lib_a-findfp.o)
                0x08003ff0                _cleanup_r
 .text.std.isra.0
                0x08004000       0x48 c:/diasemi/smartsnippetsstudio/gcc/4_9-2015q1/bin/../lib/gcc/arm-none-eabi/4.9.3/../../../../arm-none-eabi/lib/armv6-m\libg_nano.a(lib_a-findfp.o)
 .text.__sfmoreglue
                0x08004048       0x2c c:/diasemi/smartsnippetsstudio/gcc/4_9-2015q1/bin/../lib/gcc/arm-none-eabi/4.9.3/../../../../arm-none-eabi/lib/armv6-m\libg_nano.a(lib_a-findfp.o)
                0x08004048                __sfmoreglue
 .text.__sinit  0x08004074       0x64 c:/diasemi/smartsnippetsstudio/gcc/4_9-2015q1/bin/../lib/gcc/arm-none-eabi/4.9.3/../../../../arm-none-eabi/lib/armv6-m\libg_nano.a(lib_a-findfp.o)
                0x08004074                __sinit
 .text.__sfp    0x080040d8       0x7c c:/diasemi/smartsnippetsstudio/gcc/4_9-2015q1/bin/../lib/gcc/arm-none-eabi/4.9.3/../../../../arm-none-eabi/lib/armv6-m\libg_nano.a(lib_a-findfp.o)
                0x080040d8                __sfp
 .text._fwalk_reent
                0x08004154       0x42 c:/diasemi/smartsnippetsstudio/gcc/4_9-2015q1/bin/../lib/gcc/arm-none-eabi/4.9.3/../../../../arm-none-eabi/lib/armv6-m\libg_nano.a(lib_a-fwalk.o)
                0x08004154                _fwalk_reent
 *fill*         0x08004196        0x2 
 .text.__libc_init_array
                0x08004198       0x4c c:/diasemi/smartsnippetsstudio/gcc/4_9-2015q1/bin/../lib/gcc/arm-none-eabi/4.9.3/../../../../arm-none-eabi/lib/armv6-m\libg_nano.a(lib_a-init.o)
                0x08004198                __libc_init_array
 .text.malloc   0x080041e4       0x14 c:/diasemi/smartsnippetsstudio/gcc/4_9-2015q1/bin/../lib/gcc/arm-none-eabi/4.9.3/../../../../arm-none-eabi/lib/armv6-m\libg_nano.a(lib_a-malloc.o)
                0x080041e4                malloc
 .text.free     0x080041f8       0x14 c:/diasemi/smartsnippetsstudio/gcc/4_9-2015q1/bin/../lib/gcc/arm-none-eabi/4.9.3/../../../../arm-none-eabi/lib/armv6-m\libg_nano.a(lib_a-malloc.o)
                0x080041f8                free
 .text.memcpy   0x0800420c       0x12 c:/diasemi/smartsnippetsstudio/gcc/4_9-2015q1/bin/../lib/gcc/arm-none-eabi/4.9.3/../../../../arm-none-eabi/lib/armv6-m\libg_nano.a(lib_a-memcpy.o)
                0x0800420c                memcpy
 .text.memset   0x0800421e       0x10 c:/diasemi/smartsnippetsstudio/gcc/4_9-2015q1/bin/../lib/gcc/arm-none-eabi/4.9.3/../../../../arm-none-eabi/lib/armv6-m\libg_nano.a(lib_a-memset.o)
                0x0800421e                memset
 *fill*         0x0800422e        0x2 
 .text._free_r  0x08004230       0x8c c:/diasemi/smartsnippetsstudio/gcc/4_9-2015q1/bin/../lib/gcc/arm-none-eabi/4.9.3/../../../../arm-none-eabi/lib/armv6-m\libg_nano.a(lib_a-nano-freer.o)
                0x08004230                _free_r
 .text._malloc_r
                0x080042bc       0xb0 c:/diasemi/smartsnippetsstudio/gcc/4_9-2015q1/bin/../lib/gcc/arm-none-eabi/4.9.3/../../../../arm-none-eabi/lib/armv6-m\libg_nano.a(lib_a-nano-mallocr.o)
                0x080042bc                _malloc_r
 .text.putchar  0x0800436c       0x28 c:/diasemi/smartsnippetsstudio/gcc/4_9-2015q1/bin/../lib/gcc/arm-none-eabi/4.9.3/../../../../arm-none-eabi/lib/armv6-m\libg_nano.a(lib_a-putchar.o)
                0x0800436c                putchar
 .text._sbrk_r  0x08004394       0x24 c:/diasemi/smartsnippetsstudio/gcc/4_9-2015q1/bin/../lib/gcc/arm-none-eabi/4.9.3/../../../../arm-none-eabi/lib/armv6-m\libg_nano.a(lib_a-sbrkr.o)
                0x08004394                _sbrk_r
 .text.__sread  0x080043b8       0x28 c:/diasemi/smartsnippetsstudio/gcc/4_9-2015q1/bin/../lib/gcc/arm-none-eabi/4.9.3/../../../../arm-none-eabi/lib/armv6-m\libg_nano.a(lib_a-stdio.o)
                0x080043b8                __sread
 .text.__swrite
                0x080043e0       0x38 c:/diasemi/smartsnippetsstudio/gcc/4_9-2015q1/bin/../lib/gcc/arm-none-eabi/4.9.3/../../../../arm-none-eabi/lib/armv6-m\libg_nano.a(lib_a-stdio.o)
                0x080043e0                __swrite
 .text.__sseek  0x08004418       0x2c c:/diasemi/smartsnippetsstudio/gcc/4_9-2015q1/bin/../lib/gcc/arm-none-eabi/4.9.3/../../../../arm-none-eabi/lib/armv6-m\libg_nano.a(lib_a-stdio.o)
                0x08004418                __sseek
 .text.__sclose
                0x08004444        0xc c:/diasemi/smartsnippetsstudio/gcc/4_9-2015q1/bin/../lib/gcc/arm-none-eabi/4.9.3/../../../../arm-none-eabi/lib/armv6-m\libg_nano.a(lib_a-stdio.o)
                0x08004444                __sclose
 .text._write_r
                0x08004450       0x28 c:/diasemi/smartsnippetsstudio/gcc/4_9-2015q1/bin/../lib/gcc/arm-none-eabi/4.9.3/../../../../arm-none-eabi/lib/armv6-m\libg_nano.a(lib_a-writer.o)
                0x08004450                _write_r
 .text._close_r
                0x08004478       0x24 c:/diasemi/smartsnippetsstudio/gcc/4_9-2015q1/bin/../lib/gcc/arm-none-eabi/4.9.3/../../../../arm-none-eabi/lib/armv6-m\libg_nano.a(lib_a-closer.o)
                0x08004478                _close_r
 .text._lseek_r
                0x0800449c       0x28 c:/diasemi/smartsnippetsstudio/gcc/4_9-2015q1/bin/../lib/gcc/arm-none-eabi/4.9.3/../../../../arm-none-eabi/lib/armv6-m\libg_nano.a(lib_a-lseekr.o)
                0x0800449c                _lseek_r
 .text._putc_r  0x080044c4       0x78 c:/diasemi/smartsnippetsstudio/gcc/4_9-2015q1/bin/../lib/gcc/arm-none-eabi/4.9.3/../../../../arm-none-eabi/lib/armv6-m\libg_nano.a(lib_a-putc.o)
                0x080044c4                _putc_r
 .text._read_r  0x0800453c       0x28 c:/diasemi/smartsnippetsstudio/gcc/4_9-2015q1/bin/../lib/gcc/arm-none-eabi/4.9.3/../../../../arm-none-eabi/lib/armv6-m\libg_nano.a(lib_a-readr.o)
                0x0800453c                _read_r
 .text.__swbuf_r
                0x08004564       0xb0 c:/diasemi/smartsnippetsstudio/gcc/4_9-2015q1/bin/../lib/gcc/arm-none-eabi/4.9.3/../../../../arm-none-eabi/lib/armv6-m\libg_nano.a(lib_a-wbuf.o)
                0x08004564                __swbuf_r
 .text.__swsetup_r
                0x08004614       0xe8 c:/diasemi/smartsnippetsstudio/gcc/4_9-2015q1/bin/../lib/gcc/arm-none-eabi/4.9.3/../../../../arm-none-eabi/lib/armv6-m\libg_nano.a(lib_a-wsetup.o)
                0x08004614                __swsetup_r
 .text.__smakebuf_r
                0x080046fc       0xb0 c:/diasemi/smartsnippetsstudio/gcc/4_9-2015q1/bin/../lib/gcc/arm-none-eabi/4.9.3/../../../../arm-none-eabi/lib/armv6-m\libg_nano.a(lib_a-makebuf.o)
                0x080046fc                __smakebuf_r
 .text._fstat_r
                0x080047ac       0x24 c:/diasemi/smartsnippetsstudio/gcc/4_9-2015q1/bin/../lib/gcc/arm-none-eabi/4.9.3/../../../../arm-none-eabi/lib/armv6-m\libg_nano.a(lib_a-fstatr.o)
                0x080047ac                _fstat_r
 .text._isatty_r
                0x080047d0       0x24 c:/diasemi/smartsnippetsstudio/gcc/4_9-2015q1/bin/../lib/gcc/arm-none-eabi/4.9.3/../../../../arm-none-eabi/lib/armv6-m\libg_nano.a(lib_a-isattyr.o)
                0x080047d0                _isatty_r
 .text._close   0x080047f4       0x10 c:/diasemi/smartsnippetsstudio/gcc/4_9-2015q1/bin/../lib/gcc/arm-none-eabi/4.9.3/../../../../arm-none-eabi/lib/armv6-m\libnosys.a(close.o)
                0x080047f4                _close
 .text._fstat   0x08004804       0x10 c:/diasemi/smartsnippetsstudio/gcc/4_9-2015q1/bin/../lib/gcc/arm-none-eabi/4.9.3/../../../../arm-none-eabi/lib/armv6-m\libnosys.a(fstat.o)
                0x08004804                _fstat
 .text._isatty  0x08004814       0x10 c:/diasemi/smartsnippetsstudio/gcc/4_9-2015q1/bin/../lib/gcc/arm-none-eabi/4.9.3/../../../../arm-none-eabi/lib/armv6-m\libnosys.a(isatty.o)
                0x08004814                _isatty
 .text._lseek   0x08004824       0x10 c:/diasemi/smartsnippetsstudio/gcc/4_9-2015q1/bin/../lib/gcc/arm-none-eabi/4.9.3/../../../../arm-none-eabi/lib/armv6-m\libnosys.a(lseek.o)
                0x08004824                _lseek
 .text._sbrk    0x08004834       0x1c c:/diasemi/smartsnippetsstudio/gcc/4_9-2015q1/bin/../lib/gcc/arm-none-eabi/4.9.3/../../../../arm-none-eabi/lib/armv6-m\libnosys.a(sbrk.o)
                0x08004834                _sbrk
 .text._exit    0x08004850        0x4 c:/diasemi/smartsnippetsstudio/gcc/4_9-2015q1/bin/../lib/gcc/arm-none-eabi/4.9.3/../../../../arm-none-eabi/lib/armv6-m\libnosys.a(_exit.o)
                0x08004850                _exit
 *(.init)
 .init          0x08004854        0x4 c:/diasemi/smartsnippetsstudio/gcc/4_9-2015q1/bin/../lib/gcc/arm-none-eabi/4.9.3/armv6-m/crti.o
                0x08004854                _init
 .init          0x08004858        0x8 c:/diasemi/smartsnippetsstudio/gcc/4_9-2015q1/bin/../lib/gcc/arm-none-eabi/4.9.3/armv6-m/crtn.o
 *(.fini)
 .fini          0x08004860        0x4 c:/diasemi/smartsnippetsstudio/gcc/4_9-2015q1/bin/../lib/gcc/arm-none-eabi/4.9.3/armv6-m/crti.o
                0x08004860                _fini
 .fini          0x08004864        0x8 c:/diasemi/smartsnippetsstudio/gcc/4_9-2015q1/bin/../lib/gcc/arm-none-eabi/4.9.3/armv6-m/crtn.o
 *crtbegin.o(.ctors)
 *crtbegin?.o(.ctors)
 *(EXCLUDE_FILE(*crtend.o *crtend?.o) .ctors)
 *(SORT(.ctors.*))
 *(.ctors)
 *crtbegin.o(.dtors)
 *crtbegin?.o(.dtors)
 *(EXCLUDE_FILE(*crtend.o *crtend?.o) .dtors)
 *(SORT(.dtors.*))
 *(.dtors)
                0x0800486c                . = ALIGN (0x4)
                0x0800486c                PROVIDE (__preinit_array_start, .)
 *(.preinit_array)
                0x0800486c                PROVIDE (__preinit_array_end, .)
                0x0800486c                . = ALIGN (0x4)
                0x0800486c                PROVIDE (__init_array_start, .)
 *(SORT(.init_array.*))
 *(.init_array)
 .init_array    0x0800486c        0x4 c:/diasemi/smartsnippetsstudio/gcc/4_9-2015q1/bin/../lib/gcc/arm-none-eabi/4.9.3/armv6-m/crtbegin.o
                0x08004870                PROVIDE (__init_array_end, .)
                0x08004870                . = ALIGN (0x4)
                0x08004870                PROVIDE (__fini_array_start, .)
 *(SORT(.fini_array.*))
 *(.fini_array)
 .fini_array    0x08004870        0x4 c:/diasemi/smartsnippetsstudio/gcc/4_9-2015q1/bin/../lib/gcc/arm-none-eabi/4.9.3/armv6-m/crtbegin.o
                0x08004874                PROVIDE (__fini_array_end, .)
 *(.rodata*)
 .rodata.__dialog_interrupt_priorities
                0x08004874       0x27 ./startup/config.o
                0x08004874                __dialog_interrupt_priorities
 *fill*         0x0800489b        0x1 
 .rodata.remap.8011
                0x0800489c       0x20 ./startup/system_ARMCM0.o
 .rodata.str1.1
                0x080048bc        0x6 ./sdk/sys_man/sys_clock_mgr.o
 *fill*         0x080048c2        0x2 
 .rodata.tim1   0x080048c4       0x2c ./sdk/peripherals/src/hw_otpc.o
                0x080048c4                tim1
 .rodata.tim2   0x080048f0        0xb ./sdk/peripherals/src/hw_otpc.o
 *fill*         0x080048fb        0x1 
 .rodata.uncalibrated_tcs_data
                0x080048fc       0x28 ./sdk/peripherals/src/sys_tcs.o
 .rodata        0x08004924       0x14 ./sdk/free_rtos/tasks.o
 .rodata.str1.1
                0x08004938        0x5 ./sdk/free_rtos/tasks.o
 .rodata.str1.1
                0x0800493d        0xd ./sdk/free_rtos/timers.o
 .rodata.str1.1
                0x0800494a       0x11 ./main.o
 *fill*         0x0800495b        0x1 
 .rodata.__sf_fake_stdin
                0x0800495c       0x20 c:/diasemi/smartsnippetsstudio/gcc/4_9-2015q1/bin/../lib/gcc/arm-none-eabi/4.9.3/../../../../arm-none-eabi/lib/armv6-m\libg_nano.a(lib_a-findfp.o)
                0x0800495c                __sf_fake_stdin
 .rodata.__sf_fake_stdout
                0x0800497c       0x20 c:/diasemi/smartsnippetsstudio/gcc/4_9-2015q1/bin/../lib/gcc/arm-none-eabi/4.9.3/../../../../arm-none-eabi/lib/armv6-m\libg_nano.a(lib_a-findfp.o)
                0x0800497c                __sf_fake_stdout
 .rodata.__sf_fake_stderr
                0x0800499c       0x20 c:/diasemi/smartsnippetsstudio/gcc/4_9-2015q1/bin/../lib/gcc/arm-none-eabi/4.9.3/../../../../arm-none-eabi/lib/armv6-m\libg_nano.a(lib_a-findfp.o)
                0x0800499c                __sf_fake_stderr
 .rodata.str1.1
                0x080049bc        0x2 c:/diasemi/smartsnippetsstudio/gcc/4_9-2015q1/bin/../lib/gcc/arm-none-eabi/4.9.3/../../../../arm-none-eabi/lib/armv6-m\libg_nano.a(lib_a-impure.o)
 *fill*         0x080049be        0x2 
 .rodata._global_impure_ptr
                0x080049c0        0x4 c:/diasemi/smartsnippetsstudio/gcc/4_9-2015q1/bin/../lib/gcc/arm-none-eabi/4.9.3/../../../../arm-none-eabi/lib/armv6-m\libg_nano.a(lib_a-impure.o)
                0x080049c0                _global_impure_ptr
 *(.eh_frame*)
 .eh_frame      0x080049c4        0x0 c:/diasemi/smartsnippetsstudio/gcc/4_9-2015q1/bin/../lib/gcc/arm-none-eabi/4.9.3/armv6-m/crtbegin.o
 .eh_frame      0x080049c4        0x4 c:/diasemi/smartsnippetsstudio/gcc/4_9-2015q1/bin/../lib/gcc/arm-none-eabi/4.9.3/armv6-m/crtend.o

.glue_7         0x080049c8        0x0
 .glue_7        0x00000000        0x0 linker stubs

.glue_7t        0x080049c8        0x0
 .glue_7t       0x00000000        0x0 linker stubs

.vfp11_veneer   0x080049c8        0x0
 .vfp11_veneer  0x00000000        0x0 linker stubs

.v4_bx          0x080049c8        0x0
 .v4_bx         0x00000000        0x0 linker stubs

.iplt           0x080049c8        0x0
 .iplt          0x00000000        0x0 c:/diasemi/smartsnippetsstudio/gcc/4_9-2015q1/bin/../lib/gcc/arm-none-eabi/4.9.3/armv6-m/crtbegin.o

.ARM.extab
 *(.ARM.extab* .gnu.linkonce.armextab.*)
                0x080049c8                __exidx_start = .

.ARM.exidx      0x080049c8        0x8
 *(.ARM.exidx* .gnu.linkonce.armexidx.*)
 .ARM.exidx     0x080049c8        0x8 c:/diasemi/smartsnippetsstudio/gcc/4_9-2015q1/bin/../lib/gcc/arm-none-eabi/4.9.3/../../../../arm-none-eabi/lib/armv6-m/crt0.o
                0x080049d0                __exidx_end = .

.rel.dyn        0x080049d0        0x0
 .rel.iplt      0x00000000        0x0 c:/diasemi/smartsnippetsstudio/gcc/4_9-2015q1/bin/../lib/gcc/arm-none-eabi/4.9.3/armv6-m/crtbegin.o

.copy.table     0x080049d0       0x18
                0x080049d0                . = ALIGN (0x4)
                0x080049d0                __copy_table_start__ = .
                0x080049d0        0x4 LONG 0x8004a68 (__etext + (__data_end__ - __data_start__))
                0x080049d4        0x4 LONG 0x7fc7800 __RetRAM0_code_start__
                0x080049d8        0x4 LONG 0x1588 (__RetRAM0_code_end__ - __RetRAM0_code_start__)
                0x080049dc        0x4 LONG 0x8004a00 __etext
                0x080049e0        0x4 LONG 0x7fc0100 __data_start__
                0x080049e4        0x4 LONG 0x68 (__data_end__ - __data_start__)
                0x080049e8                __copy_table_end__ = .

.zero.table     0x080049e8       0x18
                0x080049e8                . = ALIGN (0x4)
                0x080049e8                __zero_table_start__ = .
                0x080049e8        0x4 LONG 0x7fc0168 __bss_start__
                0x080049ec        0x4 LONG 0x130 (__bss_end__ - __bss_start__)
                0x080049f0        0x4 LONG 0x7fc8e54 __RetRAM0_data_start
                0x080049f4        0x4 LONG 0x49ac __RetRAM0_size
                0x080049f8        0x4 LONG 0x0 __RetRAM1_start__
                0x080049fc        0x4 LONG 0x0 (__RetRAM1_end__ - __RetRAM1_start__)
                0x08004a00                __zero_table_end__ = .
                0x08004a00                __etext = .

.data           0x07fc0100       0x68 load address 0x08004a00
                0x07fc0100                __data_start__ = .
 *(vtable)
 *(.data*)
 .data.impure_data
                0x07fc0100       0x60 c:/diasemi/smartsnippetsstudio/gcc/4_9-2015q1/bin/../lib/gcc/arm-none-eabi/4.9.3/../../../../arm-none-eabi/lib/armv6-m\libg_nano.a(lib_a-impure.o)
 .data._impure_ptr
                0x07fc0160        0x4 c:/diasemi/smartsnippetsstudio/gcc/4_9-2015q1/bin/../lib/gcc/arm-none-eabi/4.9.3/../../../../arm-none-eabi/lib/armv6-m\libg_nano.a(lib_a-impure.o)
                0x07fc0160                _impure_ptr
                0x07fc0164                . = ALIGN (0x4)
 *(.jcr*)
 .jcr           0x07fc0164        0x0 c:/diasemi/smartsnippetsstudio/gcc/4_9-2015q1/bin/../lib/gcc/arm-none-eabi/4.9.3/armv6-m/crtbegin.o
 .jcr           0x07fc0164        0x4 c:/diasemi/smartsnippetsstudio/gcc/4_9-2015q1/bin/../lib/gcc/arm-none-eabi/4.9.3/armv6-m/crtend.o
                0x07fc0168                . = ALIGN (0x4)
                0x07fc0168                __data_end__ = .

.igot.plt       0x07fc0168        0x0 load address 0x08004a68
 .igot.plt      0x00000000        0x0 c:/diasemi/smartsnippetsstudio/gcc/4_9-2015q1/bin/../lib/gcc/arm-none-eabi/4.9.3/armv6-m/crtbegin.o

.bss            0x07fc0168      0x130 load address 0x08004a68
                0x07fc0168                . = ALIGN (0x4)
                0x07fc0168                __bss_start__ = .
 *(.bss*)
 .bss           0x07fc0168       0x1c c:/diasemi/smartsnippetsstudio/gcc/4_9-2015q1/bin/../lib/gcc/arm-none-eabi/4.9.3/armv6-m/crtbegin.o
 .bss.cm_ahb_clk_next
                0x07fc0184        0x1 ./sdk/sys_man/sys_clock_mgr.o
 .bss.cm_rcx_calibration_is_on
                0x07fc0185        0x1 ./sdk/sys_man/sys_clock_mgr.o
                0x07fc0185                cm_rcx_calibration_is_on
 .bss.cm_xtal16m_settled
                0x07fc0186        0x1 ./sdk/sys_man/sys_clock_mgr.o
 .bss.cm_sys_clk_next
                0x07fc0187        0x1 ./sdk/sys_man/sys_clock_mgr.o
 .bss.sleep_is_blocked
                0x07fc0188        0x1 ./sdk/sys_man/sys_power_mgr.o
 *fill*         0x07fc0189        0x3 
 .bss.sleep_blocked_until
                0x07fc018c        0x4 ./sdk/sys_man/sys_power_mgr.o
 .bss.dma_callbacks_user_data
                0x07fc0190       0x40 ./sdk/peripherals/src/hw_dma.o
 .bss.intr_cb   0x07fc01d0        0x4 ./sdk/peripherals/src/hw_gpadc.o
 .bss.free_list
                0x07fc01d4        0x4 ./sdk/osal/resmgmt.o
 .bss.requests  0x07fc01d8       0xa0 ./sdk/osal/resmgmt.o
 .bss.waiting_list
                0x07fc0278        0x4 ./sdk/osal/resmgmt.o
 .bss.test_counter.8306
                0x07fc027c        0x4 ./main.o
 .bss.xHandle   0x07fc0280        0x4 ./main.o
 .bss.__malloc_sbrk_start
                0x07fc0284        0x4 c:/diasemi/smartsnippetsstudio/gcc/4_9-2015q1/bin/../lib/gcc/arm-none-eabi/4.9.3/../../../../arm-none-eabi/lib/armv6-m\libg_nano.a(lib_a-nano-mallocr.o)
                0x07fc0284                __malloc_sbrk_start
 .bss.__malloc_free_list
                0x07fc0288        0x4 c:/diasemi/smartsnippetsstudio/gcc/4_9-2015q1/bin/../lib/gcc/arm-none-eabi/4.9.3/../../../../arm-none-eabi/lib/armv6-m\libg_nano.a(lib_a-nano-mallocr.o)
                0x07fc0288                __malloc_free_list
 .bss.heap_end.4079
                0x07fc028c        0x4 c:/diasemi/smartsnippetsstudio/gcc/4_9-2015q1/bin/../lib/gcc/arm-none-eabi/4.9.3/../../../../arm-none-eabi/lib/armv6-m\libnosys.a(sbrk.o)
 *(COMMON)
 COMMON         0x07fc0290        0x4 ./sdk/sys_man/sys_power_mgr.o
                0x07fc0290                ulTimeSpentSleepingInTicks
 COMMON         0x07fc0294        0x4 c:/diasemi/smartsnippetsstudio/gcc/4_9-2015q1/bin/../lib/gcc/arm-none-eabi/4.9.3/../../../../arm-none-eabi/lib/armv6-m\libg_nano.a(lib_a-reent.o)
                0x07fc0294                errno
                0x07fc0298                . = ALIGN (0x4)
                0x07fc0298                __bss_end__ = .

.heap           0x07fc0298      0x600
                0x07fc0298                __end__ = .
                0x07fc0298                PROVIDE (end, .)
 *(.heap*)
 .heap          0x07fc0298      0x600 ./startup/vector_table.o
                0x07fc0298                __HeapBase
                0x07fc0898                __HeapLimit = .

.stack_dummy    0x07fc0298      0x100
 *(.stack*)
 .stack         0x07fc0298      0x100 ./startup/vector_table.o
                0x07fc7800                __StackTop = (ORIGIN (RAM) + 0x7700)
                0x07fc7700                __StackLimit = (__StackTop - SIZEOF (.stack_dummy))
                0x07fc7800                PROVIDE (__stack, __StackTop)
                0x00000001                ASSERT ((__StackLimit >= __HeapLimit), region RAM overflowed with stack)

RETENTION_ROM0  0x07fc7800     0x1588 load address 0x08004a68
                0x07fc7800                . = ALIGN (0x4)
                0x07fc7800                __RetRAM0_code_start__ = .
 *(text_retained)
 text_retained  0x07fc7800       0x7c ./startup/startup_ARMCM0.o
                0x07fc7800                NMI_Handler
                0x07fc7816                HardFault_Handler
 text_retained  0x07fc787c       0x4c ./startup/system_ARMCM0.o
 text_retained  0x07fc78c8      0x26c ./sdk/sys_man/sys_clock_mgr.o
                0x07fc79a4                cm_calibrate_rcx_start
                0x07fc79bc                cm_rcx_us_2_lpcycles
                0x07fc79ec                cm_lp_clk_is_avail_fromISR
                0x07fc7a18                cm_restore_all_clocks
                0x07fc7a90                cm_poll_xtal16m_ready
                0x07fc7a9c                cm_halt_until_xtal16m_ready
 text_retained  0x07fc7b34      0x99c ./sdk/sys_man/sys_power_mgr.o
                0x07fc800c                pm_advance_time
                0x07fc8020                SWTIM1_Handler
                0x07fc8074                pm_system_wake_up
                0x07fc81f4                pm_execute_active_wfi
                0x07fc8280                pm_sleep_enter
                0x07fc8490                pm_process_completed_qspi_operations
 text_retained  0x07fc84d0       0x34 ./sdk/sys_man/sys_rtc.o
                0x07fc84d0                rtc_get_fromCPM
 text_retained  0x07fc8504      0x148 ./sdk/peripherals/src/hw_cpm.o
                0x07fc8504                hw_cpm_start_calibration
                0x07fc8540                hw_cpm_reset_system
                0x07fc8558                hw_cpm_reboot_system
                0x07fc8574                hw_cpm_assert_trigger_gpio
                0x07fc8576                hw_cpm_activate_bod_protection
                0x07fc85a0                hw_cpm_delay_usec
 text_retained  0x07fc864c       0xd4 ./sdk/peripherals/src/hw_hard_fault.o
                0x07fc864c                HardFault_HandlerC
 text_retained  0x07fc8720       0xfc ./sdk/peripherals/src/hw_otpc.o
                0x07fc8720                hw_otpc_convert_sys_clk_mhz
                0x07fc87b8                hw_otpc_set_speed
 text_retained  0x07fc881c      0x13c ./sdk/peripherals/src/hw_watchdog.o
                0x07fc881c                hw_watchdog_freeze
                0x07fc8834                hw_watchdog_unfreeze
                0x07fc8840                hw_watchdog_unregister_int
                0x07fc884c                hw_watchdog_handle_int
                0x07fc8940                NMI_HandlerC
 text_retained  0x07fc8958      0x420 ./sdk/memory/src/qspi_automode.o
                0x07fc8b18                flash_activate_command_entry_mode
                0x07fc8b4c                flash_deactivate_command_entry_mode
                0x07fc8bf8                flash_erase_sector_manual_mode
                0x07fc8c1c                flash_program_page_manual_mode
                0x07fc8c24                qspi_check_program_erase_in_progress
                0x07fc8c30                qspi_check_and_suspend
                0x07fc8c6e                qspi_resume
                0x07fc8c8e                qspi_automode_init
 *libgcc.a:_aeabi_uldivmod.o(.text*)
 *libgcc.a:_muldi3.o(.text*)
 *libgcc.a:_dvmd_tls.o(.text*)
 *libgcc.a:bpabi.o(.text*)
 *libgcc.a:_udivdi3.o(.text*)
 *libgcc.a:_clzdi2.o(.text*)
 *libgcc.a:_clzsi2.o(.text*)
                0x07fc8d78                . = ALIGN (0x4)
 *(retention_mem_rw)
 retention_mem_rw
                0x07fc8d78        0x5 ./sdk/peripherals/src/hw_qspi.o
                0x07fc8d78                dummy_num
 *(privileged_data_rw)
 *fill*         0x07fc8d7d        0x3 
 privileged_data_rw
                0x07fc8d80        0x4 ./sdk/free_rtos/portable/GCC/ARM_CM0/port.o
 privileged_data_rw
                0x07fc8d84        0x4 ./sdk/free_rtos/tasks.o
                0x07fc8d84                xNextTaskUnblockTime
 *(.retention)
                0x07fc8d88                . = ALIGN (0x4)
                0x07fc8d88                __RetRAM0_code_end__ = .
                0x07fc8d88                . = ALIGN (0x4)

RETENTION_RAM0  0x07fc8d88     0x3ae0 load address 0x08005ff0
                0x07fc8d88                . = ALIGN (0x4)
                0x07fc8d88                __RetRAM0_start = .
 *(nmi_info)
 *(hard_fault_info)
 *(retention_mem_uninit)
 retention_mem_uninit
                0x07fc8d88        0x2 ./sdk/peripherals/src/hw_cpm.o
                0x07fc8d88                hw_cpm_bod_enabled_in_tcs
 *fill*         0x07fc8d8a        0x2 
 retention_mem_uninit
                0x07fc8d8c       0xc8 ./sdk/peripherals/src/sys_tcs.o
                0x07fc8d8c                tcs_length
                0x07fc8d90                tcs_data
                0x07fc8e50                sys_tcs_is_calibrated_chip
                0x07fc8e54                . = ALIGN (0x4)
                0x07fc8e54                __RetRAM0_data_start = .
 *(privileged_data_zi)
 privileged_data_zi
                0x07fc8e54       0x28 ./sdk/sys_man/sys_clock_mgr.o
                0x07fc8e54                cm_ahbclk
                0x07fc8e55                cm_sysclk
                0x07fc8e68                xRCXCalibTaskHandle
                0x07fc8e6c                rcx_clock_period
                0x07fc8e70                ble_slot_duration_in_rcx
                0x07fc8e74                rcx_tick_rate_hz
                0x07fc8e76                rcx_tick_period
                0x07fc8e78                rcx_clock_hz
 *fill*         0x07fc8e7c        0x4 
 privileged_data_zi
                0x07fc8e80       0x68 ./sdk/sys_man/sys_power_mgr.o
                0x07fc8e88                lp_last_trigger
                0x07fc8e90                pm_wakeup_xtal16m_time
                0x07fc8e9c                pm_adapters_cb
                0x07fc8ee0                pm_mac_wakeup_time
 privileged_data_zi
                0x07fc8ee8        0x8 ./sdk/sys_man/sys_rtc.o
 privileged_data_zi
                0x07fc8ef0       0x18 ./sdk/free_rtos/portable/MemMang/heap_4.o
 privileged_data_zi
                0x07fc8f08        0x4 ./sdk/free_rtos/portable/GCC/ARM_CM0/port.o
 privileged_data_zi
                0x07fc8f0c       0x40 ./sdk/free_rtos/queue.o
                0x07fc8f0c                xQueueRegistry
 privileged_data_zi
                0x07fc8f4c      0x128 ./sdk/free_rtos/tasks.o
                0x07fc8f4c                pxCurrentTCB
                0x07fc8f50                pxDelayedTaskList
                0x07fc8f54                pxOverflowDelayedTaskList
                0x07fc8f58                xSuspendedTaskList
                0x07fc8f6c                xTasksWaitingTermination
                0x07fc8f80                pxReadyTasksLists
                0x07fc900c                uxTopReadyPriority
                0x07fc9010                xPendingReadyList
                0x07fc9024                uxSchedulerSuspended
                0x07fc9028                xSchedulerRunning
                0x07fc902c                xTickCount
                0x07fc9030                uxCurrentNumberOfTasks
                0x07fc9034                xIdleTaskHandle
                0x07fc9038                xYieldPending
                0x07fc903c                xNumOfOverflows
                0x07fc9040                xDelayedTaskList1
                0x07fc9054                xDelayedTaskList2
                0x07fc9068                uxTaskNumber
                0x07fc906c                uxTasksDeleted
                0x07fc9070                uxPendedTicks
 privileged_data_zi
                0x07fc9074       0x38 ./sdk/free_rtos/timers.o
 *(retention_mem_zi)
 retention_mem_zi
                0x07fc90ac        0x8 ./startup/system_ARMCM0.o
                0x07fc90ac                SystemCoreClock
                0x07fc90b0                SystemLPClock
 retention_mem_zi
                0x07fc90b4        0x4 ./sdk/peripherals/src/hw_gpadc.o
                0x07fc90b4                hw_gpadc_single_ended_gain_error
                0x07fc90b6                hw_gpadc_differential_gain_error
 retention_mem_zi
                0x07fc90b8       0xe8 ./sdk/peripherals/src/hw_uart.o
 retention_mem_zi
                0x07fc91a0        0x4 ./sdk/peripherals/src/hw_watchdog.o
 retention_mem_zi
                0x07fc91a4        0x4 ./sdk/peripherals/src/hw_wkup.o
 retention_mem_zi
                0x07fc91a8       0x10 ./sdk/peripherals/src/sys_tcs.o
                0x07fc91a8                sys_tcs_xtal16m_settling_time
                0x07fc91aa                area_offset
                0x07fc91ae                area_size
                0x07fc91b4                tcs_ptr
 *(os_heap)
 os_heap        0x07fc91b8     0x36b0 ./sdk/free_rtos/portable/MemMang/heap_4.o
 *(ble_msg_heap)
 *(ble_env_heap)
 *(ble_db_heap)
                0x07fcc868                . = ALIGN (0x4)
                0x07fcc868                __RetRAM0_data_end__ = .

RETENTION_RAM1  0x00000000        0x0
                0x00000000                . = ALIGN (0x4)
                0x00000000                __RetRAM1_start__ = .
                0x00000000                . = ALIGN (0x4)
                0x00000000                __RetRAM1_end__ = .

RETENTION_BLE
 *(ble_variables)
                0x000049ac                __RetRAM0_size = (0x6000 - (__RetRAM0_data_start - __RetRAM0_code_start__))
                0x00005ff0                __image_size = (((__etext + (__data_end__ - __data_start__)) + (__RetRAM0_code_end__ - __RetRAM0_code_start__)) - ORIGIN (ROM))
                0x00004a68                __mirrored_image_size = ((__etext + (__data_end__ - __data_start__)) - ORIGIN (ROM))
                0x00000001                ASSERT (((ORIGIN (RAM) + 0x7700) < 0x7fdc000), ROM variables region (starting at 0x07FDC000) overflowed by RAM)
                0x00000001                ASSERT ((__RetRAM0_data_end__ < 0x7fdc000), ROM variables region (starting at 0x07FDC000) overflowed by RetRAM0)
                0x07f0287d                set_system_clocks = 0x7f0287d
                0x07f02899                set_peripheral_clocks = 0x7f02899
                0x07f028d3                rf_workaround_init = 0x7f028d3
                0x07f028d5                get_stack_usage = 0x7f028d5
                0x07f02913                rwip_eif_get_func = 0x7f02913
                0x07f02923                rwip_set_em_base = 0x7f02923
                0x07f02929                platform_initialization = 0x7f02929
                0x07f029e1                ble_init = 0x7f029e1
                0x07f02a53                ble_regs_push = 0x7f02a53
                0x07f02aab                ble_regs_pop = 0x7f02aab
                0x07f02b01                platform_sleep = 0x7f02b01
                0x07f02e19                smpc_check_param = 0x7f02e19
                0x07f02e23                smpc_pdu_recv = 0x7f02e23
                0x07f02e2d                lld_sleep_compensate = 0x7f02e2d
                0x07f02e37                lld_sleep_init = 0x7f02e37
                0x07f02e41                lld_sleep_us_2_lpcycles = 0x7f02e41
                0x07f02e4b                lld_sleep_lpcycles_2_us = 0x7f02e4b
                0x07f02e55                uart_flow_off = 0x7f02e55
                0x07f02e5d                uart_finish_transfers = 0x7f02e5d
                0x07f02e65                uart_read = 0x7f02e65
                0x07f02e6d                uart_write = 0x7f02e6d
                0x07f02e7d                uart_init = 0x7f02e7d
                0x07f02e85                uart_flow_on = 0x7f02e85
                0x07f02e8d                gtl_init = 0x7f02e8d
                0x07f02e95                gtl_eif_init = 0x7f02e95
                0x07f02e9d                gtl_eif_read_start = 0x7f02e9d
                0x07f02ea5                gtl_eif_read_hdr = 0x7f02ea5
                0x07f02ead                gtl_eif_read_payl = 0x7f02ead
                0x07f02eb5                gtl_eif_tx_done = 0x7f02eb5
                0x07f02ebd                gtl_eif_rx_done = 0x7f02ebd
                0x07f02ec5                h4tl_init = 0x7f02ec5
                0x07f02ecd                h4tl_read_start = 0x7f02ecd
                0x07f02ed5                h4tl_read_hdr = 0x7f02ed5
                0x07f02edd                h4tl_read_payl = 0x7f02edd
                0x07f02ee5                h4tl_read_next_out_of_sync = 0x7f02ee5
                0x07f02eed                h4tl_out_of_sync = 0x7f02eed
                0x07f02ef5                h4tl_tx_done = 0x7f02ef5
                0x07f02efd                h4tl_rx_done = 0x7f02efd
                0x07f02f05                ke_task_init = 0x7f02f05
                0x07f02f0d                ke_timer_init = 0x7f02f0d
                0x07f02f15                llm_encryption_done = 0x7f02f15
                0x07f02f1d                nvds_get = 0x7f02f1d
                0x07f02f25                nvds_del = 0x7f02f25
                0x07f02f2d                nvds_put = 0x7f02f2d
                0x07f02f35                rwip_eif_get = 0x7f02f35
                0x07f02f3d                platform_reset = 0x7f02f3d
                0x07f02f47                lld_test_stop = 0x7f02f47
                0x07f02f51                lld_test_mode_tx = 0x7f02f51
                0x07f02f5b                lld_test_mode_rx = 0x7f02f5b
                0x07f02f65                prf_init = 0x7f02f65
                0x07f02f6f                prf_add_profile = 0x7f02f6f
                0x07f02f79                prf_create = 0x7f02f79
                0x07f02f83                prf_cleanup = 0x7f02f83
                0x07f02f8d                prf_get_id_from_task = 0x7f02f8d
                0x07f02f97                prf_get_task_from_id = 0x7f02f97
                0x07f02fa1                nvds_init = 0x7f02fa1
                0x07f02fa9                SetSystemVars = 0x7f02fa9
                0x07f02fb3                dbg_init = 0x7f02fb3
                0x07f02fbd                dbg_platform_reset_complete = 0x7f02fbd
                0x07f02fc7                hci_rd_local_supp_feats_cmd_handler = 0x7f02fc7
                0x07f02fd7                l2cc_pdu_pack = 0x7f02fd7
                0x07f02fed                l2cc_pdu_unpack = 0x7f02fed
                0x07f03005                l2c_send_lecb_message = 0x7f03005
                0x07f0300f                l2c_process_sdu = 0x7f0300f
                0x07f03019                l2cc_pdu_recv_ind_handler = 0x7f03019
                0x07f03029                gapc_lecb_connect_cfm_handler = 0x7f03029
                0x07f03039                atts_l2cc_pdu_recv_handler = 0x7f03039
                0x07f03043                attc_l2cc_pdu_recv_handler = 0x7f03043
                0x07f0304d                crypto_init = 0x7f0304d
                0x07f03057                llm_le_adv_report_ind = 0x7f03057
                0x07f03061                PK_PointMult = 0x7f03061
                0x07f0306b                llm_p256_start = 0x7f0306b
                0x07f03075                llm_create_p256_key = 0x7f03075
                0x07f03081                llm_p256_req_handler = 0x7f03081
                0x07f03093                llc_le_length_effective = 0x7f03093
                0x07f0309f                llc_le_length_conn_init = 0x7f0309f
                0x07f030d5                co_buf_init = 0x7f030d5
                0x07f0317d                co_buf_rx_free = 0x7f0317d
                0x07f03197                co_buf_rx_buffer_get = 0x7f03197
                0x07f031a1                co_buf_tx_buffer_get = 0x7f031a1
                0x07f031c5                co_list_init = 0x7f031c5
                0x07f031d5                co_list_pop_front = 0x7f031d5
                0x07f031f7                co_list_flush = 0x7f031f7
                0x07f0320d                co_list_push_back = 0x7f0320d
                0x07f03231                co_list_pool_init = 0x7f03231
                0x07f03299                co_list_push_front = 0x7f03299
                0x07f032b5                co_list_extract = 0x7f032b5
                0x07f03305                co_list_find = 0x7f03305
                0x07f0331b                co_list_merge = 0x7f0331b
                0x07f03337                co_list_insert_before = 0x7f03337
                0x07f0336f                co_list_insert_after = 0x7f0336f
                0x07f033ab                co_list_size = 0x7f033ab
                0x07f033bf                co_bdaddr_compare = 0x7f033bf
                0x07f033dd                llc_init = 0x7f033dd
                0x07f03407                llc_stop = 0x7f03407
                0x07f0344d                llc_reset = 0x7f0344d
                0x07f0346f                llc_le_length_effective_func = 0x7f0346f
                0x07f03557                llc_le_enh_con_cmp_evt_send = 0x7f03557
                0x07f03659                llc_le_con_cmp_evt_send = 0x7f03659
                0x07f03705                llc_start = 0x7f03705
                0x07f03877                llc_discon_event_complete_send = 0x7f03877
                0x07f03897                llc_con_update_complete_send = 0x7f03897
                0x07f038d1                llc_ltk_req_send = 0x7f038d1
                0x07f03909                llc_feats_rd_event_send = 0x7f03909
                0x07f03945                llc_version_rd_event_send = 0x7f03945
                0x07f03975                llc_common_cmd_complete_send = 0x7f03975
                0x07f03993                llc_common_cmd_status_send = 0x7f03993
                0x07f039af                llc_common_flush_occurred_send = 0x7f039af
                0x07f039c7                llc_common_enc_key_ref_comp_evt_send = 0x7f039c7
                0x07f039e3                llc_common_enc_change_evt_send = 0x7f039e3
                0x07f03a49                llc_common_nb_of_pkt_comp_evt_send = 0x7f03a49
                0x07f03a69                llc_con_update_ind = 0x7f03a69
                0x07f03add                llc_lsto_con_update = 0x7f03add
                0x07f03b0f                llc_map_update_ind = 0x7f03b0f
                0x07f03b8d                llc_chnl_map_req_send = 0x7f03b8d
                0x07f03ba9                llc_add_bad_chnl = 0x7f03ba9
                0x07f03cb3                llc_version_ind_pdu_send = 0x7f03cb3
                0x07f03cf5                llc_ch_map_update_pdu_send = 0x7f03cf5
                0x07f03d39                llc_pause_enc_req_pdu_send = 0x7f03d39
                0x07f03d7b                llc_pause_enc_rsp_pdu_send = 0x7f03d7b
                0x07f03dd3                llc_enc_req_pdu_send = 0x7f03dd3
                0x07f03e91                llc_enc_rsp_pdu_send = 0x7f03e91
                0x07f03f21                llc_start_enc_rsp_pdu_send = 0x7f03f21
                0x07f03f6b                llc_reject_ind_pdu_send = 0x7f03f6b
                0x07f03fd5                llc_con_update_pdu_send = 0x7f03fd5
                0x07f0401f                llc_con_param_req_pdu_send = 0x7f0401f
                0x07f040b7                llc_con_param_rsp_pdu_send = 0x7f040b7
                0x07f04139                llc_feats_req_pdu_send = 0x7f04139
                0x07f0418d                llc_start_enc_req_pdu_send = 0x7f0418d
                0x07f04227                llc_terminate_ind_pdu_send = 0x7f04227
                0x07f0428f                llc_unknown_rsp_send_pdu = 0x7f0428f
                0x07f042b7                llc_length_req_pdu_send = 0x7f042b7
                0x07f04363                llc_length_rsp_pdu_send = 0x7f04363
                0x07f043c7                llc_length_ind = 0x7f043c7
                0x07f04453                llc_ping_req_pdu_send = 0x7f04453
                0x07f04477                llc_ping_rsp_pdu_send = 0x7f04477
                0x07f0449b                llc_feats_req_ind = 0x7f0449b
                0x07f04503                llc_feats_rsp_ind = 0x7f04503
                0x07f0455b                llc_vers_ind_ind = 0x7f0455b
                0x07f045df                llc_terminate_ind = 0x7f045df
                0x07f0461b                llc_pause_enc_req_ind = 0x7f0461b
                0x07f0464b                llc_pause_enc_rsp_ind = 0x7f0464b
                0x07f046bf                llc_enc_req_ind = 0x7f046bf
                0x07f04763                llc_enc_rsp_ind = 0x7f04763
                0x07f0480d                llc_start_enc_req_ind = 0x7f0480d
                0x07f0486f                llc_start_enc_rsp_ind = 0x7f0486f
                0x07f04905                llc_cntl_rcv = 0x7f04905
                0x07f04991                llcp_con_param_req_pdu_unpk = 0x7f04991
                0x07f04a09                llcp_con_param_rsp_pdu_unpk = 0x7f04a09
                0x07f04a81                llc_con_update_req_ind = 0x7f04a81
                0x07f04adb                llc_ch_map_req_ind = 0x7f04adb
                0x07f04b49                llc_data_rcv = 0x7f04b49
                0x07f068a1                llc_util_get_free_conhdl = 0x7f068a1
                0x07f068d1                llc_util_dicon_procedure = 0x7f068d1
                0x07f06933                llc_util_gen_skdx = 0x7f06933
                0x07f06947                llc_util_update_channel_map = 0x7f06947
                0x07f06959                llc_util_set_llcp_discard_enable = 0x7f06959
                0x07f06971                llc_util_set_auth_payl_to_margin = 0x7f06971
                0x07f069a5                lld_init = 0x7f069a5
                0x07f06af3                lld_reset = 0x7f06af3
                0x07f06b41                lld_adv_start = 0x7f06b41
                0x07f06c8f                lld_adv_stop = 0x7f06c8f
                0x07f06cb5                lld_scan_start = 0x7f06cb5
                0x07f06e1b                lld_scan_stop = 0x7f06e1b
                0x07f06e53                lld_con_start = 0x7f06e53
                0x07f071cb                lld_move_to_master = 0x7f071cb
                0x07f07261                lld_con_update_req = 0x7f07261
                0x07f072db                lld_con_update_after_param_req = 0x7f072db
                0x07f074c1                lld_con_param_rsp = 0x7f074c1
                0x07f075bb                lld_con_param_req = 0x7f075bb
                0x07f0768d                lld_con_stop = 0x7f0768d
                0x07f076e3                lld_get_mode = 0x7f076e3
                0x07f07707                lld_move_to_slave = 0x7f07707
                0x07f07887                lld_ch_map_ind = 0x7f07887
                0x07f07899                lld_con_update_ind = 0x7f07899
                0x07f078a7                lld_crypt_isr = 0x7f078a7
                0x07f078b1                lld_test_mode_tx_func = 0x7f078b1
                0x07f079eb                lld_test_stop_func = 0x7f079eb
                0x07f07aa5                lld_data_rx_check = 0x7f07aa5
                0x07f07ae9                lld_data_rx_flush = 0x7f07ae9
                0x07f030b7                lld_data_tx_check = 0x7f030b7
                0x07f07ba7                lld_data_tx_loop = 0x7f07ba7
                0x07f07bd5                lld_data_tx_push = 0x7f07bd5
                0x07f030ab                lld_data_tx_prog = 0x7f030ab
                0x07f07d4d                lld_data_tx_flush = 0x7f07d4d
                0x07f07e5d                lld_evt_drift_compute = 0x7f07e5d
                0x07f07f3b                lld_evt_elt_delete = 0x7f07f3b
                0x07f08535                lld_evt_deffered_elt_handler = 0x7f08535
                0x07f08609                lld_evt_init = 0x7f08609
                0x07f0867d                lld_evt_init_evt = 0x7f0867d
                0x07f0869b                lld_evt_elt_insert = 0x7f0869b
                0x07f086c5                lld_evt_conhdl2elt = 0x7f086c5
                0x07f086e1                lld_evt_schedule_next = 0x7f086e1
                0x07f087e5                lld_evt_schedule = 0x7f087e5
                0x07f08821                lld_evt_prevent_stop = 0x7f08821
                0x07f08823                lld_evt_canceled = 0x7f08823
                0x07f08847                lld_evt_scan_create = 0x7f08847
                0x07f08939                lld_evt_move_to_master = 0x7f08939
                0x07f08a33                lld_evt_update_create = 0x7f08a33
                0x07f08b69                lld_evt_ch_map_update_req = 0x7f08b69
                0x07f08b81                lld_evt_move_to_slave = 0x7f08b81
                0x07f08db1                lld_evt_slave_update = 0x7f08db1
                0x07f08e47                lld_evt_adv_create = 0x7f08e47
                0x07f08ecb                lld_evt_end = 0x7f08ecb
                0x07f08fd9                lld_evt_rx = 0x7f08fd9
                0x07f09009                lld_evt_timer_isr = 0x7f09009
                0x07f09013                lld_evt_end_isr = 0x7f09013
                0x07f09047                lld_evt_rx_isr = 0x7f09047
                0x07f091f5                lld_sleep_us_2_lpcycles_func = 0x7f091f5
                0x07f09213                lld_sleep_lpcycles_2_us_func = 0x7f09213
                0x07f09237                lld_sleep_compensate_func = 0x7f09237
                0x07f09269                lld_sleep_init_func = 0x7f09269
                0x07f09313                lld_sleep_enter = 0x7f09313
                0x07f09353                lld_sleep_wakeup = 0x7f09353
                0x07f0936d                lld_sleep_wakeup_end = 0x7f0936d
                0x07f09391                lld_wlcoex_connection_complete = 0x7f09391
                0x07f093a9                lld_wlcoex_remove_connection = 0x7f093a9
                0x07f093bd                lld_wlcoex_set = 0x7f093bd
                0x07f093d1                lld_util_get_bd_address = 0x7f093d1
                0x07f093f1                lld_util_set_bd_address = 0x7f093f1
                0x07f0942d                lld_util_freq2chnl = 0x7f0942d
                0x07f0944f                lld_util_get_local_offset = 0x7f0944f
                0x07f09469                lld_util_get_peer_offset = 0x7f09469
                0x07f09485                lld_util_connection_param_set = 0x7f09485
                0x07f094d5                llm_wl_clr = 0x7f094d5
                0x07f094fd                llm_init = 0x7f094fd
                0x07f09701                llm_common_cmd_complete_send = 0x7f09701
                0x07f09719                llm_ble_ready = 0x7f09719
                0x07f0971f                llm_wl_from_rl_restore = 0x7f0971f
                0x07f0978d                llm_con_req_ind = 0x7f0978d
                0x07f09987                llm_resolv_addr = 0x7f09987
                0x07f099cf                llm_util_rl_wl_update = 0x7f099cf
                0x07f09a09                llm_alter_conn = 0x7f09a09
                0x07f09aa3                llm_adv_report_set = 0x7f09aa3
                0x07f09b1d                llm_direct_adv_report_set = 0x7f09b1d
                0x07f09b5f                llm_encryption_start = 0x7f09b5f
                0x07f09be3                llm_resolv_addr_inplace = 0x7f09be3
                0x07f09c8f                llm_le_adv_report_ind_func = 0x7f09c8f
                0x07f0a14b                llm_con_req_tx_cfm = 0x7f0a14b
                0x07f0a227                llm_common_cmd_status_send = 0x7f0a227
                0x07f0a23f                llm_test_mode_start_tx = 0x7f0a23f
                0x07f0a31d                llm_test_mode_start_rx = 0x7f0a31d
                0x07f0a35d                llm_gen_rand_addr = 0x7f0a35d
                0x07f0a417                llm_set_adv_param = 0x7f0a417
                0x07f0a697                llm_set_adv_en = 0x7f0a697
                0x07f0a7c1                llm_set_adv_data = 0x7f0a7c1
                0x07f0a859                llm_set_scan_rsp_data = 0x7f0a859
                0x07f0a8ff                llm_set_scan_param = 0x7f0a8ff
                0x07f0aa27                llm_set_scan_en = 0x7f0aa27
                0x07f0aae9                llm_wl_dev_add = 0x7f0aae9
                0x07f0ab9b                llm_wl_dev_rem = 0x7f0ab9b
                0x07f0abeb                llm_wl_from_rl = 0x7f0abeb
                0x07f0acf3                llm_create_con = 0x7f0acf3
                0x07f0af8d                llm_encryption_done_func = 0x7f0af8d
                0x07f0b253                llm_get_chnl_assess_nb_pkt = 0x7f0b253
                0x07f0b259                llm_get_chnl_assess_nb_bad_pkt = 0x7f0b259
                0x07f0b25f                llm_get_min_rssi = 0x7f0b25f
                0x07f0b269                llm_le_scan_report_ind = 0x7f0b269
                0x07f0b2d3                llm_set_tx_oct_time = 0x7f0b2d3
                0x07f0b2fb                llm_p256_start_func = 0x7f0b2fb
                0x07f0b333                llm_create_p256_key_func = 0x7f0b333
                0x07f0b3dd                llm_p256_req_handler_func = 0x7f0b3dd
                0x07f0bb5f                hci_rd_local_supp_feats_cmd_handler_func = 0x7f0bb5f
                0x07f0c389                llm_util_bd_addr_in_wl = 0x7f0c389
                0x07f0c401                llm_util_check_address_validity = 0x7f0c401
                0x07f0c411                llm_util_check_map_validity = 0x7f0c411
                0x07f0c457                llm_util_apply_bd_addr = 0x7f0c457
                0x07f0c46f                llm_util_set_public_addr = 0x7f0c46f
                0x07f0c47d                llm_util_check_evt_mask = 0x7f0c47d
                0x07f0c49f                llm_util_get_channel_map = 0x7f0c49f
                0x07f0c4ad                llm_util_get_supp_features = 0x7f0c4ad
                0x07f0c4b9                llm_util_adv_data_update = 0x7f0c4b9
                0x07f0c4dd                llm_util_bl_check = 0x7f0c4dd
                0x07f0c51f                llm_util_bl_add = 0x7f0c51f
                0x07f0c575                llm_util_bl_rem = 0x7f0c575
                0x07f0c5c5                llm_util_rl_check = 0x7f0c5c5
                0x07f0c5fb                llm_util_rl_add = 0x7f0c5fb
                0x07f0c677                llm_util_rl_rem = 0x7f0c677
                0x07f0c69d                llm_util_rl_peer_find = 0x7f0c69d
                0x07f0c6c9                llm_util_rl_peer_resolv = 0x7f0c6c9
                0x07f0c71b                llm_util_rl_rpa_find = 0x7f0c71b
                0x07f0c745                CRYPTO_Handler = 0x7f0c745
                0x07f0c7a3                ecc_write_data_m = 0x7f0c7a3
                0x07f0c7bb                ecc_read_data_m = 0x7f0c7bb
                0x07f0c7d3                ecc_set_ptr = 0x7f0c7d3
                0x07f0c7e1                ecc_start = 0x7f0c7e1
                0x07f0c7ef                ecc_check_status = 0x7f0c7ef
                0x07f0c80f                PK_PointMult_func = 0x7f0c80f
                0x07f0c8c5                ea_time_get_slot_rounded = 0x7f0c8c5
                0x07f0c989                ea_init = 0x7f0c989
                0x07f0c9dd                ea_elt_create = 0x7f0c9dd
                0x07f0c9f7                ea_time_get_halfslot_rounded = 0x7f0c9f7
                0x07f0ca21                ea_elt_insert = 0x7f0ca21
                0x07f0cc65                ea_elt_remove = 0x7f0cc65
                0x07f0ccef                ea_elt_delete = 0x7f0ccef
                0x07f0cd09                ea_interval_create = 0x7f0cd09
                0x07f0cd1f                ea_interval_insert = 0x7f0cd1f
                0x07f0cd2b                ea_interval_delete = 0x7f0cd2b
                0x07f0cd43                ea_finetimer_isr = 0x7f0cd43
                0x07f0ce17                ea_sw_isr = 0x7f0ce17
                0x07f0ce37                ea_offset_req = 0x7f0ce37
                0x07f0cff3                ea_sleep_check = 0x7f0cff3
                0x07f0d049                ea_interval_duration_req = 0x7f0d049
                0x07f0d167                flash_identify = 0x7f0d167
                0x07f0d1b5                flash_init = 0x7f0d1b5
                0x07f0d1f1                flash_erase = 0x7f0d1f1
                0x07f0d255                flash_write = 0x7f0d255
                0x07f0d2b9                flash_read = 0x7f0d2b9
                0x07f0d347                uart_init_func = 0x7f0d347
                0x07f0d391                uart_flow_on_func = 0x7f0d391
                0x07f0d399                uart_flow_off_func = 0x7f0d399
                0x07f0d3e9                uart_finish_transfers_func = 0x7f0d3e9
                0x07f0d401                uart_read_func = 0x7f0d401
                0x07f0d417                uart_write_func = 0x7f0d417
                0x07f0d439                UART_Handler_func = 0x7f0d439
                0x07f0d48b                uart_set_flow_off_retries_limit = 0x7f0d48b
                0x07f0d4e5                ba431_get_instance_address = 0x7f0d4e5
                0x07f0d4f9                ba431_wait_fifo_level = 0x7f0d4f9
                0x07f0d519                ba431_read_fifo = 0x7f0d519
                0x07f0d547                ba431_get_rand = 0x7f0d547
                0x07f0d5cd                gtl_init_func = 0x7f0d5cd
                0x07f0d5f5                gtl_enter_sleep = 0x7f0d5f5
                0x07f0d61f                gtl_exit_sleep = 0x7f0d61f
                0x07f0d627                gtl_send_msg = 0x7f0d627
                0x07f0d6ad                gtl_eif_read_start_func = 0x7f0d6ad
                0x07f0d6cd                gtl_eif_read_hdr_func = 0x7f0d6cd
                0x07f0d6ed                gtl_eif_read_payl_func = 0x7f0d6ed
                0x07f0d72b                gtl_eif_tx_done_func = 0x7f0d72b
                0x07f0d73b                gtl_eif_rx_done_func = 0x7f0d73b
                0x07f0d86d                gtl_eif_init_func = 0x7f0d86d
                0x07f0d887                gtl_eif_write = 0x7f0d887
                0x07f0d8a9                gtl_eif_start = 0x7f0d8a9
                0x07f0d8b3                gtl_eif_stop = 0x7f0d8b3
                0x07f0d8cf                gtl_env_curr_msg_type_set = 0x7f0d8cf
                0x07f0dbb1                hci_tl_send = 0x7f0dbb1
                0x07f0dbf9                hci_tl_init = 0x7f0dbf9
                0x07f0dc1d                hci_cmd_get_max_param_size = 0x7f0dc1d
                0x07f0dc67                hci_cmd_received = 0x7f0dc67
                0x07f0dda3                hci_acl_tx_data_alloc = 0x7f0dda3
                0x07f0de29                hci_acl_tx_data_received = 0x7f0de29
                0x07f0def1                hci_acl_rx_data_alloc = 0x7f0def1
                0x07f0defd                hci_acl_rx_data_received = 0x7f0defd
                0x07f0df33                hci_evt_received = 0x7f0df33
                0x07f0e0df                hci_tl_env_tx_queue_cnt_get = 0x7f0e0df
                0x07f0e1fd                hci_util_pack = 0x7f0e1fd
                0x07f0e2fd                hci_util_unpack = 0x7f0e2fd
                0x07f0e7d1                hci_look_for_cmd_desc = 0x7f0e7d1
                0x07f0e81d                hci_look_for_evt_desc = 0x7f0e81d
                0x07f0e841                hci_look_for_le_evt_desc = 0x7f0e841
                0x07f0e869                hci_evt_mask_set = 0x7f0e869
                0x07f0e8b1                hci_init = 0x7f0e8b1
                0x07f0e8cd                hci_reset = 0x7f0e8cd
                0x07f0e8e5                hci_send_2_host = 0x7f0e8e5
                0x07f0e9cf                hci_send_2_controller = 0x7f0e9cf
                0x07f0eaa9                h4tl_read_start_func = 0x7f0eaa9
                0x07f0eac7                h4tl_read_hdr_func = 0x7f0eac7
                0x07f0eae3                h4tl_read_payl_func = 0x7f0eae3
                0x07f0eafd                h4tl_read_next_out_of_sync_func = 0x7f0eafd
                0x07f0eb11                h4tl_out_of_sync_func = 0x7f0eb11
                0x07f0eb37                h4tl_out_of_sync_check = 0x7f0eb37
                0x07f0eb93                h4tl_tx_done_func = 0x7f0eb93
                0x07f0eba7                h4tl_rx_done_func = 0x7f0eba7
                0x07f0eccb                h4tl_init_func = 0x7f0eccb
                0x07f0ece7                h4tl_write = 0x7f0ece7
                0x07f0ed0f                h4tl_start = 0x7f0ed0f
                0x07f0ed17                h4tl_stop = 0x7f0ed17
                0x07f0ed2b                h4tl_env_rx_type_set = 0x7f0ed2b
                0x07f0ed37                h4tl_env_hdr_set = 0x7f0ed37
                0x07f0ed75                attc_send_att_req = 0x7f0ed75
                0x07f0edb1                attc_allocate_att_req = 0x7f0edb1
                0x07f0edd3                attc_send_hdl_cfm = 0x7f0edd3
                0x07f0ede9                attc_send_execute = 0x7f0ede9
                0x07f0ee03                attc_send_read_ind = 0x7f0ee03
                0x07f0f743                attc_l2cc_pdu_recv_handler_func = 0x7f0f743
                0x07f0f79d                attm_convert_to128 = 0x7f0f79d
                0x07f0f7cd                attm_uuid_comp = 0x7f0f7cd
                0x07f0f825                attm_uuid16_comp = 0x7f0f825
                0x07f0f831                attm_is_bt16_uuid = 0x7f0f831
                0x07f0f857                attm_is_bt32_uuid = 0x7f0f857
                0x07f0fc57                attmdb_add_service = 0x7f0fc57
                0x07f0fcdf                attmdb_destroy = 0x7f0fcdf
                0x07f0fcf9                attmdb_get_service = 0x7f0fcf9
                0x07f0fd37                attmdb_get_attribute = 0x7f0fd37
                0x07f0fd6b                attmdb_get_next_att = 0x7f0fd6b
                0x07f0fdcf                attmdb_uuid16_comp = 0x7f0fdcf
                0x07f0fe0b                attmdb_att_set_value = 0x7f0fe0b
                0x07f0feb7                attmdb_get_max_len = 0x7f0feb7
                0x07f0ff1d                attmdb_get_uuid = 0x7f0ff1d
                0x07f0fff3                attmdb_get_value = 0x7f0fff3
                0x07f10143                attmdb_att_set_permission = 0x7f10143
                0x07f101b7                attmdb_att_update_perm = 0x7f101b7
                0x07f10225                attmdb_svc_get_permission = 0x7f10225
                0x07f10243                attmdb_att_get_permission = 0x7f10243
                0x07f10345                attmdb_svc_set_permission = 0x7f10345
                0x07f10369                attmdb_init = 0x7f10369
                0x07f1037f                attmdb_get_nb_svc = 0x7f1037f
                0x07f10393                attmdb_get_svc_info = 0x7f10393
                0x07f103c7                attm_svc_create_db = 0x7f103c7
                0x07f104d5                attmdb_reserve_handle_range = 0x7f104d5
                0x07f10651                atts_clear_read_cache = 0x7f10651
                0x07f107a5                atts_send_error = 0x7f107a5
                0x07f107c1                atts_write_signed_cfm = 0x7f107c1
                0x07f10801                atts_send_event = 0x7f10801
                0x07f10889                atts_clear_prep_data = 0x7f10889
                0x07f108ad                atts_clear_rsp_data = 0x7f108ad
                0x07f108fd                atts_write_rsp_send = 0x7f108fd
                0x07f11523                atts_l2cc_pdu_recv_handler_func = 0x7f11523
                0x07f11787                gattc_cleanup = 0x7f11787
                0x07f1180b                gattc_init = 0x7f1180b
                0x07f1183d                gattc_update_state = 0x7f1183d
                0x07f11861                gattc_create = 0x7f11861
                0x07f118d5                gattc_con_enable = 0x7f118d5
                0x07f118db                gattc_get_mtu = 0x7f118db
                0x07f118e7                gattc_set_mtu = 0x7f118e7
                0x07f1192d                gattc_get_requester = 0x7f1192d
                0x07f11949                gattc_send_complete_evt = 0x7f11949
                0x07f119a5                gattc_send_error_evt = 0x7f119a5
                0x07f119cb                gattc_get_operation = 0x7f119cb
                0x07f119e1                gattc_get_op_seq_num = 0x7f119e1
                0x07f119f7                gattc_get_operation_ptr = 0x7f119f7
                0x07f11a03                gattc_set_operation_ptr = 0x7f11a03
                0x07f11a0f                gattc_reschedule_operation = 0x7f11a0f
                0x07f12a0d                gattm_svc_get_start_hdl = 0x7f12a0d
                0x07f12a13                gattm_init = 0x7f12a13
                0x07f12a31                gattm_init_attr = 0x7f12a31
                0x07f12a85                gattm_create = 0x7f12a85
                0x07f12a8d                gattm_cleanup = 0x7f12a8d
                0x07f12a95                gattm_get_max_mtu = 0x7f12a95
                0x07f12a9b                gattm_set_max_mtu = 0x7f12a9b
                0x07f12ab7                gattm_get_max_mps = 0x7f12ab7
                0x07f12abd                gattm_set_max_mps = 0x7f12abd
                0x07f12d25                l2cc_cleanup = 0x7f12d25
                0x07f12d69                l2cc_init = 0x7f12d69
                0x07f12d9b                l2cc_create = 0x7f12d9b
                0x07f12dd3                l2cc_update_state = 0x7f12dd3
                0x07f131a5                l2cm_init = 0x7f131a5
                0x07f131b9                l2cm_create = 0x7f131b9
                0x07f131c1                l2cm_cleanup = 0x7f131c1
                0x07f131c9                l2cm_set_link_layer_buff_size = 0x7f131c9
                0x07f131d9                smpc_send_use_enc_block_cmd = 0x7f131d9
                0x07f13211                smpc_send_start_enc_cmd = 0x7f13211
                0x07f1328b                smpc_send_ltk_req_rsp = 0x7f1328b
                0x07f132e7                smpc_send_pairing_req_ind = 0x7f132e7
                0x07f133cb                smpc_send_pairing_ind = 0x7f133cb
                0x07f134db                smpc_check_pairing_feat = 0x7f134db
                0x07f134f5                smpc_launch_rep_att_timer = 0x7f134f5
                0x07f13531                smpc_check_repeated_attempts = 0x7f13531
                0x07f13593                smpc_check_max_key_size = 0x7f13593
                0x07f135bb                smpc_check_key_distrib = 0x7f135bb
                0x07f13619                smpc_xor = 0x7f13619
                0x07f1362f                smpc_generate_l = 0x7f1362f
                0x07f1367d                smpc_generate_ci = 0x7f1367d
                0x07f136e1                smpc_generate_rand = 0x7f136e1
                0x07f13707                smpc_generate_e1 = 0x7f13707
                0x07f137c1                smpc_generate_cfm = 0x7f137c1
                0x07f1383b                smpc_generate_stk = 0x7f1383b
                0x07f13891                smpc_calc_subkeys = 0x7f13891
                0x07f13907                smpc_clear_timeout_timer = 0x7f13907
                0x07f13931                smpc_pairing_end = 0x7f13931
                0x07f1398f                smpc_tkdp_rcp_continue = 0x7f1398f
                0x07f139ef                smpc_tkdp_rcp_start = 0x7f139ef
                0x07f13a4f                smpc_pdu_send = 0x7f13a4f
                0x07f13aed                smpc_tkdp_send_start = 0x7f13aed
                0x07f13b6d                smpc_tkdp_send_continue = 0x7f13b6d
                0x07f13be9                smpc_get_key_sec_prop = 0x7f13be9
                0x07f13cb5                smpc_is_sec_mode_reached = 0x7f13cb5
                0x07f13cdf                smpc_handle_enc_change_evt = 0x7f13cdf
                0x07f13d95                smpc_pdu_recv_func = 0x7f13d95
                0x07f13deb                smpc_generate_subkey = 0x7f13deb
                0x07f13e1f                leftshift_onebit = 0x7f13e1f
                0x07f13e55                padding = 0x7f13e55
                0x07f13e79                smpc_generate_subkey_P2 = 0x7f13e79
                0x07f13f1d                AES_CMAC_block = 0x7f13f1d
                0x07f13fdd                smpc_generate_f4 = 0x7f13fdd
                0x07f140f1                smpc_generate_g2 = 0x7f140f1
                0x07f1419b                smpc_generate_f5 = 0x7f1419b
                0x07f141b3                smpc_generate_f5_T = 0x7f141b3
                0x07f141f9                smpc_generate_f5_P2 = 0x7f141f9
                0x07f143f3                smpc_generate_f6 = 0x7f143f3
                0x07f1458d                smpm_send_encrypt_req = 0x7f1458d
                0x07f145bb                smpm_send_gen_rand_nb_req = 0x7f145bb
                0x07f145d1                smpm_check_addr_type = 0x7f145d1
                0x07f1463d                gapc_update_state = 0x7f1463d
                0x07f1466d                gapc_get_requester = 0x7f1466d
                0x07f14689                gapc_send_complete_evt = 0x7f14689
                0x07f147b3                gapc_init = 0x7f147b3
                0x07f147e5                gapc_con_create = 0x7f147e5
                0x07f1489f                gapc_con_create_enh = 0x7f1489f
                0x07f14999                gapc_con_cleanup = 0x7f14999
                0x07f149a9                gapc_send_disconect_ind = 0x7f149a9
                0x07f149cb                gapc_get_conidx = 0x7f149cb
                0x07f14a05                gapc_get_conhdl = 0x7f14a05
                0x07f14a1d                gapc_get_role = 0x7f14a1d
                0x07f14a39                gapc_get_bdaddr = 0x7f14a39
                0x07f14a59                gapc_get_csrk = 0x7f14a59
                0x07f14a77                gapc_get_sign_counter = 0x7f14a77
                0x07f14a95                gapc_send_error_evt = 0x7f14a95
                0x07f14ab7                gapc_get_operation = 0x7f14ab7
                0x07f14acd                gapc_get_operation_ptr = 0x7f14acd
                0x07f14ad9                gapc_set_operation_ptr = 0x7f14ad9
                0x07f14ae5                gapc_reschedule_operation = 0x7f14ae5
                0x07f14b15                gapc_is_sec_set = 0x7f14b15
                0x07f14b89                gapc_get_enc_keysize = 0x7f14b89
                0x07f14ba1                gapc_set_enc_keysize = 0x7f14ba1
                0x07f14bb5                gapc_link_encrypted = 0x7f14bb5
                0x07f14bcf                gapc_auth_set = 0x7f14bcf
                0x07f14bef                gapc_svc_chg_ccc_get = 0x7f14bef
                0x07f14bff                gapc_svc_chg_ccc_set = 0x7f14bff
                0x07f14c15                gapc_check_lecb_sec_perm = 0x7f14c15
                0x07f14c7d                gapc_search_lecb_channel = 0x7f14c7d
                0x07f14cb7                gapc_lecnx_check_tx = 0x7f14cb7
                0x07f14cff                gapc_lecnx_check_rx = 0x7f14cff
                0x07f14d43                gapc_lecnx_get_field = 0x7f14d43
                0x07f14db9                gapc_process_op = 0x7f14db9
                0x07f14f33                gapc_param_update_sanity = 0x7f14f33
                0x07f14f5b                gapc_param_cb_con_sanity = 0x7f14f5b
                0x07f153dd                l2cc_pdu_recv_ind_handler_func = 0x7f153dd
                0x07f162ed                gapc_lecb_connect_cfm_handler_func = 0x7f162ed
                0x07f166bf                gapm_init = 0x7f166bf
                0x07f1671b                gapm_init_attr = 0x7f1671b
                0x07f16747                gapm_get_operation = 0x7f16747
                0x07f16759                gapm_get_requester = 0x7f16759
                0x07f16771                gapm_reschedule_operation = 0x7f16771
                0x07f16793                gapm_send_complete_evt = 0x7f16793
                0x07f167c9                gapm_send_error_evt = 0x7f167c9
                0x07f167e9                gapm_con_create = 0x7f167e9
                0x07f1686d                gapm_con_enable = 0x7f1686d
                0x07f16879                gapm_con_cleanup = 0x7f16879
                0x07f168a9                gapm_get_id_from_task = 0x7f168a9
                0x07f168e9                gapm_get_task_from_id = 0x7f168e9
                0x07f16925                gapm_is_disc_connection = 0x7f16925
                0x07f176c5                gapm_adv_sanity = 0x7f176c5
                0x07f177ab                gapm_adv_op_sanity = 0x7f177ab
                0x07f17929                gapm_set_adv_mode = 0x7f17929
                0x07f17943                gapm_set_adv_data = 0x7f17943
                0x07f17993                gapm_execute_adv_op = 0x7f17993
                0x07f17acf                gapm_scan_op_sanity = 0x7f17acf
                0x07f17bd7                gapm_set_scan_mode = 0x7f17bd7
                0x07f17bf5                gapm_execute_scan_op = 0x7f17bf5
                0x07f17caf                gapm_connect_op_sanity = 0x7f17caf
                0x07f17e17                gapm_basic_hci_cmd_send = 0x7f17e17
                0x07f17e2b                gapm_execute_connect_op = 0x7f17e2b
                0x07f17fe7                gapm_get_role = 0x7f17fe7
                0x07f17fed                gapm_get_ad_type_flag = 0x7f17fed
                0x07f18013                gapm_add_to_filter = 0x7f18013
                0x07f18095                gapm_is_filtered = 0x7f18095
                0x07f180fb                gapm_update_air_op_state = 0x7f180fb
                0x07f181c5                gapm_get_irk = 0x7f181c5
                0x07f181cb                gapm_get_bdaddr = 0x7f181cb
                0x07f186b1                l2cc_pdu_unpack_func = 0x7f186b1
                0x07f189b1                l2cc_detect_dest = 0x7f189b1
                0x07f18a0d                l2c_process_sdu_func = 0x7f18a0d
                0x07f18b07                l2c_send_lecb_message_func = 0x7f18b07
                0x07f18c01                smpc_check_param_func = 0x7f18c01
                0x07f19803                gapc_hci_handler = 0x7f19803
                0x07f1a437                gapm_hci_handler = 0x7f1a437
                0x07f1a4c5                smpc_pairing_start = 0x7f1a4c5
                0x07f1a54b                smpc_pairing_tk_exch = 0x7f1a54b
                0x07f1a609                smpc_pairing_ltk_exch = 0x7f1a609
                0x07f1a65d                smpc_pairing_csrk_exch = 0x7f1a65d
                0x07f1a6b3                smpc_public_key_exchange_start = 0x7f1a6b3
                0x07f1a6d7                smpc_pairing_rsp = 0x7f1a6d7
                0x07f1a7bb                smpc_pairing_req_handler = 0x7f1a7bb
                0x07f1a7f3                smpc_security_req_send = 0x7f1a7f3
                0x07f1a81d                smpc_encrypt_start = 0x7f1a81d
                0x07f1a843                smpc_encrypt_start_handler = 0x7f1a843
                0x07f1a875                smpc_encrypt_cfm = 0x7f1a875
                0x07f1a8a1                smpc_sign_command = 0x7f1a8a1
                0x07f1a97d                smpc_sign_cont = 0x7f1a97d
                0x07f1ab23                smpc_calc_confirm_cont = 0x7f1ab23
                0x07f1b065                smpc_confirm_gen_rand = 0x7f1b065
                0x07f1b12b                smpc_dhkey_calc_start = 0x7f1b12b
                0x07f1b179                smpc_sec_authentication_start = 0x7f1b179
                0x07f1b1a7                smpc_dhkey_calc_ind = 0x7f1b1a7
                0x07f1b1e1                smpm_gen_rand_addr = 0x7f1b1e1
                0x07f1b1f9                smpm_resolv_addr = 0x7f1b1f9
                0x07f1b21b                smpm_use_enc_block = 0x7f1b21b
                0x07f1b223                smpm_gen_rand_nb = 0x7f1b223
                0x07f1b22b                smpm_ecdh_key_create = 0x7f1b22b
                0x07f1b249                ke_init = 0x7f1b249
                0x07f1b27b                ke_flush = 0x7f1b27b
                0x07f1b2bb                ke_sleep_check = 0x7f1b2bb
                0x07f1b2cd                ke_stats_get = 0x7f1b2cd
                0x07f1b2e9                ke_event_init = 0x7f1b2e9
                0x07f1b2f5                ke_event_callback_set = 0x7f1b2f5
                0x07f1b309                ke_event_set = 0x7f1b309
                0x07f1b335                ke_event_clear = 0x7f1b335
                0x07f1b361                ke_event_get = 0x7f1b361
                0x07f1b387                ke_event_get_all = 0x7f1b387
                0x07f1b38d                ke_event_flush = 0x7f1b38d
                0x07f1b395                ke_event_schedule = 0x7f1b395
                0x07f1b3e5                ke_mem_init = 0x7f1b3e5
                0x07f1b431                ke_mem_is_empty = 0x7f1b431
                0x07f1b471                ke_check_malloc = 0x7f1b471
                0x07f1b501                ke_malloc = 0x7f1b501
                0x07f1b5f7                ke_free = 0x7f1b5f7
                0x07f1b6d9                ke_is_free = 0x7f1b6d9
                0x07f1b6eb                ke_get_mem_usage = 0x7f1b6eb
                0x07f1b6f7                ke_get_max_mem_usage = 0x7f1b6f7
                0x07f1b71d                ke_msg_alloc = 0x7f1b71d
                0x07f1b74f                ke_msg_send = 0x7f1b74f
                0x07f1b77b                ke_msg_send_basic = 0x7f1b77b
                0x07f1b789                ke_msg_forward = 0x7f1b789
                0x07f1b793                ke_msg_forward_new_id = 0x7f1b793
                0x07f1b7a3                ke_msg_free = 0x7f1b7a3
                0x07f1b7ab                ke_msg_dest_id_get = 0x7f1b7ab
                0x07f1b7b1                ke_msg_src_id_get = 0x7f1b7b1
                0x07f1b7b7                ke_msg_in_queue = 0x7f1b7b7
                0x07f1b7c9                ke_queue_extract = 0x7f1b7c9
                0x07f1b819                ke_queue_insert = 0x7f1b819
                0x07f1b975                ke_task_init_func = 0x7f1b975
                0x07f1b989                ke_task_create = 0x7f1b989
                0x07f1b9c1                ke_task_delete = 0x7f1b9c1
                0x07f1b9ed                ke_state_set = 0x7f1b9ed
                0x07f1ba51                ke_state_get = 0x7f1ba51
                0x07f1ba6f                ke_msg_discard = 0x7f1ba6f
                0x07f1ba73                ke_msg_save = 0x7f1ba73
                0x07f1ba77                ke_task_msg_flush = 0x7f1ba77
                0x07f1bb79                ke_timer_init_func = 0x7f1bb79
                0x07f1bb85                ke_timer_set = 0x7f1bb85
                0x07f1bc19                ke_timer_clear = 0x7f1bc19
                0x07f1bc6f                ke_timer_active = 0x7f1bc6f
                0x07f1bc95                ke_timer_sleep_check = 0x7f1bc95
                0x07f1bdbb                rwble_hl_reset = 0x7f1bdbb
                0x07f1bddd                rwble_hl_send_message = 0x7f1bddd
                0x07f1bde1                rwip_check_wakeup_boundary = 0x7f1bde1
                0x07f1be07                rwip_init = 0x7f1be07
                0x07f1becb                rwip_reset = 0x7f1becb
                0x07f1bf03                rwip_version = 0x7f1bf03
                0x07f1bf0b                rwip_schedule = 0x7f1bf0b
                0x07f1bf1b                rwip_sleep = 0x7f1bf1b
                0x07f1bfaf                rwip_prevent_sleep_set = 0x7f1bfaf
                0x07f1bfd1                rwip_wakeup = 0x7f1bfd1
                0x07f1bfe7                rwip_prevent_sleep_clear = 0x7f1bfe7
                0x07f1c009                rwip_wakeup_end = 0x7f1c009
                0x07f1c025                rwip_wakeup_delay_set = 0x7f1c025
                0x07f1c033                rwip_sleep_enable = 0x7f1c033
                0x07f1c039                rwip_ext_wakeup_enable = 0x7f1c039
                0x07f1c05d                rwble_init = 0x7f1c05d
                0x07f1c0c3                rwble_reset = 0x7f1c0c3
                0x07f1c0f7                rwble_version = 0x7f1c0f7
                0x07f1c121                rwble_send_message = 0x7f1c121
                0x07f1c209                __aeabi_uidiv = 0x7f1c209
                0x07f1c209                __aeabi_uidivmod = 0x7f1c209
                0x07f1c235                __aeabi_idiv = 0x7f1c235
                0x07f1c235                __aeabi_idivmod = 0x7f1c235
                0x07f1c25d                rand = 0x7f1c25d
                0x07f1c26f                srand = 0x7f1c26f
                0x07f1c281                __aeabi_memcpy = 0x7f1c281
                0x07f1c281                __aeabi_memcpy4 = 0x7f1c281
                0x07f1c281                __aeabi_memcpy8 = 0x7f1c281
                0x07f1c2a5                __aeabi_memset = 0x7f1c2a5
                0x07f1c2a5                __aeabi_memset4 = 0x7f1c2a5
                0x07f1c2a5                __aeabi_memset8 = 0x7f1c2a5
                0x07f1c2b3                __aeabi_memclr = 0x7f1c2b3
                0x07f1c2b3                __aeabi_memclr4 = 0x7f1c2b3
                0x07f1c2b3                __aeabi_memclr8 = 0x7f1c2b3
                0x07f1c2b7                _memset$wrapper = 0x7f1c2b7
                0x07f1c2c9                memcmp = 0x7f1c2c9
                0x07f1c2e3                __aeabi_uread4 = 0x7f1c2e3
                0x07f1c2e3                __rt_uread4 = 0x7f1c2e3
                0x07f1c2e3                _uread4 = 0x7f1c2e3
                0x07f1c2f7                __aeabi_uwrite4 = 0x7f1c2f7
                0x07f1c2f7                __rt_uwrite4 = 0x7f1c2f7
                0x07f1c2f7                _uwrite4 = 0x7f1c2f7
                0x07f1c309                __ARM_common_switch8 = 0x7f1c309
                0x07f1c324                uart_api = 0x7f1c324
                0x07f1c334                co_sca2ppm = 0x7f1c334
                0x07f1c344                co_null_bdaddr = 0x7f1c344
                0x07f1c34a                co_default_bdaddr = 0x7f1c34a
                0x07f1c5d0                llc_state_handler = 0x7f1c5d0
                0x07f1c6a0                llc_default_handler = 0x7f1c6a0
                0x07f1c6d0                llm_local_cmds = 0x7f1c6d0
                0x07f1c710                llm_local_le_feats = 0x7f1c710
                0x07f1c718                llm_local_le_states = 0x7f1c718
                0x07f1c8f8                llm_state_handler = 0x7f1c8f8
                0x07f1c928                llm_default_handler = 0x7f1c928
                0x07f1c930                LLM_AA_CT1 = 0x7f1c930
                0x07f1c933                LLM_AA_CT2 = 0x7f1c933
                0x07f1c935                ecc_p256_q = 0x7f1c935
                0x07f1c955                ecc_p256_a = 0x7f1c955
                0x07f1c975                ecc_p256_b = 0x7f1c975
                0x07f1c995                ecc_p256_G = 0x7f1c995
                0x07f1c9e8                gtl_default_state = 0x7f1c9e8
                0x07f1c9f0                gtl_default_handler = 0x7f1c9f0
                0x07f1c9fc                hci_cmd_desc_tab_lk_ctrl = 0x7f1c9fc
                0x07f1ca20                hci_cmd_desc_tab_ctrl_bb = 0x7f1ca20
                0x07f1ca98                hci_cmd_desc_tab_info_par = 0x7f1ca98
                0x07f1cad4                hci_cmd_desc_tab_stat_par = 0x7f1cad4
                0x07f1cae0                hci_cmd_desc_tab_le = 0x7f1cae0
                0x07f1cd14                hci_cmd_desc_tab_vs = 0x7f1cd14
                0x07f1ce4c                hci_cmd_desc_root_tab = 0x7f1ce4c
                0x07f1ce7c                hci_evt_desc_tab = 0x7f1ce7c
                0x07f1cec4                hci_evt_le_desc_tab = 0x7f1cec4
                0x07f1cf34                attc_handlers = 0x7f1cf34
                0x07f1cfa4                atts_handlers = 0x7f1cfa4
                0x07f1d024                gattc_default_state = 0x7f1d024
                0x07f1d104                gattc_default_handler = 0x7f1d104
                0x07f1d150                gattm_default_state = 0x7f1d150
                0x07f1d1a8                gattm_default_handler = 0x7f1d1a8
                0x07f1d1c0                l2cc_default_state = 0x7f1d1c0
                0x07f1d1d8                l2cc_default_handler = 0x7f1d1d8
                0x07f1d22c                gapc_default_state = 0x7f1d22c
                0x07f1d37c                gapc_default_handler = 0x7f1d37c
                0x07f1d400                gapm_default_state = 0x7f1d400
                0x07f1d4e8                gapm_default_handler = 0x7f1d4e8
                0x07f1d60c                smpc_construct_pdu = 0x7f1d60c
                0x07f1d648                smpc_recv_pdu = 0x7f1d648
                0x07fdf35c                enh_con_cmp_cnt = 0x7fdf35c
                0x07f1d1f9                const_Rb = 0x7f1d1f9
                0x07fdf3f8                ke_free_bad = 0x7fdf3f8
                0x07fdf934                crypto_controller = 0x7fdf934
                0x07f1d209                const_Zero = 0x7f1d209
                0x07fdfa5c                ecdh_key = 0x7fdfa5c
                0x07fdc000                dummy = 0x7fdc000
                0x07fdf300                ble_wakeup_executed = 0x7fdf300
                0x07fdf301                rf_in_sleep = 0x7fdf301
                0x07fdf304                custom_preinit = 0x7fdf304
                0x07fdf308                custom_postinit = 0x7fdf308
                0x07fdf30c                custom_appinit = 0x7fdf30c
                0x07fdf310                custom_preloop = 0x7fdf310
                0x07fdf314                custom_preschedule = 0x7fdf314
                0x07fdf318                custom_postschedule = 0x7fdf318
                0x07fdf31c                custom_postschedule_async = 0x7fdf31c
                0x07fdf320                custom_presleepcheck = 0x7fdf320
                0x07fdf324                custom_appsleepset = 0x7fdf324
                0x07fdf328                custom_postsleepcheck = 0x7fdf328
                0x07fdf32c                custom_presleepenter = 0x7fdf32c
                0x07fdf330                custom_postsleepexit = 0x7fdf330
                0x07fdf334                custom_prewakeup = 0x7fdf334
                0x07fdf338                custom_postwakeup = 0x7fdf338
                0x07fdf33c                custom_preidlecheck = 0x7fdf33c
                0x07fdf340                custom_pti_set = 0x7fdf340
                0x07fdf344                REG_BLE_EM_TX_BUFFER_SIZE = 0x7fdf344
                0x07fdf348                REG_BLE_EM_RX_BUFFER_SIZE = 0x7fdf348
                0x07fdf34c                _ble_base = 0x7fdf34c
                0x07fdf350                gap_cfg_user = 0x7fdf350
                0x07fdf354                rom_func_addr_table = 0x7fdf354
                0x07fdf358                rom_cfg_table = 0x7fdf358
                0x07fdf364                rx_pkt_cnt = 0x7fdf364
                0x07fdf368                rx_pkt_cnt_bad = 0x7fdf368
                0x07fdf36c                rx_pkt_cnt_bad_adv = 0x7fdf36c
                0x07fdf370                rx_pkt_cnt_bad_scn = 0x7fdf370
                0x07fdf374                rx_pkt_cnt_bad_oth = 0x7fdf374
                0x07fdf378                rx_pkt_cnt_bad_con = 0x7fdf378
                0x07fdf37c                connect_req_cnt = 0x7fdf37c
                0x07fdf380                last_status = 0x7fdf380
                0x07fdf384                llc_state = 0x7fdf384
                0x07fdf390                lld_wlcoex_enable = 0x7fdf390
                0x07fdf394                ble_duplicate_filter_max = 0x7fdf394
                0x07fdf395                ble_duplicate_filter_found = 0x7fdf395
                0x07fdf398                alter_conn_adv_all_cnt = 0x7fdf398
                0x07fdf39c                alter_conn_adv_dir_cnt = 0x7fdf39c
                0x07fdf3a0                alter_conn_adv_cnt = 0x7fdf3a0
                0x07fdf3a4                create_conn_cnt = 0x7fdf3a4
                0x07fdf3a8                alter_conn_cnt = 0x7fdf3a8
                0x07fdf3ac                alter_conn_restart_cnt = 0x7fdf3ac
                0x07fdf3b0                alter_conn_peer_addr = 0x7fdf3b0
                0x07fdf3b6                alter_conn_local_addr = 0x7fdf3b6
                0x07fdf3bd                llm_resolving_list_max = 0x7fdf3bd
                0x07fdf3be                llm_bt_env = 0x7fdf3be
                0x07fdf3c8                init_tx_cnt_cntl_cnt1 = 0x7fdf3c8
                0x07fdf3cc                init_tx_cnt_cntl_cnt = 0x7fdf3cc
                0x07fdf3d0                tx_cnt_cntl_cnt = 0x7fdf3d0
                0x07fdf3d4                llm_state = 0x7fdf3d4
                0x07fdf3d5                gtl_state = 0x7fdf3d5
                0x07fdf3d6                use_h4tl = 0x7fdf3d6
                0x07fdf3d7                gattc_state = 0x7fdf3d7
                0x07fdf3df                gattm_state = 0x7fdf3df
                0x07fdf3e0                l2cc_state = 0x7fdf3e0
                0x07fdf3e8                l2cm_env = 0x7fdf3e8
                0x07fdf3ee                gapc_state = 0x7fdf3ee
                0x07fdf3f6                gapm_state = 0x7fdf3f6
                0x07fdf3fc                rwip_env = 0x7fdf3fc
                0x07fdf408                ble_reg_save = 0x7fdf408
                0x07fdf458                sleep_env = 0x7fdf458
                0x07fdf45c                uart_env = 0x7fdf45c
                0x07fdf480                ke_mem_heaps_used = 0x7fdf480
                0x07fdf484                co_buf_env = 0x7fdf484
                0x07fdf5bc                llc_env = 0x7fdf5bc
                0x07fdf5dc                lld_evt_env = 0x7fdf5dc
                0x07fdf608                llm_le_env = 0x7fdf608
                0x07fdf704                llm_resolving_list = 0x7fdf704
                0x07fdf988                gtl_env = 0x7fdf988
                0x07fdf9d0                hci_env = 0x7fdf9d0
                0x07fdf9f8                gattc_env = 0x7fdf9f8
                0x07fdfa18                gattm_env = 0x7fdfa18
                0x07fdfa3c                l2cc_env = 0x7fdfa3c
                0x07fdfabc                gapc_env = 0x7fdfabc
                0x07fdfadc                gapm_env = 0x7fdfadc
                0x07fdfb08                ke_env = 0x7fdfb08
                0x07fdfc30                rwip_rf = 0x7fdfc30
                0x07f03c4d                llc_pdu_send_func = 0x7f03c4d
                0x07f07b0d                lld_data_tx_check_func = 0x7f07b0d
                0x07f07c37                lld_data_tx_prog_func = 0x7f07c37
                0x07f07d89                lld_evt_deferred_elt_pop = 0x7f07d89
                0x07f0667b                llcp_unknown_rsp_handler = 0x7f0667b
                0x07f0841d                lld_evt_continue = 0x7f0841d
                0x07f091a3                lld_evt_priority_reset = 0x7f091a3
                0x07f09053                lld_evt_deferred_elt_push = 0x7f09053
                0x07f080b7                lld_evt_restart = 0x7f080b7
                0x07f0807d                lld_evt_channel_next = 0x7f0807d
                0x07f07e7d                lld_evt_rxwin_compute = 0x7f07e7d
                0x07f07eb3                lld_evt_slave_time_compute = 0x7f07eb3
                0x07f07dc5                lld_evt_slave_finetime_correction = 0x7f07dc5
                0x07f05199                hci_le_set_data_length_cmd_handler = 0x7f05199
OUTPUT(freertos_retarget.elf elf32-littlearm)

.ARM.attributes
                0x00000000       0x28
 .ARM.attributes
                0x00000000       0x1e c:/diasemi/smartsnippetsstudio/gcc/4_9-2015q1/bin/../lib/gcc/arm-none-eabi/4.9.3/armv6-m/crti.o
 .ARM.attributes
                0x0000001e       0x2c c:/diasemi/smartsnippetsstudio/gcc/4_9-2015q1/bin/../lib/gcc/arm-none-eabi/4.9.3/armv6-m/crtbegin.o
 .ARM.attributes
                0x0000004a       0x1b c:/diasemi/smartsnippetsstudio/gcc/4_9-2015q1/bin/../lib/gcc/arm-none-eabi/4.9.3/../../../../arm-none-eabi/lib/armv6-m/crt0.o
 .ARM.attributes
                0x00000065       0x31 ./startup/config.o
 .ARM.attributes
                0x00000096       0x1b ./startup/startup_ARMCM0.o
 .ARM.attributes
                0x000000b1       0x31 ./startup/system_ARMCM0.o
 .ARM.attributes
                0x000000e2       0x1b ./startup/vector_table.o
 .ARM.attributes
                0x000000fd       0x31 ./sdk/sys_man/sys_charger.o
 .ARM.attributes
                0x0000012e       0x31 ./sdk/sys_man/sys_clock_mgr.o
 .ARM.attributes
                0x0000015f       0x31 ./sdk/sys_man/sys_power_mgr.o
 .ARM.attributes
                0x00000190       0x31 ./sdk/sys_man/sys_rtc.o
 .ARM.attributes
                0x000001c1       0x31 ./sdk/peripherals/src/hw_cpm.o
 .ARM.attributes
                0x000001f2       0x31 ./sdk/peripherals/src/hw_dma.o
 .ARM.attributes
                0x00000223       0x31 ./sdk/peripherals/src/hw_gpadc.o
 .ARM.attributes
                0x00000254       0x31 ./sdk/peripherals/src/hw_gpio.o
 .ARM.attributes
                0x00000285       0x31 ./sdk/peripherals/src/hw_hard_fault.o
 .ARM.attributes
                0x000002b6       0x31 ./sdk/peripherals/src/hw_otpc.o
 .ARM.attributes
                0x000002e7       0x31 ./sdk/peripherals/src/hw_qspi.o
 .ARM.attributes
                0x00000318       0x31 ./sdk/peripherals/src/hw_timer1.o
 .ARM.attributes
                0x00000349       0x31 ./sdk/peripherals/src/hw_uart.o
 .ARM.attributes
                0x0000037a       0x31 ./sdk/peripherals/src/hw_usb_charger.o
 .ARM.attributes
                0x000003ab       0x31 ./sdk/peripherals/src/hw_watchdog.o
 .ARM.attributes
                0x000003dc       0x31 ./sdk/peripherals/src/hw_wkup.o
 .ARM.attributes
                0x0000040d       0x31 ./sdk/peripherals/src/sys_tcs.o
 .ARM.attributes
                0x0000043e       0x31 ./sdk/osal/resmgmt.o
 .ARM.attributes
                0x0000046f       0x31 ./sdk/memory/src/qspi_automode.o
 .ARM.attributes
                0x000004a0       0x31 ./sdk/free_rtos/portable/MemMang/heap_4.o
 .ARM.attributes
                0x000004d1       0x31 ./sdk/free_rtos/portable/GCC/ARM_CM0/port.o
 .ARM.attributes
                0x00000502       0x31 ./sdk/free_rtos/event_groups.o
 .ARM.attributes
                0x00000533       0x31 ./sdk/free_rtos/list.o
 .ARM.attributes
                0x00000564       0x31 ./sdk/free_rtos/queue.o
 .ARM.attributes
                0x00000595       0x31 ./sdk/free_rtos/tasks.o
 .ARM.attributes
                0x000005c6       0x31 ./sdk/free_rtos/timers.o
 .ARM.attributes
                0x000005f7       0x31 ./main.o
 .ARM.attributes
                0x00000628       0x1e c:/diasemi/smartsnippetsstudio/gcc/4_9-2015q1/bin/../lib/gcc/arm-none-eabi/4.9.3/armv6-m\libgcc.a(_thumb1_case_sqi.o)
 .ARM.attributes
                0x00000646       0x1e c:/diasemi/smartsnippetsstudio/gcc/4_9-2015q1/bin/../lib/gcc/arm-none-eabi/4.9.3/armv6-m\libgcc.a(_thumb1_case_uqi.o)
 .ARM.attributes
                0x00000664       0x2c c:/diasemi/smartsnippetsstudio/gcc/4_9-2015q1/bin/../lib/gcc/arm-none-eabi/4.9.3/../../../../arm-none-eabi/lib/armv6-m\libg_nano.a(lib_a-exit.o)
 .ARM.attributes
                0x00000690       0x2c c:/diasemi/smartsnippetsstudio/gcc/4_9-2015q1/bin/../lib/gcc/arm-none-eabi/4.9.3/../../../../arm-none-eabi/lib/armv6-m\libg_nano.a(lib_a-fflush.o)
 .ARM.attributes
                0x000006bc       0x2c c:/diasemi/smartsnippetsstudio/gcc/4_9-2015q1/bin/../lib/gcc/arm-none-eabi/4.9.3/../../../../arm-none-eabi/lib/armv6-m\libg_nano.a(lib_a-findfp.o)
 .ARM.attributes
                0x000006e8       0x2c c:/diasemi/smartsnippetsstudio/gcc/4_9-2015q1/bin/../lib/gcc/arm-none-eabi/4.9.3/../../../../arm-none-eabi/lib/armv6-m\libg_nano.a(lib_a-fwalk.o)
 .ARM.attributes
                0x00000714       0x2c c:/diasemi/smartsnippetsstudio/gcc/4_9-2015q1/bin/../lib/gcc/arm-none-eabi/4.9.3/../../../../arm-none-eabi/lib/armv6-m\libg_nano.a(lib_a-impure.o)
 .ARM.attributes
                0x00000740       0x2c c:/diasemi/smartsnippetsstudio/gcc/4_9-2015q1/bin/../lib/gcc/arm-none-eabi/4.9.3/../../../../arm-none-eabi/lib/armv6-m\libg_nano.a(lib_a-init.o)
 .ARM.attributes
                0x0000076c       0x2c c:/diasemi/smartsnippetsstudio/gcc/4_9-2015q1/bin/../lib/gcc/arm-none-eabi/4.9.3/../../../../arm-none-eabi/lib/armv6-m\libg_nano.a(lib_a-malloc.o)
 .ARM.attributes
                0x00000798       0x2c c:/diasemi/smartsnippetsstudio/gcc/4_9-2015q1/bin/../lib/gcc/arm-none-eabi/4.9.3/../../../../arm-none-eabi/lib/armv6-m\libg_nano.a(lib_a-memcpy.o)
 .ARM.attributes
                0x000007c4       0x2c c:/diasemi/smartsnippetsstudio/gcc/4_9-2015q1/bin/../lib/gcc/arm-none-eabi/4.9.3/../../../../arm-none-eabi/lib/armv6-m\libg_nano.a(lib_a-memset.o)
 .ARM.attributes
                0x000007f0       0x2c c:/diasemi/smartsnippetsstudio/gcc/4_9-2015q1/bin/../lib/gcc/arm-none-eabi/4.9.3/../../../../arm-none-eabi/lib/armv6-m\libg_nano.a(lib_a-nano-freer.o)
 .ARM.attributes
                0x0000081c       0x2c c:/diasemi/smartsnippetsstudio/gcc/4_9-2015q1/bin/../lib/gcc/arm-none-eabi/4.9.3/../../../../arm-none-eabi/lib/armv6-m\libg_nano.a(lib_a-nano-mallocr.o)
 .ARM.attributes
                0x00000848       0x2c c:/diasemi/smartsnippetsstudio/gcc/4_9-2015q1/bin/../lib/gcc/arm-none-eabi/4.9.3/../../../../arm-none-eabi/lib/armv6-m\libg_nano.a(lib_a-putchar.o)
 .ARM.attributes
                0x00000874       0x2c c:/diasemi/smartsnippetsstudio/gcc/4_9-2015q1/bin/../lib/gcc/arm-none-eabi/4.9.3/../../../../arm-none-eabi/lib/armv6-m\libg_nano.a(lib_a-sbrkr.o)
 .ARM.attributes
                0x000008a0       0x2c c:/diasemi/smartsnippetsstudio/gcc/4_9-2015q1/bin/../lib/gcc/arm-none-eabi/4.9.3/../../../../arm-none-eabi/lib/armv6-m\libg_nano.a(lib_a-stdio.o)
 .ARM.attributes
                0x000008cc       0x2c c:/diasemi/smartsnippetsstudio/gcc/4_9-2015q1/bin/../lib/gcc/arm-none-eabi/4.9.3/../../../../arm-none-eabi/lib/armv6-m\libg_nano.a(lib_a-writer.o)
 .ARM.attributes
                0x000008f8       0x2c c:/diasemi/smartsnippetsstudio/gcc/4_9-2015q1/bin/../lib/gcc/arm-none-eabi/4.9.3/../../../../arm-none-eabi/lib/armv6-m\libg_nano.a(lib_a-closer.o)
 .ARM.attributes
                0x00000924       0x2c c:/diasemi/smartsnippetsstudio/gcc/4_9-2015q1/bin/../lib/gcc/arm-none-eabi/4.9.3/../../../../arm-none-eabi/lib/armv6-m\libg_nano.a(lib_a-lseekr.o)
 .ARM.attributes
                0x00000950       0x2c c:/diasemi/smartsnippetsstudio/gcc/4_9-2015q1/bin/../lib/gcc/arm-none-eabi/4.9.3/../../../../arm-none-eabi/lib/armv6-m\libg_nano.a(lib_a-putc.o)
 .ARM.attributes
                0x0000097c       0x2c c:/diasemi/smartsnippetsstudio/gcc/4_9-2015q1/bin/../lib/gcc/arm-none-eabi/4.9.3/../../../../arm-none-eabi/lib/armv6-m\libg_nano.a(lib_a-readr.o)
 .ARM.attributes
                0x000009a8       0x2c c:/diasemi/smartsnippetsstudio/gcc/4_9-2015q1/bin/../lib/gcc/arm-none-eabi/4.9.3/../../../../arm-none-eabi/lib/armv6-m\libg_nano.a(lib_a-reent.o)
 .ARM.attributes
                0x000009d4       0x2c c:/diasemi/smartsnippetsstudio/gcc/4_9-2015q1/bin/../lib/gcc/arm-none-eabi/4.9.3/../../../../arm-none-eabi/lib/armv6-m\libg_nano.a(lib_a-wbuf.o)
 .ARM.attributes
                0x00000a00       0x2c c:/diasemi/smartsnippetsstudio/gcc/4_9-2015q1/bin/../lib/gcc/arm-none-eabi/4.9.3/../../../../arm-none-eabi/lib/armv6-m\libg_nano.a(lib_a-wsetup.o)
 .ARM.attributes
                0x00000a2c       0x2c c:/diasemi/smartsnippetsstudio/gcc/4_9-2015q1/bin/../lib/gcc/arm-none-eabi/4.9.3/../../../../arm-none-eabi/lib/armv6-m\libg_nano.a(lib_a-makebuf.o)
 .ARM.attributes
                0x00000a58       0x2c c:/diasemi/smartsnippetsstudio/gcc/4_9-2015q1/bin/../lib/gcc/arm-none-eabi/4.9.3/../../../../arm-none-eabi/lib/armv6-m\libg_nano.a(lib_a-fstatr.o)
 .ARM.attributes
                0x00000a84       0x2c c:/diasemi/smartsnippetsstudio/gcc/4_9-2015q1/bin/../lib/gcc/arm-none-eabi/4.9.3/../../../../arm-none-eabi/lib/armv6-m\libg_nano.a(lib_a-isattyr.o)
 .ARM.attributes
                0x00000ab0       0x2c c:/diasemi/smartsnippetsstudio/gcc/4_9-2015q1/bin/../lib/gcc/arm-none-eabi/4.9.3/../../../../arm-none-eabi/lib/armv6-m\libnosys.a(close.o)
 .ARM.attributes
                0x00000adc       0x2c c:/diasemi/smartsnippetsstudio/gcc/4_9-2015q1/bin/../lib/gcc/arm-none-eabi/4.9.3/../../../../arm-none-eabi/lib/armv6-m\libnosys.a(fstat.o)
 .ARM.attributes
                0x00000b08       0x2c c:/diasemi/smartsnippetsstudio/gcc/4_9-2015q1/bin/../lib/gcc/arm-none-eabi/4.9.3/../../../../arm-none-eabi/lib/armv6-m\libnosys.a(isatty.o)
 .ARM.attributes
                0x00000b34       0x2c c:/diasemi/smartsnippetsstudio/gcc/4_9-2015q1/bin/../lib/gcc/arm-none-eabi/4.9.3/../../../../arm-none-eabi/lib/armv6-m\libnosys.a(lseek.o)
 .ARM.attributes
                0x00000b60       0x2c c:/diasemi/smartsnippetsstudio/gcc/4_9-2015q1/bin/../lib/gcc/arm-none-eabi/4.9.3/../../../../arm-none-eabi/lib/armv6-m\libnosys.a(sbrk.o)
 .ARM.attributes
                0x00000b8c       0x2c c:/diasemi/smartsnippetsstudio/gcc/4_9-2015q1/bin/../lib/gcc/arm-none-eabi/4.9.3/../../../../arm-none-eabi/lib/armv6-m\libnosys.a(_exit.o)
 .ARM.attributes
                0x00000bb8       0x2c c:/diasemi/smartsnippetsstudio/gcc/4_9-2015q1/bin/../lib/gcc/arm-none-eabi/4.9.3/armv6-m/crtend.o
 .ARM.attributes
                0x00000be4       0x1e c:/diasemi/smartsnippetsstudio/gcc/4_9-2015q1/bin/../lib/gcc/arm-none-eabi/4.9.3/armv6-m/crtn.o

.comment        0x00000000       0x70
 .comment       0x00000000       0x70 ./startup/config.o
                                 0x71 (size before relaxing)
 .comment       0x00000000       0x71 ./startup/system_ARMCM0.o
 .comment       0x00000000       0x71 ./sdk/sys_man/sys_charger.o
 .comment       0x00000000       0x71 ./sdk/sys_man/sys_clock_mgr.o
 .comment       0x00000000       0x71 ./sdk/sys_man/sys_power_mgr.o
 .comment       0x00000000       0x71 ./sdk/sys_man/sys_rtc.o
 .comment       0x00000000       0x71 ./sdk/peripherals/src/hw_cpm.o
 .comment       0x00000000       0x71 ./sdk/peripherals/src/hw_dma.o
 .comment       0x00000000       0x71 ./sdk/peripherals/src/hw_gpadc.o
 .comment       0x00000000       0x71 ./sdk/peripherals/src/hw_gpio.o
 .comment       0x00000000       0x71 ./sdk/peripherals/src/hw_hard_fault.o
 .comment       0x00000000       0x71 ./sdk/peripherals/src/hw_otpc.o
 .comment       0x00000000       0x71 ./sdk/peripherals/src/hw_qspi.o
 .comment       0x00000000       0x71 ./sdk/peripherals/src/hw_timer1.o
 .comment       0x00000000       0x71 ./sdk/peripherals/src/hw_uart.o
 .comment       0x00000000       0x71 ./sdk/peripherals/src/hw_usb_charger.o
 .comment       0x00000000       0x71 ./sdk/peripherals/src/hw_watchdog.o
 .comment       0x00000000       0x71 ./sdk/peripherals/src/hw_wkup.o
 .comment       0x00000000       0x71 ./sdk/peripherals/src/sys_tcs.o
 .comment       0x00000000       0x71 ./sdk/osal/resmgmt.o
 .comment       0x00000000       0x71 ./sdk/memory/src/qspi_automode.o
 .comment       0x00000000       0x71 ./sdk/free_rtos/portable/MemMang/heap_4.o
 .comment       0x00000000       0x71 ./sdk/free_rtos/portable/GCC/ARM_CM0/port.o
 .comment       0x00000000       0x71 ./sdk/free_rtos/event_groups.o
 .comment       0x00000000       0x71 ./sdk/free_rtos/list.o
 .comment       0x00000000       0x71 ./sdk/free_rtos/queue.o
 .comment       0x00000000       0x71 ./sdk/free_rtos/tasks.o
 .comment       0x00000000       0x71 ./sdk/free_rtos/timers.o
 .comment       0x00000000       0x71 ./main.o

.debug_info     0x00000000    0x207ec
 .debug_info    0x00000000      0xe42 ./startup/config.o
 .debug_info    0x00000e42       0xd8 ./startup/startup_ARMCM0.o
 .debug_info    0x00000f1a     0x177e ./startup/system_ARMCM0.o
 .debug_info    0x00002698       0xda ./startup/vector_table.o
 .debug_info    0x00002772     0x23b3 ./sdk/sys_man/sys_charger.o
 .debug_info    0x00004b25     0x30cb ./sdk/sys_man/sys_clock_mgr.o
 .debug_info    0x00007bf0     0x3874 ./sdk/sys_man/sys_power_mgr.o
 .debug_info    0x0000b464      0x2e4 ./sdk/sys_man/sys_rtc.o
 .debug_info    0x0000b748     0x157d ./sdk/peripherals/src/hw_cpm.o
 .debug_info    0x0000ccc5      0xfc5 ./sdk/peripherals/src/hw_dma.o
 .debug_info    0x0000dc8a      0xe8b ./sdk/peripherals/src/hw_gpadc.o
 .debug_info    0x0000eb15      0x90a ./sdk/peripherals/src/hw_gpio.o
 .debug_info    0x0000f41f      0x37e ./sdk/peripherals/src/hw_hard_fault.o
 .debug_info    0x0000f79d     0x1428 ./sdk/peripherals/src/hw_otpc.o
 .debug_info    0x00010bc5      0xac2 ./sdk/peripherals/src/hw_qspi.o
 .debug_info    0x00011687      0x5ad ./sdk/peripherals/src/hw_timer1.o
 .debug_info    0x00011c34     0x26d3 ./sdk/peripherals/src/hw_uart.o
 .debug_info    0x00014307      0xd4e ./sdk/peripherals/src/hw_usb_charger.o
 .debug_info    0x00015055      0x56c ./sdk/peripherals/src/hw_watchdog.o
 .debug_info    0x000155c1      0xae7 ./sdk/peripherals/src/hw_wkup.o
 .debug_info    0x000160a8      0xacf ./sdk/peripherals/src/sys_tcs.o
 .debug_info    0x00016b77      0x6d2 ./sdk/osal/resmgmt.o
 .debug_info    0x00017249     0x172a ./sdk/memory/src/qspi_automode.o
 .debug_info    0x00018973      0x3ed ./sdk/free_rtos/portable/MemMang/heap_4.o
 .debug_info    0x00018d60      0xcba ./sdk/free_rtos/portable/GCC/ARM_CM0/port.o
 .debug_info    0x00019a1a      0xb35 ./sdk/free_rtos/event_groups.o
 .debug_info    0x0001a54f      0x29d ./sdk/free_rtos/list.o
 .debug_info    0x0001a7ec     0x1897 ./sdk/free_rtos/queue.o
 .debug_info    0x0001c083     0x24f7 ./sdk/free_rtos/tasks.o
 .debug_info    0x0001e57a     0x1146 ./sdk/free_rtos/timers.o
 .debug_info    0x0001f6c0     0x112c ./main.o

.debug_abbrev   0x00000000     0x51b0
 .debug_abbrev  0x00000000      0x2ba ./startup/config.o
 .debug_abbrev  0x000002ba       0x12 ./startup/startup_ARMCM0.o
 .debug_abbrev  0x000002cc      0x399 ./startup/system_ARMCM0.o
 .debug_abbrev  0x00000665       0x14 ./startup/vector_table.o
 .debug_abbrev  0x00000679      0x428 ./sdk/sys_man/sys_charger.o
 .debug_abbrev  0x00000aa1      0x59a ./sdk/sys_man/sys_clock_mgr.o
 .debug_abbrev  0x0000103b      0x4c5 ./sdk/sys_man/sys_power_mgr.o
 .debug_abbrev  0x00001500      0x10e ./sdk/sys_man/sys_rtc.o
 .debug_abbrev  0x0000160e      0x2c8 ./sdk/peripherals/src/hw_cpm.o
 .debug_abbrev  0x000018d6      0x314 ./sdk/peripherals/src/hw_dma.o
 .debug_abbrev  0x00001bea      0x2fa ./sdk/peripherals/src/hw_gpadc.o
 .debug_abbrev  0x00001ee4      0x1ee ./sdk/peripherals/src/hw_gpio.o
 .debug_abbrev  0x000020d2       0xf2 ./sdk/peripherals/src/hw_hard_fault.o
 .debug_abbrev  0x000021c4      0x392 ./sdk/peripherals/src/hw_otpc.o
 .debug_abbrev  0x00002556      0x25e ./sdk/peripherals/src/hw_qspi.o
 .debug_abbrev  0x000027b4      0x1a3 ./sdk/peripherals/src/hw_timer1.o
 .debug_abbrev  0x00002957      0x466 ./sdk/peripherals/src/hw_uart.o
 .debug_abbrev  0x00002dbd      0x1a1 ./sdk/peripherals/src/hw_usb_charger.o
 .debug_abbrev  0x00002f5e      0x17b ./sdk/peripherals/src/hw_watchdog.o
 .debug_abbrev  0x000030d9      0x2ba ./sdk/peripherals/src/hw_wkup.o
 .debug_abbrev  0x00003393      0x2b5 ./sdk/peripherals/src/sys_tcs.o
 .debug_abbrev  0x00003648      0x223 ./sdk/osal/resmgmt.o
 .debug_abbrev  0x0000386b      0x44d ./sdk/memory/src/qspi_automode.o
 .debug_abbrev  0x00003cb8      0x21b ./sdk/free_rtos/portable/MemMang/heap_4.o
 .debug_abbrev  0x00003ed3      0x33e ./sdk/free_rtos/portable/GCC/ARM_CM0/port.o
 .debug_abbrev  0x00004211      0x260 ./sdk/free_rtos/event_groups.o
 .debug_abbrev  0x00004471       0xda ./sdk/free_rtos/list.o
 .debug_abbrev  0x0000454b      0x2c0 ./sdk/free_rtos/queue.o
 .debug_abbrev  0x0000480b      0x312 ./sdk/free_rtos/tasks.o
 .debug_abbrev  0x00004b1d      0x2eb ./sdk/free_rtos/timers.o
 .debug_abbrev  0x00004e08      0x3a8 ./main.o

.debug_loc      0x00000000     0xcdaa
 .debug_loc     0x00000000      0x266 ./startup/config.o
 .debug_loc     0x00000266      0x657 ./startup/system_ARMCM0.o
 .debug_loc     0x000008bd      0x1d7 ./sdk/sys_man/sys_charger.o
 .debug_loc     0x00000a94      0xc3f ./sdk/sys_man/sys_clock_mgr.o
 .debug_loc     0x000016d3     0x167e ./sdk/sys_man/sys_power_mgr.o
 .debug_loc     0x00002d51       0xf8 ./sdk/sys_man/sys_rtc.o
 .debug_loc     0x00002e49      0x26b ./sdk/peripherals/src/hw_cpm.o
 .debug_loc     0x000030b4      0x593 ./sdk/peripherals/src/hw_dma.o
 .debug_loc     0x00003647      0x315 ./sdk/peripherals/src/hw_gpadc.o
 .debug_loc     0x0000395c      0x4ef ./sdk/peripherals/src/hw_gpio.o
 .debug_loc     0x00003e4b       0x1e ./sdk/peripherals/src/hw_hard_fault.o
 .debug_loc     0x00003e69     0x15a2 ./sdk/peripherals/src/hw_otpc.o
 .debug_loc     0x0000540b      0x276 ./sdk/peripherals/src/hw_qspi.o
 .debug_loc     0x00005681       0x82 ./sdk/peripherals/src/hw_timer1.o
 .debug_loc     0x00005703     0x1c95 ./sdk/peripherals/src/hw_uart.o
 .debug_loc     0x00007398       0x13 ./sdk/peripherals/src/hw_usb_charger.o
 .debug_loc     0x000073ab       0x90 ./sdk/peripherals/src/hw_watchdog.o
 .debug_loc     0x0000743b      0x213 ./sdk/peripherals/src/hw_wkup.o
 .debug_loc     0x0000764e      0x3ff ./sdk/peripherals/src/sys_tcs.o
 .debug_loc     0x00007a4d      0x265 ./sdk/osal/resmgmt.o
 .debug_loc     0x00007cb2      0x778 ./sdk/memory/src/qspi_automode.o
 .debug_loc     0x0000842a      0x34e ./sdk/free_rtos/portable/MemMang/heap_4.o
 .debug_loc     0x00008778      0x150 ./sdk/free_rtos/portable/GCC/ARM_CM0/port.o
 .debug_loc     0x000088c8      0xb9a ./sdk/free_rtos/event_groups.o
 .debug_loc     0x00009462       0x89 ./sdk/free_rtos/list.o
 .debug_loc     0x000094eb     0x1600 ./sdk/free_rtos/queue.o
 .debug_loc     0x0000aaeb     0x1a25 ./sdk/free_rtos/tasks.o
 .debug_loc     0x0000c510      0x83a ./sdk/free_rtos/timers.o
 .debug_loc     0x0000cd4a       0x60 ./main.o

.debug_aranges  0x00000000     0x10b8
 .debug_aranges
                0x00000000       0x40 ./startup/config.o
 .debug_aranges
                0x00000040       0x28 ./startup/startup_ARMCM0.o
 .debug_aranges
                0x00000068       0x48 ./startup/system_ARMCM0.o
 .debug_aranges
                0x000000b0       0x20 ./startup/vector_table.o
 .debug_aranges
                0x000000d0       0x90 ./sdk/sys_man/sys_charger.o
 .debug_aranges
                0x00000160      0x190 ./sdk/sys_man/sys_clock_mgr.o
 .debug_aranges
                0x000002f0      0x118 ./sdk/sys_man/sys_power_mgr.o
 .debug_aranges
                0x00000408       0x30 ./sdk/sys_man/sys_rtc.o
 .debug_aranges
                0x00000438       0xc8 ./sdk/peripherals/src/hw_cpm.o
 .debug_aranges
                0x00000500       0x50 ./sdk/peripherals/src/hw_dma.o
 .debug_aranges
                0x00000550       0x70 ./sdk/peripherals/src/hw_gpadc.o
 .debug_aranges
                0x000005c0       0x80 ./sdk/peripherals/src/hw_gpio.o
 .debug_aranges
                0x00000640       0x20 ./sdk/peripherals/src/hw_hard_fault.o
 .debug_aranges
                0x00000660       0xc0 ./sdk/peripherals/src/hw_otpc.o
 .debug_aranges
                0x00000720       0x50 ./sdk/peripherals/src/hw_qspi.o
 .debug_aranges
                0x00000770       0x28 ./sdk/peripherals/src/hw_timer1.o
 .debug_aranges
                0x00000798      0x1a8 ./sdk/peripherals/src/hw_uart.o
 .debug_aranges
                0x00000940       0x40 ./sdk/peripherals/src/hw_usb_charger.o
 .debug_aranges
                0x00000980       0x50 ./sdk/peripherals/src/hw_watchdog.o
 .debug_aranges
                0x000009d0       0x40 ./sdk/peripherals/src/hw_wkup.o
 .debug_aranges
                0x00000a10       0x40 ./sdk/peripherals/src/sys_tcs.o
 .debug_aranges
                0x00000a50       0x38 ./sdk/osal/resmgmt.o
 .debug_aranges
                0x00000a88       0xd8 ./sdk/memory/src/qspi_automode.o
 .debug_aranges
                0x00000b60       0x48 ./sdk/free_rtos/portable/MemMang/heap_4.o
 .debug_aranges
                0x00000ba8       0x88 ./sdk/free_rtos/portable/GCC/ARM_CM0/port.o
 .debug_aranges
                0x00000c30       0x78 ./sdk/free_rtos/event_groups.o
 .debug_aranges
                0x00000ca8       0x40 ./sdk/free_rtos/list.o
 .debug_aranges
                0x00000ce8      0x120 ./sdk/free_rtos/queue.o
 .debug_aranges
                0x00000e08      0x1e0 ./sdk/free_rtos/tasks.o
 .debug_aranges
                0x00000fe8       0x78 ./sdk/free_rtos/timers.o
 .debug_aranges
                0x00001060       0x58 ./main.o

.debug_ranges   0x00000000     0x19e0
 .debug_ranges  0x00000000       0x30 ./startup/config.o
 .debug_ranges  0x00000030       0x20 ./startup/startup_ARMCM0.o
 .debug_ranges  0x00000050       0x80 ./startup/system_ARMCM0.o
 .debug_ranges  0x000000d0      0x210 ./sdk/sys_man/sys_charger.o
 .debug_ranges  0x000002e0      0x338 ./sdk/sys_man/sys_clock_mgr.o
 .debug_ranges  0x00000618      0x1e0 ./sdk/sys_man/sys_power_mgr.o
 .debug_ranges  0x000007f8       0x68 ./sdk/sys_man/sys_rtc.o
 .debug_ranges  0x00000860       0xb8 ./sdk/peripherals/src/hw_cpm.o
 .debug_ranges  0x00000918       0xa8 ./sdk/peripherals/src/hw_dma.o
 .debug_ranges  0x000009c0      0x2b0 ./sdk/peripherals/src/hw_gpadc.o
 .debug_ranges  0x00000c70       0x70 ./sdk/peripherals/src/hw_gpio.o
 .debug_ranges  0x00000ce0       0x10 ./sdk/peripherals/src/hw_hard_fault.o
 .debug_ranges  0x00000cf0      0x110 ./sdk/peripherals/src/hw_otpc.o
 .debug_ranges  0x00000e00       0x88 ./sdk/peripherals/src/hw_qspi.o
 .debug_ranges  0x00000e88       0x48 ./sdk/peripherals/src/hw_timer1.o
 .debug_ranges  0x00000ed0      0x208 ./sdk/peripherals/src/hw_uart.o
 .debug_ranges  0x000010d8       0x48 ./sdk/peripherals/src/hw_usb_charger.o
 .debug_ranges  0x00001120       0x40 ./sdk/peripherals/src/hw_watchdog.o
 .debug_ranges  0x00001160       0x78 ./sdk/peripherals/src/hw_wkup.o
 .debug_ranges  0x000011d8       0x48 ./sdk/peripherals/src/sys_tcs.o
 .debug_ranges  0x00001220       0x90 ./sdk/osal/resmgmt.o
 .debug_ranges  0x000012b0      0x1e0 ./sdk/memory/src/qspi_automode.o
 .debug_ranges  0x00001490       0x38 ./sdk/free_rtos/portable/MemMang/heap_4.o
 .debug_ranges  0x000014c8       0x90 ./sdk/free_rtos/portable/GCC/ARM_CM0/port.o
 .debug_ranges  0x00001558       0x80 ./sdk/free_rtos/event_groups.o
 .debug_ranges  0x000015d8       0x30 ./sdk/free_rtos/list.o
 .debug_ranges  0x00001608      0x110 ./sdk/free_rtos/queue.o
 .debug_ranges  0x00001718      0x218 ./sdk/free_rtos/tasks.o
 .debug_ranges  0x00001930       0x68 ./sdk/free_rtos/timers.o
 .debug_ranges  0x00001998       0x48 ./main.o

.debug_line     0x00000000     0x99f3
 .debug_line    0x00000000      0x295 ./startup/config.o
 .debug_line    0x00000295      0x141 ./startup/startup_ARMCM0.o
 .debug_line    0x000003d6      0x495 ./startup/system_ARMCM0.o
 .debug_line    0x0000086b       0x77 ./startup/vector_table.o
 .debug_line    0x000008e2      0x7c1 ./sdk/sys_man/sys_charger.o
 .debug_line    0x000010a3      0xd05 ./sdk/sys_man/sys_clock_mgr.o
 .debug_line    0x00001da8      0xd05 ./sdk/sys_man/sys_power_mgr.o
 .debug_line    0x00002aad      0x215 ./sdk/sys_man/sys_rtc.o
 .debug_line    0x00002cc2      0x471 ./sdk/peripherals/src/hw_cpm.o
 .debug_line    0x00003133      0x396 ./sdk/peripherals/src/hw_dma.o
 .debug_line    0x000034c9      0x516 ./sdk/peripherals/src/hw_gpadc.o
 .debug_line    0x000039df      0x2c1 ./sdk/peripherals/src/hw_gpio.o
 .debug_line    0x00003ca0      0x1f1 ./sdk/peripherals/src/hw_hard_fault.o
 .debug_line    0x00003e91      0x855 ./sdk/peripherals/src/hw_otpc.o
 .debug_line    0x000046e6      0x338 ./sdk/peripherals/src/hw_qspi.o
 .debug_line    0x00004a1e      0x252 ./sdk/peripherals/src/hw_timer1.o
 .debug_line    0x00004c70      0xaf0 ./sdk/peripherals/src/hw_uart.o
 .debug_line    0x00005760      0x261 ./sdk/peripherals/src/hw_usb_charger.o
 .debug_line    0x000059c1      0x23c ./sdk/peripherals/src/hw_watchdog.o
 .debug_line    0x00005bfd      0x2f4 ./sdk/peripherals/src/hw_wkup.o
 .debug_line    0x00005ef1      0x312 ./sdk/peripherals/src/sys_tcs.o
 .debug_line    0x00006203      0x399 ./sdk/osal/resmgmt.o
 .debug_line    0x0000659c      0x657 ./sdk/memory/src/qspi_automode.o
 .debug_line    0x00006bf3      0x3a4 ./sdk/free_rtos/portable/MemMang/heap_4.o
 .debug_line    0x00006f97      0x48a ./sdk/free_rtos/portable/GCC/ARM_CM0/port.o
 .debug_line    0x00007421      0x4a8 ./sdk/free_rtos/event_groups.o
 .debug_line    0x000078c9      0x256 ./sdk/free_rtos/list.o
 .debug_line    0x00007b1f      0x8b4 ./sdk/free_rtos/queue.o
 .debug_line    0x000083d3      0xd26 ./sdk/free_rtos/tasks.o
 .debug_line    0x000090f9      0x496 ./sdk/free_rtos/timers.o
 .debug_line    0x0000958f      0x464 ./main.o

.debug_str      0x00000000     0xa272
 .debug_str     0x00000000      0xca9 ./startup/config.o
                                0xd35 (size before relaxing)
 .debug_str     0x00000ca9     0x1004 ./startup/system_ARMCM0.o
                               0x1289 (size before relaxing)
 .debug_str     0x00001cad     0x1516 ./sdk/sys_man/sys_charger.o
                               0x2131 (size before relaxing)
 .debug_str     0x000031c3     0x1268 ./sdk/sys_man/sys_clock_mgr.o
                               0x1ef2 (size before relaxing)
 .debug_str     0x0000442b      0xc97 ./sdk/sys_man/sys_power_mgr.o
                               0x22f0 (size before relaxing)
 .debug_str     0x000050c2       0x66 ./sdk/sys_man/sys_rtc.o
                                0x3c2 (size before relaxing)
 .debug_str     0x00005128      0x2c7 ./sdk/peripherals/src/hw_cpm.o
                               0x14df (size before relaxing)
 .debug_str     0x000053ef      0x5fd ./sdk/peripherals/src/hw_dma.o
                               0x1014 (size before relaxing)
 .debug_str     0x000059ec      0x30b ./sdk/peripherals/src/hw_gpadc.o
                                0xc73 (size before relaxing)
 .debug_str     0x00005cf7      0x946 ./sdk/peripherals/src/hw_gpio.o
                                0xafa (size before relaxing)
 .debug_str     0x0000663d       0x86 ./sdk/peripherals/src/hw_hard_fault.o
                                0x4af (size before relaxing)
 .debug_str     0x000066c3      0x2ae ./sdk/peripherals/src/hw_otpc.o
                                0xa9a (size before relaxing)
 .debug_str     0x00006971      0x48d ./sdk/peripherals/src/hw_qspi.o
                                0xa66 (size before relaxing)
 .debug_str     0x00006dfe       0xd1 ./sdk/peripherals/src/hw_timer1.o
                                0x64a (size before relaxing)
 .debug_str     0x00006ecf      0x713 ./sdk/peripherals/src/hw_uart.o
                               0x1946 (size before relaxing)
 .debug_str     0x000075e2       0xb7 ./sdk/peripherals/src/hw_usb_charger.o
                                0xda1 (size before relaxing)
 .debug_str     0x00007699      0x127 ./sdk/peripherals/src/hw_watchdog.o
                                0x67f (size before relaxing)
 .debug_str     0x000077c0      0x261 ./sdk/peripherals/src/hw_wkup.o
                                0x9bb (size before relaxing)
 .debug_str     0x00007a21      0x173 ./sdk/peripherals/src/sys_tcs.o
                                0x8c3 (size before relaxing)
 .debug_str     0x00007b94      0x224 ./sdk/osal/resmgmt.o
                                0x5e0 (size before relaxing)
 .debug_str     0x00007db8      0x4e1 ./sdk/memory/src/qspi_automode.o
                                0xe0a (size before relaxing)
 .debug_str     0x00008299      0x24d ./sdk/free_rtos/portable/MemMang/heap_4.o
                                0x3f4 (size before relaxing)
 .debug_str     0x000084e6      0x1c9 ./sdk/free_rtos/portable/GCC/ARM_CM0/port.o
                                0xc20 (size before relaxing)
 .debug_str     0x000086af      0x3b5 ./sdk/free_rtos/event_groups.o
                                0x6f7 (size before relaxing)
 .debug_str     0x00008a64       0xb2 ./sdk/free_rtos/list.o
                                0x2e9 (size before relaxing)
 .debug_str     0x00008b16      0x650 ./sdk/free_rtos/queue.o
                                0xa99 (size before relaxing)
 .debug_str     0x00009166      0x8dc ./sdk/free_rtos/tasks.o
                               0x10bd (size before relaxing)
 .debug_str     0x00009a42      0x3ef ./sdk/free_rtos/timers.o
                                0x947 (size before relaxing)
 .debug_str     0x00009e31      0x441 ./main.o
                               0x1110 (size before relaxing)

.debug_frame    0x00000000     0x3344
 .debug_frame   0x00000000       0xa8 ./startup/config.o
 .debug_frame   0x000000a8       0xa0 ./startup/system_ARMCM0.o
 .debug_frame   0x00000148      0x194 ./sdk/sys_man/sys_charger.o
 .debug_frame   0x000002dc      0x4c4 ./sdk/sys_man/sys_clock_mgr.o
 .debug_frame   0x000007a0      0x374 ./sdk/sys_man/sys_power_mgr.o
 .debug_frame   0x00000b14       0x58 ./sdk/sys_man/sys_rtc.o
 .debug_frame   0x00000b6c      0x1a8 ./sdk/peripherals/src/hw_cpm.o
 .debug_frame   0x00000d14       0xd0 ./sdk/peripherals/src/hw_dma.o
 .debug_frame   0x00000de4      0x104 ./sdk/peripherals/src/hw_gpadc.o
 .debug_frame   0x00000ee8      0x148 ./sdk/peripherals/src/hw_gpio.o
 .debug_frame   0x00001030       0x28 ./sdk/peripherals/src/hw_hard_fault.o
 .debug_frame   0x00001058      0x248 ./sdk/peripherals/src/hw_otpc.o
 .debug_frame   0x000012a0       0xb8 ./sdk/peripherals/src/hw_qspi.o
 .debug_frame   0x00001358       0x3c ./sdk/peripherals/src/hw_timer1.o
 .debug_frame   0x00001394      0x488 ./sdk/peripherals/src/hw_uart.o
 .debug_frame   0x0000181c       0x60 ./sdk/peripherals/src/hw_usb_charger.o
 .debug_frame   0x0000187c       0x94 ./sdk/peripherals/src/hw_watchdog.o
 .debug_frame   0x00001910       0x8c ./sdk/peripherals/src/hw_wkup.o
 .debug_frame   0x0000199c       0x9c ./sdk/peripherals/src/sys_tcs.o
 .debug_frame   0x00001a38       0x88 ./sdk/osal/resmgmt.o
 .debug_frame   0x00001ac0      0x264 ./sdk/memory/src/qspi_automode.o
 .debug_frame   0x00001d24       0x9c ./sdk/free_rtos/portable/MemMang/heap_4.o
 .debug_frame   0x00001dc0      0x128 ./sdk/free_rtos/portable/GCC/ARM_CM0/port.o
 .debug_frame   0x00001ee8      0x154 ./sdk/free_rtos/event_groups.o
 .debug_frame   0x0000203c       0x6c ./sdk/free_rtos/list.o
 .debug_frame   0x000020a8      0x388 ./sdk/free_rtos/queue.o
 .debug_frame   0x00002430      0x5c0 ./sdk/free_rtos/tasks.o
 .debug_frame   0x000029f0      0x168 ./sdk/free_rtos/timers.o
 .debug_frame   0x00002b58       0xc0 ./main.o
 .debug_frame   0x00002c18       0x28 c:/diasemi/smartsnippetsstudio/gcc/4_9-2015q1/bin/../lib/gcc/arm-none-eabi/4.9.3/../../../../arm-none-eabi/lib/armv6-m\libg_nano.a(lib_a-exit.o)
 .debug_frame   0x00002c40       0x68 c:/diasemi/smartsnippetsstudio/gcc/4_9-2015q1/bin/../lib/gcc/arm-none-eabi/4.9.3/../../../../arm-none-eabi/lib/armv6-m\libg_nano.a(lib_a-fflush.o)
 .debug_frame   0x00002ca8      0x140 c:/diasemi/smartsnippetsstudio/gcc/4_9-2015q1/bin/../lib/gcc/arm-none-eabi/4.9.3/../../../../arm-none-eabi/lib/armv6-m\libg_nano.a(lib_a-findfp.o)
 .debug_frame   0x00002de8       0x58 c:/diasemi/smartsnippetsstudio/gcc/4_9-2015q1/bin/../lib/gcc/arm-none-eabi/4.9.3/../../../../arm-none-eabi/lib/armv6-m\libg_nano.a(lib_a-fwalk.o)
 .debug_frame   0x00002e40       0x2c c:/diasemi/smartsnippetsstudio/gcc/4_9-2015q1/bin/../lib/gcc/arm-none-eabi/4.9.3/../../../../arm-none-eabi/lib/armv6-m\libg_nano.a(lib_a-init.o)
 .debug_frame   0x00002e6c       0x40 c:/diasemi/smartsnippetsstudio/gcc/4_9-2015q1/bin/../lib/gcc/arm-none-eabi/4.9.3/../../../../arm-none-eabi/lib/armv6-m\libg_nano.a(lib_a-malloc.o)
 .debug_frame   0x00002eac       0x28 c:/diasemi/smartsnippetsstudio/gcc/4_9-2015q1/bin/../lib/gcc/arm-none-eabi/4.9.3/../../../../arm-none-eabi/lib/armv6-m\libg_nano.a(lib_a-memcpy.o)
 .debug_frame   0x00002ed4       0x20 c:/diasemi/smartsnippetsstudio/gcc/4_9-2015q1/bin/../lib/gcc/arm-none-eabi/4.9.3/../../../../arm-none-eabi/lib/armv6-m\libg_nano.a(lib_a-memset.o)
 .debug_frame   0x00002ef4       0x2c c:/diasemi/smartsnippetsstudio/gcc/4_9-2015q1/bin/../lib/gcc/arm-none-eabi/4.9.3/../../../../arm-none-eabi/lib/armv6-m\libg_nano.a(lib_a-nano-freer.o)
 .debug_frame   0x00002f20       0x2c c:/diasemi/smartsnippetsstudio/gcc/4_9-2015q1/bin/../lib/gcc/arm-none-eabi/4.9.3/../../../../arm-none-eabi/lib/armv6-m\libg_nano.a(lib_a-nano-mallocr.o)
 .debug_frame   0x00002f4c       0x48 c:/diasemi/smartsnippetsstudio/gcc/4_9-2015q1/bin/../lib/gcc/arm-none-eabi/4.9.3/../../../../arm-none-eabi/lib/armv6-m\libg_nano.a(lib_a-putchar.o)
 .debug_frame   0x00002f94       0x2c c:/diasemi/smartsnippetsstudio/gcc/4_9-2015q1/bin/../lib/gcc/arm-none-eabi/4.9.3/../../../../arm-none-eabi/lib/armv6-m\libg_nano.a(lib_a-sbrkr.o)
 .debug_frame   0x00002fc0       0x90 c:/diasemi/smartsnippetsstudio/gcc/4_9-2015q1/bin/../lib/gcc/arm-none-eabi/4.9.3/../../../../arm-none-eabi/lib/armv6-m\libg_nano.a(lib_a-stdio.o)
 .debug_frame   0x00003050       0x2c c:/diasemi/smartsnippetsstudio/gcc/4_9-2015q1/bin/../lib/gcc/arm-none-eabi/4.9.3/../../../../arm-none-eabi/lib/armv6-m\libg_nano.a(lib_a-writer.o)
 .debug_frame   0x0000307c       0x2c c:/diasemi/smartsnippetsstudio/gcc/4_9-2015q1/bin/../lib/gcc/arm-none-eabi/4.9.3/../../../../arm-none-eabi/lib/armv6-m\libg_nano.a(lib_a-closer.o)
 .debug_frame   0x000030a8       0x2c c:/diasemi/smartsnippetsstudio/gcc/4_9-2015q1/bin/../lib/gcc/arm-none-eabi/4.9.3/../../../../arm-none-eabi/lib/armv6-m\libg_nano.a(lib_a-lseekr.o)
 .debug_frame   0x000030d4       0x44 c:/diasemi/smartsnippetsstudio/gcc/4_9-2015q1/bin/../lib/gcc/arm-none-eabi/4.9.3/../../../../arm-none-eabi/lib/armv6-m\libg_nano.a(lib_a-putc.o)
 .debug_frame   0x00003118       0x2c c:/diasemi/smartsnippetsstudio/gcc/4_9-2015q1/bin/../lib/gcc/arm-none-eabi/4.9.3/../../../../arm-none-eabi/lib/armv6-m\libg_nano.a(lib_a-readr.o)
 .debug_frame   0x00003144       0x48 c:/diasemi/smartsnippetsstudio/gcc/4_9-2015q1/bin/../lib/gcc/arm-none-eabi/4.9.3/../../../../arm-none-eabi/lib/armv6-m\libg_nano.a(lib_a-reent.o)
 .debug_frame   0x0000318c       0x44 c:/diasemi/smartsnippetsstudio/gcc/4_9-2015q1/bin/../lib/gcc/arm-none-eabi/4.9.3/../../../../arm-none-eabi/lib/armv6-m\libg_nano.a(lib_a-wbuf.o)
 .debug_frame   0x000031d0       0x2c c:/diasemi/smartsnippetsstudio/gcc/4_9-2015q1/bin/../lib/gcc/arm-none-eabi/4.9.3/../../../../arm-none-eabi/lib/armv6-m\libg_nano.a(lib_a-wsetup.o)
 .debug_frame   0x000031fc       0x30 c:/diasemi/smartsnippetsstudio/gcc/4_9-2015q1/bin/../lib/gcc/arm-none-eabi/4.9.3/../../../../arm-none-eabi/lib/armv6-m\libg_nano.a(lib_a-makebuf.o)
 .debug_frame   0x0000322c       0x2c c:/diasemi/smartsnippetsstudio/gcc/4_9-2015q1/bin/../lib/gcc/arm-none-eabi/4.9.3/../../../../arm-none-eabi/lib/armv6-m\libg_nano.a(lib_a-fstatr.o)
 .debug_frame   0x00003258       0x2c c:/diasemi/smartsnippetsstudio/gcc/4_9-2015q1/bin/../lib/gcc/arm-none-eabi/4.9.3/../../../../arm-none-eabi/lib/armv6-m\libg_nano.a(lib_a-isattyr.o)
 .debug_frame   0x00003284       0x20 c:/diasemi/smartsnippetsstudio/gcc/4_9-2015q1/bin/../lib/gcc/arm-none-eabi/4.9.3/../../../../arm-none-eabi/lib/armv6-m\libnosys.a(close.o)
 .debug_frame   0x000032a4       0x20 c:/diasemi/smartsnippetsstudio/gcc/4_9-2015q1/bin/../lib/gcc/arm-none-eabi/4.9.3/../../../../arm-none-eabi/lib/armv6-m\libnosys.a(fstat.o)
 .debug_frame   0x000032c4       0x20 c:/diasemi/smartsnippetsstudio/gcc/4_9-2015q1/bin/../lib/gcc/arm-none-eabi/4.9.3/../../../../arm-none-eabi/lib/armv6-m\libnosys.a(isatty.o)
 .debug_frame   0x000032e4       0x20 c:/diasemi/smartsnippetsstudio/gcc/4_9-2015q1/bin/../lib/gcc/arm-none-eabi/4.9.3/../../../../arm-none-eabi/lib/armv6-m\libnosys.a(lseek.o)
 .debug_frame   0x00003304       0x20 c:/diasemi/smartsnippetsstudio/gcc/4_9-2015q1/bin/../lib/gcc/arm-none-eabi/4.9.3/../../../../arm-none-eabi/lib/armv6-m\libnosys.a(sbrk.o)
 .debug_frame   0x00003324       0x20 c:/diasemi/smartsnippetsstudio/gcc/4_9-2015q1/bin/../lib/gcc/arm-none-eabi/4.9.3/../../../../arm-none-eabi/lib/armv6-m\libnosys.a(_exit.o)

.stab           0x00000000       0x6c
 .stab          0x00000000       0x24 c:/diasemi/smartsnippetsstudio/gcc/4_9-2015q1/bin/../lib/gcc/arm-none-eabi/4.9.3/../../../../arm-none-eabi/lib/armv6-m\libnosys.a(close.o)
 .stab          0x00000024       0x18 c:/diasemi/smartsnippetsstudio/gcc/4_9-2015q1/bin/../lib/gcc/arm-none-eabi/4.9.3/../../../../arm-none-eabi/lib/armv6-m\libnosys.a(fstat.o)
                                 0x24 (size before relaxing)
 .stab          0x0000003c       0x18 c:/diasemi/smartsnippetsstudio/gcc/4_9-2015q1/bin/../lib/gcc/arm-none-eabi/4.9.3/../../../../arm-none-eabi/lib/armv6-m\libnosys.a(isatty.o)
                                 0x24 (size before relaxing)
 .stab          0x00000054       0x18 c:/diasemi/smartsnippetsstudio/gcc/4_9-2015q1/bin/../lib/gcc/arm-none-eabi/4.9.3/../../../../arm-none-eabi/lib/armv6-m\libnosys.a(lseek.o)
                                 0x24 (size before relaxing)

.stabstr        0x00000000       0xe3
 .stabstr       0x00000000       0xe3 c:/diasemi/smartsnippetsstudio/gcc/4_9-2015q1/bin/../lib/gcc/arm-none-eabi/4.9.3/../../../../arm-none-eabi/lib/armv6-m\libnosys.a(close.o)
